
izmLen-mega128.elf:     file format elf32-avr

Sections:
Idx Name          Size      VMA       LMA       File off  Algn
  0 .data         0000003a  00800100  00006630  000066e4  2**0
                  CONTENTS, ALLOC, LOAD, DATA
  1 .text         00006630  00000000  00000000  000000b4  2**1
                  CONTENTS, ALLOC, LOAD, READONLY, CODE
  2 .bss          000000d9  0080013a  0080013a  0000671e  2**0
                  ALLOC
  3 .eeprom       00000cfd  00810000  00810000  0000671e  2**0
                  CONTENTS, ALLOC, LOAD, DATA
  4 .comment      00000030  00000000  00000000  0000741b  2**0
                  CONTENTS, READONLY
  5 .note.gnu.avr.deviceinfo 0000003c  00000000  00000000  0000744c  2**2
                  CONTENTS, READONLY
  6 .debug_aranges 00000898  00000000  00000000  00007488  2**3
                  CONTENTS, READONLY, DEBUGGING
  7 .debug_info   0000d7f1  00000000  00000000  00007d20  2**0
                  CONTENTS, READONLY, DEBUGGING
  8 .debug_abbrev 00002a23  00000000  00000000  00015511  2**0
                  CONTENTS, READONLY, DEBUGGING
  9 .debug_line   00006208  00000000  00000000  00017f34  2**0
                  CONTENTS, READONLY, DEBUGGING
 10 .debug_frame  000015b8  00000000  00000000  0001e13c  2**2
                  CONTENTS, READONLY, DEBUGGING
 11 .debug_str    00003199  00000000  00000000  0001f6f4  2**0
                  CONTENTS, READONLY, DEBUGGING
 12 .debug_loc    00005ea3  00000000  00000000  0002288d  2**0
                  CONTENTS, READONLY, DEBUGGING
 13 .debug_ranges 000007a0  00000000  00000000  00028730  2**0
                  CONTENTS, READONLY, DEBUGGING

Disassembly of section .text:

00000000 <__vectors>:
       0:	7a c2       	rjmp	.+1268   	; 0x4f6 <__ctors_end>
       2:	00 00       	nop
       4:	a2 c2       	rjmp	.+1348   	; 0x54a <__bad_interrupt>
       6:	00 00       	nop
       8:	a0 c2       	rjmp	.+1344   	; 0x54a <__bad_interrupt>
       a:	00 00       	nop
       c:	9e c2       	rjmp	.+1340   	; 0x54a <__bad_interrupt>
       e:	00 00       	nop
      10:	9c c2       	rjmp	.+1336   	; 0x54a <__bad_interrupt>
      12:	00 00       	nop
      14:	9a c2       	rjmp	.+1332   	; 0x54a <__bad_interrupt>
      16:	00 00       	nop
      18:	98 c2       	rjmp	.+1328   	; 0x54a <__bad_interrupt>
      1a:	00 00       	nop
      1c:	96 c2       	rjmp	.+1324   	; 0x54a <__bad_interrupt>
      1e:	00 00       	nop
      20:	94 c2       	rjmp	.+1320   	; 0x54a <__bad_interrupt>
      22:	00 00       	nop
      24:	0c 94 c1 2f 	jmp	0x5f82	; 0x5f82 <__vector_9>
      28:	90 c2       	rjmp	.+1312   	; 0x54a <__bad_interrupt>
      2a:	00 00       	nop
      2c:	8e c2       	rjmp	.+1308   	; 0x54a <__bad_interrupt>
      2e:	00 00       	nop
      30:	8c c2       	rjmp	.+1304   	; 0x54a <__bad_interrupt>
      32:	00 00       	nop
      34:	8a c2       	rjmp	.+1300   	; 0x54a <__bad_interrupt>
      36:	00 00       	nop
      38:	88 c2       	rjmp	.+1296   	; 0x54a <__bad_interrupt>
      3a:	00 00       	nop
      3c:	0c 94 d3 2d 	jmp	0x5ba6	; 0x5ba6 <__vector_15>
      40:	84 c2       	rjmp	.+1288   	; 0x54a <__bad_interrupt>
      42:	00 00       	nop
      44:	82 c2       	rjmp	.+1284   	; 0x54a <__bad_interrupt>
      46:	00 00       	nop
      48:	0c 94 9f 2e 	jmp	0x5d3e	; 0x5d3e <__vector_18>
      4c:	0c 94 cb 2e 	jmp	0x5d96	; 0x5d96 <__vector_19>
      50:	7c c2       	rjmp	.+1272   	; 0x54a <__bad_interrupt>
      52:	00 00       	nop
      54:	7a c2       	rjmp	.+1268   	; 0x54a <__bad_interrupt>
      56:	00 00       	nop
      58:	78 c2       	rjmp	.+1264   	; 0x54a <__bad_interrupt>
      5a:	00 00       	nop
      5c:	76 c2       	rjmp	.+1260   	; 0x54a <__bad_interrupt>
      5e:	00 00       	nop
      60:	74 c2       	rjmp	.+1256   	; 0x54a <__bad_interrupt>
      62:	00 00       	nop
      64:	72 c2       	rjmp	.+1252   	; 0x54a <__bad_interrupt>
      66:	00 00       	nop
      68:	70 c2       	rjmp	.+1248   	; 0x54a <__bad_interrupt>
      6a:	00 00       	nop
      6c:	6e c2       	rjmp	.+1244   	; 0x54a <__bad_interrupt>
      6e:	00 00       	nop
      70:	6c c2       	rjmp	.+1240   	; 0x54a <__bad_interrupt>
      72:	00 00       	nop
      74:	6a c2       	rjmp	.+1236   	; 0x54a <__bad_interrupt>
      76:	00 00       	nop
      78:	68 c2       	rjmp	.+1232   	; 0x54a <__bad_interrupt>
      7a:	00 00       	nop
      7c:	66 c2       	rjmp	.+1228   	; 0x54a <__bad_interrupt>
      7e:	00 00       	nop
      80:	64 c2       	rjmp	.+1224   	; 0x54a <__bad_interrupt>
      82:	00 00       	nop
      84:	62 c2       	rjmp	.+1220   	; 0x54a <__bad_interrupt>
      86:	00 00       	nop
      88:	60 c2       	rjmp	.+1216   	; 0x54a <__bad_interrupt>
	...

0000008c <__trampolines_end>:
      8c:	75 6e       	ori	r23, 0xE5	; 229
      8e:	6b 6e       	ori	r22, 0xEB	; 235
      90:	6f 77       	andi	r22, 0x7F	; 127
      92:	20 65       	ori	r18, 0x50	; 80
      94:	72 72       	andi	r23, 0x22	; 34
      96:	6f 72       	andi	r22, 0x2F	; 47
      98:	0d 0a       	sbc	r0, r29
      9a:	0d 0a       	sbc	r0, r29
	...

0000009d <_ZZN7ns_line8sendTeleEjajjE3__c_10>:
      9d:	0d 0a 00                                            ...

000000a0 <_ZZN7ns_line8sendTeleEjajjE3__c_9>:
      a0:	0d 0a 00                                            ...

000000a3 <_ZZN7ns_line8sendTeleEjajjE3__c_8>:
      a3:	20 65 78 4c 3d 00                                    exL=.

000000a9 <_ZZN7ns_line8sendTeleEjajjE3__c_7>:
      a9:	20 42 61 73 65 3d 00                                 Base=.

000000b0 <_ZZN7ns_line8sendTeleEjajjE3__c_6>:
      b0:	20 53 70 65 65 64 43 6f 72 3d 00                     SpeedCor=.

000000bb <_ZZN7ns_line8sendTeleEjajjE3__c_5>:
      bb:	20 65 78 4e 3d 00                                    exN=.

000000c1 <_ZZN7ns_line8sendTeleEjajjE3__c_4>:
      c1:	0d 0a 73 71 42 61 73 65 3d 00                       ..sqBase=.

000000cb <_ZZN7ns_line8sendTeleEjajjE3__c_3>:
      cb:	0d 0a 00                                            ...

000000ce <_ZZN7ns_line8sendTeleEjajjE3__c_2>:
      ce:	0d 0a 00                                            ...

000000d1 <_ZZN7ns_line8sendTeleEjajjE3__c_1>:
      d1:	0d 0a 00                                            ...

000000d4 <_ZZN7ns_line8sendTeleEjajjE3__c_0>:
      d4:	3b 20 4c 3d 00                                      ; L=.

000000d9 <_ZZN7ns_line8sendTeleEjajjE3__c>:
      d9:	b9 20 74 75 62 65 3a 20 00                          . tube: .

000000e2 <_ZZ4mainE3__c>:
      e2:	52 65 73 74 61 72 74 20 73 79 73 74 65 6d 0d 0a     Restart system..
      f2:	0d 0a 00                                            ...

000000f5 <_ZZN7ns_menu10Sq2OnOffVVEhE3__c>:
      f5:	20 20 20 2a 2a 2a 53 41 56 45 2a 2a 2a 20 20 20        ***SAVE***   
	...

00000106 <_ZZN7ns_menu8Sq2OnOffEhE3__c_0>:
     106:	66 72 6f 6d 20 53 51 32 20 00                       from SQ2 .

00000110 <_ZZN7ns_menu8Sq2OnOffEhE3__c>:
     110:	6d 6f 64 65 20 72 65 6e 64 65 72 20 6c 65 6e 00     mode render len.

00000120 <_ZZN7ns_menu12Sq2OnOffViewEvE3__c_0>:
     120:	6f 6e 20 00                                         on .

00000124 <_ZZN7ns_menu12Sq2OnOffViewEvE3__c>:
     124:	6f 66 66 00                                         off.

00000128 <_ZZN7ns_menu12CalibScrViewEhE3__c_0>:
     128:	3a 20 00                                            : .

0000012b <_ZZN7ns_menu12CalibScrViewEhE3__c>:
     12b:	45 52 52 4f 52 20 20 20 00                          ERROR   .

00000134 <_ZZN7ns_menu8CorSpeedEhE3__c_0>:
     134:	f1 ea ee f0 ee f1 f2 e8 3a 00                       ........:.

0000013e <_ZZN7ns_menu8CorSpeedEhE3__c>:
     13e:	ca ee f0 f0 e5 ea f6 e8 ff 00                       ..........

00000148 <_ZZN7ns_menu10TmIntegralEhE3__c_0>:
     148:	f1 e8 e3 ed e0 eb ee e2 3a 20 00                    ........: .

00000153 <_ZZN7ns_menu10TmIntegralEhE3__c>:
     153:	c2 f0 e5 ec ff 20 e8 ed f2 e5 f0 2e 00              ..... .......

00000160 <_ZZN7ns_menu15ProtectIntervalEhE3__c_0>:
     160:	e8 ed f2 e5 f0 e2 e0 eb 3a 00                       ........:.

0000016a <_ZZN7ns_menu15ProtectIntervalEhE3__c>:
     16a:	c7 e0 f9 e8 f2 ed fb e9 00                          .........

00000173 <_ZZN7ns_menu7ZeroArcEhE3__c_0>:
     173:	ed e0 e6 ec e8 f2 e5 20 22 2b 22 00                 ....... "+".

0000017f <_ZZN7ns_menu7ZeroArcEhE3__c>:
     17f:	e4 eb ff 20 f3 e4 e0 eb e5 ed e8 ff 00              ... .........

0000018c <_ZZN7ns_menu10CorCurTubeEhE3__c_2>:
     18c:	3c 00                                               <.

0000018e <_ZZN7ns_menu10CorCurTubeEhE3__c_1>:
     18e:	3a 00                                               :.

00000190 <_ZZN7ns_menu10CorCurTubeEhE3__c_0>:
     190:	53 51 00                                            SQ.

00000193 <_ZZN7ns_menu10CorCurTubeEhE3__c>:
     193:	45 64 69 74 20 6c 65 6e 00                          Edit len.

0000019c <_ZZN7ns_menu8view_arcEhE3__c_0>:
     19c:	c0 f0 f5 e8 e2 20 ef f3 f1 f2 00                    ..... .....

000001a7 <_ZZN7ns_menu8view_arcEhE3__c>:
     1a7:	56 69 65 77 00                                      View.

000001ac <_ZZN7ns_menu10view_arcShEvE3__c>:
     1ac:	2d 32 30 00                                         -20.

000001b0 <_ZZN7ns_menu8Set_TimeEhE3__c>:
     1b0:	cc e5 ed fe 2d e2 f0 e5 ec ff 00                    ....-......

000001bb <_ZZN7ns_menu12Set_TimeViewEvE3__c>:
     1bb:	32 30 00                                            20.

000001be <_ZZN7ns_menu10Set_PassVVEhE3__c>:
     1be:	f3 f1 f2 e0 ed ee e2 eb e5 ed 00                    ...........

000001c9 <_ZZN7ns_menu8Set_PassEhE3__c>:
     1c9:	cd ee e2 fb e9 20 ef e0 f0 ee eb fc 20 3a 00        ..... ...... :.

000001d8 <_ZZN7ns_menu13Edit_SensorVVEhE3__c>:
     1d8:	2a 2a d1 ee f5 f0 e0 ed e5 ed ee 2a 2a 00           **.........**.

000001e6 <_ZZN7ns_menu11Edit_SensorEhE3__c_0>:
     1e6:	53 51 31 3c 2d 3e 53 51 00                          SQ1<->SQ.

000001ef <_ZZN7ns_menu11Edit_SensorEhE3__c>:
     1ef:	d3 f1 f2 e0 ed ee e2 ea e0 20 e1 e0 e7 fb 00        ......... .....

000001fe <_ZZN7ns_menu16Menu_CheckPassVvEhE3__c_0>:
     1fe:	ef e0 f0 ee eb ff 20 20 20 20 20 20 20 20 20 20     ......          
	...

0000020f <_ZZN7ns_menu16Menu_CheckPassVvEhE3__c>:
     20f:	ce f8 e8 e1 ea e0 20 e2 e2 ee e4 e0 20 20 20 20     ...... .....    
	...

00000220 <_ZZN7ns_menu14Menu_CheckPassEhE3__c>:
     220:	c2 e2 e5 e4 e8 f2 e5 20 ef e0 f0 ee eb fc 3a 00     ....... ......:.

00000230 <_ZZN7ns_menu9Main_ViewEhE3__c>:
     230:	45 52 52 4f 52 20 20 20 00                          ERROR   .

00000239 <_ZZN7ns_menu11Main_ViewExEhE3__c>:
     239:	3a 20 00                                            : .

0000023c <_ZZN7ns_menu9Main_vArcEvE3__c>:
     23c:	53 3a 00                                            S:.

0000023f <_ZN7ns_menuL19menuSelectTab_str12E>:
     23f:	3e d3 f1 f2 2e 20 ef e0 f0 ee eb fc 20 20 20 20     >.... ......    
	...

00000250 <_ZN7ns_menuL19menuSelectTab_str11E>:
     250:	3e d3 f1 f2 2e 20 e2 f0 e5 ec e5 ed e8 20 20 20     >.... .......   
	...

00000261 <_ZN7ns_menuL19menuSelectTab_str10E>:
     261:	3e c8 ed f2 e5 e3 f0 2e f1 e8 e3 ed e0 eb e0 20     >.............. 
	...

00000272 <_ZN7ns_menuL18menuSelectTab_str9E>:
     272:	3e c7 e0 f9 2e 20 e8 ed f2 e5 f0 e2 e0 eb 20 20     >.... ........  
	...

00000283 <_ZN7ns_menuL18menuSelectTab_str8E>:
     283:	3e c4 e8 f1 f2 2e 20 53 51 31 3c 2d 3e 53 51 35     >..... SQ1<->SQ5
	...

00000294 <_ZN7ns_menuL18menuSelectTab_str7E>:
     294:	3e c4 e8 f1 f2 2e 20 53 51 31 3c 2d 3e 53 51 34     >..... SQ1<->SQ4
	...

000002a5 <_ZN7ns_menuL18menuSelectTab_str6E>:
     2a5:	3e c4 e8 f1 f2 2e 20 53 51 31 3c 2d 3e 53 51 33     >..... SQ1<->SQ3
	...

000002b6 <_ZN7ns_menuL18menuSelectTab_str5E>:
     2b6:	3e c4 e8 f1 f2 2e 20 53 51 31 3c 2d 3e 53 51 32     >..... SQ1<->SQ2
	...

000002c7 <_ZN7ns_menuL18menuSelectTab_str4E>:
     2c7:	3e d1 e1 f0 ee f1 20 e0 f0 f5 e8 e2 e0 20 20 20     >..... ......   
	...

000002d8 <_ZN7ns_menuL18menuSelectTab_str3E>:
     2d8:	3e e2 ea eb 2f ee f2 ea eb 2e 20 53 51 32 20 20     >.../..... SQ2  
	...

000002e9 <_ZN7ns_menuL18menuSelectTab_str2E>:
     2e9:	3e ea ee f0 f0 2e 20 e4 eb e8 ed fb 20 20 20 20     >..... .....    
	...

000002fa <_ZN7ns_menuL18menuSelectTab_str1E>:
     2fa:	3e cf f0 ee f1 ec 2e 20 e0 f0 f5 e8 e2 20 20 20     >...... .....   
	...

0000030b <_ZN7ns_menuL6ffPassE>:
     30b:	02 02 03 06 00                                      .....

00000310 <_ZN7ns_menu8MassFnMnE>:
     310:	ff 18 9d 14 65 13 65 13 65 13 66 13 8e 18 65 13     ....e.e.e.f...e.
     320:	ab 13 a0 14 eb 13 10 14 c5 14 65 13 35 14 42 15     ..........e.5.B.
     330:	65 13 50 15 d3 19 f0 19 73 15 5e 15 a4 19 d8 15     e.P.....s.^.....
     340:	65 13 e6 15 7b 1a 9f 1a f9 15 65 13 19 1a 30 16     e...{.....e...0.
     350:	65 13 65 13 65 13 65 13 65 13 65 13 65 13 3e 16     e.e.e.e.e.e.e.>.
     360:	65 13 41 16 3c 1b 61 1b 86 1b 65 13 04 1b 5c 16     e.A.<.a...e...\.
     370:	65 13 65 13 65 13 65 13 65 13 65 13 65 13 6a 16     e.e.e.e.e.e.e.j.
     380:	65 13 96 1d e4 1c 15 1d 55 1d 65 13 a9 1c 78 16     e.......U.e...x.
     390:	65 13 86 16 03 1f 16 1f ce 1e 65 13 66 1e 65 13     e.........e.f.e.
     3a0:	65 13 8e 16 31 20 5a 20 a1 16 65 13 5f 1f df 16     e...1 Z ..e._...
     3b0:	65 13 d1 16 d1 16 c1 16 d1 16 65 13 68 14 df 16     e.........e.h...
     3c0:	65 13 ed 16 12 21 ee 20 fb 16 65 13 a8 20 df 16     e....!. ..e.. ..
     3d0:	65 13 21 17 a0 21 c3 21 34 17 65 13 5a 21 df 16     e.!..!.!4.e.Z!..
     3e0:	65 13 9c 17 3a 22 58 22 83 17 65 13 0d 22 df 16     e...:"X"..e.."..
     3f0:	6a 23 af 17 47 24 65 24 1a 24 65 13 c0 22 65 13     j#..G$e$.$e.."e.
     400:	65 13 b7 17 db 24 f3 24 ca 17 65 13 a7 24 65 13     e....$.$..e..$e.
     410:	65 13 65 13 65 13 65 13 65 13 65 13 65 13 65 13     e.e.e.e.e.e.e.e.
     420:	65 13 65 13 65 13 65 13 65 13 65 13 65 13 65 13     e.e.e.e.e.e.e.e.

00000430 <_ZN8ns_clock10nDayMountxE>:
     430:	00 1f 1d 1f 1e 1f 1e 1f 1f 1e 1f 1e 1f 00 1f 1c     ................
     440:	1f 1e 1f 1e 1f 1f 1e 1f 1e 1f 00 1f 1c 1f 1e 1f     ................
     450:	1e 1f 1f 1e 1f 1e 1f 00 1f 1c 1f 1e 1f 1e 1f 1f     ................
     460:	1e 1f 1e 1f                                         ....

00000464 <_ZN6ns_lcdL11symbol_workE>:
     464:	06 09 09 06 00 00 00 00 06 0f 0f 06 00 00 00 00     ................

00000474 <_ZN6ns_lcdL10tabDecoderE>:
     474:	c8 c9 ca cb d7 d8 d9 da db dc ed fd ee ef f0 f1     ................
     484:	f2 f4 cc cd ce cf d0 d1 d2 d3 d4 d5 d6 dd de df     ................
     494:	e7 e8 e9 ea eb ec f3 f5 a2 f6 f7 f8 f9 fa fb fc     ................
     4a4:	fe ff 20 20 20 20 20 20 b5 20 20 20 20 20 20 20     ..      .       
     4b4:	41 a0 42 a1 e0 45 a3 a4 a5 a6 4b a7 4d 48 4f a8     A.B..E....K.MHO.
     4c4:	50 43 54 a9 aa 58 e1 ab ac e2 ad ae 62 af b0 b1     PCT..X......b...
     4d4:	61 b2 b3 b4 e3 65 b6 b7 b8 b9 ba bb bc bd 6f be     a....e........o.
     4e4:	70 63 bf 79 e4 78 e5 c0 c1 e6 c2 c3 c4 c5 c6 c7     pc.y.x..........

000004f4 <__ctors_start>:
     4f4:	1b 2d       	mov	r17, r11

000004f6 <__ctors_end>:
     4f6:	11 24       	eor	r1, r1
     4f8:	1f be       	out	0x3f, r1	; 63
     4fa:	cf ef       	ldi	r28, 0xFF	; 255
     4fc:	d0 e1       	ldi	r29, 0x10	; 16
     4fe:	de bf       	out	0x3e, r29	; 62
     500:	cd bf       	out	0x3d, r28	; 61

00000502 <__do_copy_data>:
     502:	11 e0       	ldi	r17, 0x01	; 1
     504:	a0 e0       	ldi	r26, 0x00	; 0
     506:	b1 e0       	ldi	r27, 0x01	; 1
     508:	e0 e3       	ldi	r30, 0x30	; 48
     50a:	f6 e6       	ldi	r31, 0x66	; 102
     50c:	00 e0       	ldi	r16, 0x00	; 0
     50e:	0b bf       	out	0x3b, r16	; 59
     510:	02 c0       	rjmp	.+4      	; 0x516 <__do_copy_data+0x14>
     512:	07 90       	elpm	r0, Z+
     514:	0d 92       	st	X+, r0
     516:	aa 33       	cpi	r26, 0x3A	; 58
     518:	b1 07       	cpc	r27, r17
     51a:	d9 f7       	brne	.-10     	; 0x512 <__do_copy_data+0x10>

0000051c <__do_clear_bss>:
     51c:	22 e0       	ldi	r18, 0x02	; 2
     51e:	aa e3       	ldi	r26, 0x3A	; 58
     520:	b1 e0       	ldi	r27, 0x01	; 1
     522:	01 c0       	rjmp	.+2      	; 0x526 <.do_clear_bss_start>

00000524 <.do_clear_bss_loop>:
     524:	1d 92       	st	X+, r1

00000526 <.do_clear_bss_start>:
     526:	a3 31       	cpi	r26, 0x13	; 19
     528:	b2 07       	cpc	r27, r18
     52a:	e1 f7       	brne	.-8      	; 0x524 <.do_clear_bss_loop>

0000052c <__do_global_ctors>:
     52c:	12 e0       	ldi	r17, 0x02	; 2
     52e:	cb e7       	ldi	r28, 0x7B	; 123
     530:	d2 e0       	ldi	r29, 0x02	; 2
     532:	04 c0       	rjmp	.+8      	; 0x53c <__do_global_ctors+0x10>
     534:	21 97       	sbiw	r28, 0x01	; 1
     536:	fe 01       	movw	r30, r28
     538:	0e 94 2a 31 	call	0x6254	; 0x6254 <__tablejump2__>
     53c:	ca 37       	cpi	r28, 0x7A	; 122
     53e:	d1 07       	cpc	r29, r17
     540:	c9 f7       	brne	.-14     	; 0x534 <__do_global_ctors+0x8>
     542:	0e 94 f2 12 	call	0x25e4	; 0x25e4 <main>
     546:	0c 94 16 33 	jmp	0x662c	; 0x662c <_exit>

0000054a <__bad_interrupt>:
     54a:	5a cd       	rjmp	.-1356   	; 0x0 <__vectors>

0000054c <_ZN10ns_archive4InitEv>:
	TYPE_IDX len;
	uint16_t acp0;
	uint8_t acp0_new = 0;
	
	void Init()
	{
     54c:	cf 93       	push	r28
     54e:	df 93       	push	r29
		idx = IDX_ee_read(&idxEE);
     550:	82 e0       	ldi	r24, 0x02	; 2
     552:	90 e0       	ldi	r25, 0x00	; 0
     554:	0e 94 e3 32 	call	0x65c6	; 0x65c6 <eeprom_read_word>
     558:	ec 01       	movw	r28, r24
     55a:	90 93 40 01 	sts	0x0140, r25	; 0x800140 <_ZN10ns_archive3idxE+0x1>
     55e:	80 93 3f 01 	sts	0x013F, r24	; 0x80013f <_ZN10ns_archive3idxE>
		len = IDX_ee_read(&lenEE);
     562:	80 e0       	ldi	r24, 0x00	; 0
     564:	90 e0       	ldi	r25, 0x00	; 0
     566:	0e 94 e3 32 	call	0x65c6	; 0x65c6 <eeprom_read_word>
     56a:	90 93 3e 01 	sts	0x013E, r25	; 0x80013e <_ZN10ns_archive3lenE+0x1>
     56e:	80 93 3d 01 	sts	0x013D, r24	; 0x80013d <_ZN10ns_archive3lenE>
		if ( (idx >= ARCHIVE_LEN) || (len >= ARCHIVE_LEN) )
     572:	cc 32       	cpi	r28, 0x2C	; 44
     574:	d1 40       	sbci	r29, 0x01	; 1
     576:	18 f4       	brcc	.+6      	; 0x57e <_ZN10ns_archive4InitEv+0x32>
     578:	8c 32       	cpi	r24, 0x2C	; 44
     57a:	91 40       	sbci	r25, 0x01	; 1
     57c:	40 f0       	brcs	.+16     	; 0x58e <_ZN10ns_archive4InitEv+0x42>
		{
			idx = 0;
     57e:	10 92 40 01 	sts	0x0140, r1	; 0x800140 <_ZN10ns_archive3idxE+0x1>
     582:	10 92 3f 01 	sts	0x013F, r1	; 0x80013f <_ZN10ns_archive3idxE>
			len = 0;
     586:	10 92 3e 01 	sts	0x013E, r1	; 0x80013e <_ZN10ns_archive3lenE+0x1>
     58a:	10 92 3d 01 	sts	0x013D, r1	; 0x80013d <_ZN10ns_archive3lenE>
		}
		IDX_ee_update(&idxEE, idx);
     58e:	60 91 3f 01 	lds	r22, 0x013F	; 0x80013f <_ZN10ns_archive3idxE>
     592:	70 91 40 01 	lds	r23, 0x0140	; 0x800140 <_ZN10ns_archive3idxE+0x1>
     596:	82 e0       	ldi	r24, 0x02	; 2
     598:	90 e0       	ldi	r25, 0x00	; 0
     59a:	0e 94 f9 32 	call	0x65f2	; 0x65f2 <eeprom_update_word>
		IDX_ee_update(&lenEE, len);
     59e:	60 91 3d 01 	lds	r22, 0x013D	; 0x80013d <_ZN10ns_archive3lenE>
     5a2:	70 91 3e 01 	lds	r23, 0x013E	; 0x80013e <_ZN10ns_archive3lenE+0x1>
     5a6:	80 e0       	ldi	r24, 0x00	; 0
     5a8:	90 e0       	ldi	r25, 0x00	; 0
     5aa:	0e 94 f9 32 	call	0x65f2	; 0x65f2 <eeprom_update_word>
		
	}
     5ae:	df 91       	pop	r29
     5b0:	cf 91       	pop	r28
     5b2:	08 95       	ret

000005b4 <_ZN10ns_archive4PushEhhhhhjja>:
	
	void Push(uint8_t year, uint8_t mounth, uint8_t date, uint8_t hour, uint8_t minute, uint16_t nTube, uint16_t lenTube, int8_t sqBas)
	{
     5b4:	af 92       	push	r10
     5b6:	cf 92       	push	r12
     5b8:	df 92       	push	r13
     5ba:	ef 92       	push	r14
     5bc:	ff 92       	push	r15
     5be:	0f 93       	push	r16
     5c0:	1f 93       	push	r17
     5c2:	cf 93       	push	r28
     5c4:	df 93       	push	r29
     5c6:	cd b7       	in	r28, 0x3d	; 61
     5c8:	de b7       	in	r29, 0x3e	; 62
     5ca:	2b 97       	sbiw	r28, 0x0b	; 11
     5cc:	0f b6       	in	r0, 0x3f	; 63
     5ce:	f8 94       	cli
     5d0:	de bf       	out	0x3e, r29	; 62
     5d2:	0f be       	out	0x3f, r0	; 63
     5d4:	cd bf       	out	0x3d, r28	; 61
		archiveStruct m;
		m.year = year;
     5d6:	89 83       	std	Y+1, r24	; 0x01
		m.mounth = mounth;
     5d8:	6a 83       	std	Y+2, r22	; 0x02
		m.date = date;
     5da:	4b 83       	std	Y+3, r20	; 0x03
		m.hour = hour;
     5dc:	2c 83       	std	Y+4, r18	; 0x04
		m.minute = minute;
     5de:	0d 83       	std	Y+5, r16	; 0x05
		m.nTube = nTube;
     5e0:	ff 82       	std	Y+7, r15	; 0x07
     5e2:	ee 82       	std	Y+6, r14	; 0x06
		m.len = lenTube;
     5e4:	d9 86       	std	Y+9, r13	; 0x09
     5e6:	c8 86       	std	Y+8, r12	; 0x08
		m.ok = 1;
     5e8:	81 e0       	ldi	r24, 0x01	; 1
     5ea:	8a 87       	std	Y+10, r24	; 0x0a
		m.sqBas = sqBas;
     5ec:	ab 86       	std	Y+11, r10	; 0x0b
		//
		eeprom_write_block(&m, &archive[idx], sizeof(archiveStruct));
     5ee:	80 91 3f 01 	lds	r24, 0x013F	; 0x80013f <_ZN10ns_archive3idxE>
     5f2:	90 91 40 01 	lds	r25, 0x0140	; 0x800140 <_ZN10ns_archive3idxE+0x1>
     5f6:	2b e0       	ldi	r18, 0x0B	; 11
     5f8:	28 9f       	mul	r18, r24
     5fa:	b0 01       	movw	r22, r0
     5fc:	29 9f       	mul	r18, r25
     5fe:	70 0d       	add	r23, r0
     600:	11 24       	eor	r1, r1
     602:	6c 5f       	subi	r22, 0xFC	; 252
     604:	7f 4f       	sbci	r23, 0xFF	; 255
     606:	4b e0       	ldi	r20, 0x0B	; 11
     608:	50 e0       	ldi	r21, 0x00	; 0
     60a:	ce 01       	movw	r24, r28
     60c:	01 96       	adiw	r24, 0x01	; 1
     60e:	0e 94 fd 32 	call	0x65fa	; 0x65fa <eeprom_write_block>
		//
		idx++;
     612:	80 91 3f 01 	lds	r24, 0x013F	; 0x80013f <_ZN10ns_archive3idxE>
     616:	90 91 40 01 	lds	r25, 0x0140	; 0x800140 <_ZN10ns_archive3idxE+0x1>
     61a:	01 96       	adiw	r24, 0x01	; 1
		if (idx >= ARCHIVE_LEN) idx = 0;
     61c:	8c 32       	cpi	r24, 0x2C	; 44
     61e:	21 e0       	ldi	r18, 0x01	; 1
     620:	92 07       	cpc	r25, r18
     622:	28 f4       	brcc	.+10     	; 0x62e <_ZN10ns_archive4PushEhhhhhjja+0x7a>
		m.ok = 1;
		m.sqBas = sqBas;
		//
		eeprom_write_block(&m, &archive[idx], sizeof(archiveStruct));
		//
		idx++;
     624:	90 93 40 01 	sts	0x0140, r25	; 0x800140 <_ZN10ns_archive3idxE+0x1>
     628:	80 93 3f 01 	sts	0x013F, r24	; 0x80013f <_ZN10ns_archive3idxE>
     62c:	04 c0       	rjmp	.+8      	; 0x636 <_ZN10ns_archive4PushEhhhhhjja+0x82>
		if (idx >= ARCHIVE_LEN) idx = 0;
     62e:	10 92 40 01 	sts	0x0140, r1	; 0x800140 <_ZN10ns_archive3idxE+0x1>
     632:	10 92 3f 01 	sts	0x013F, r1	; 0x80013f <_ZN10ns_archive3idxE>
		if (len < ARCHIVE_LEN) len++;
     636:	80 91 3d 01 	lds	r24, 0x013D	; 0x80013d <_ZN10ns_archive3lenE>
     63a:	90 91 3e 01 	lds	r25, 0x013E	; 0x80013e <_ZN10ns_archive3lenE+0x1>
     63e:	8c 32       	cpi	r24, 0x2C	; 44
     640:	21 e0       	ldi	r18, 0x01	; 1
     642:	92 07       	cpc	r25, r18
     644:	28 f4       	brcc	.+10     	; 0x650 <_ZN10ns_archive4PushEhhhhhjja+0x9c>
     646:	01 96       	adiw	r24, 0x01	; 1
     648:	90 93 3e 01 	sts	0x013E, r25	; 0x80013e <_ZN10ns_archive3lenE+0x1>
     64c:	80 93 3d 01 	sts	0x013D, r24	; 0x80013d <_ZN10ns_archive3lenE>
				CRITICAL_SECTION
     650:	1f b7       	in	r17, 0x3f	; 63
    return 1;
}

static __inline__ uint8_t __iCliRetVal(void)
{
    cli();
     652:	f8 94       	cli
				{
					IDX_ee_update(&idxEE, idx);
     654:	60 91 3f 01 	lds	r22, 0x013F	; 0x80013f <_ZN10ns_archive3idxE>
     658:	70 91 40 01 	lds	r23, 0x0140	; 0x800140 <_ZN10ns_archive3idxE+0x1>
     65c:	82 e0       	ldi	r24, 0x02	; 2
     65e:	90 e0       	ldi	r25, 0x00	; 0
     660:	0e 94 f9 32 	call	0x65f2	; 0x65f2 <eeprom_update_word>
					IDX_ee_update(&lenEE, len);
     664:	60 91 3d 01 	lds	r22, 0x013D	; 0x80013d <_ZN10ns_archive3lenE>
     668:	70 91 3e 01 	lds	r23, 0x013E	; 0x80013e <_ZN10ns_archive3lenE+0x1>
     66c:	80 e0       	ldi	r24, 0x00	; 0
     66e:	90 e0       	ldi	r25, 0x00	; 0
     670:	0e 94 f9 32 	call	0x65f2	; 0x65f2 <eeprom_update_word>
    (void)__s;
}

static __inline__ void __iRestore(const  uint8_t *__s)
{
    SREG = *__s;
     674:	1f bf       	out	0x3f, r17	; 63
					//__delay_ms(10000);
				}
	}
     676:	2b 96       	adiw	r28, 0x0b	; 11
     678:	0f b6       	in	r0, 0x3f	; 63
     67a:	f8 94       	cli
     67c:	de bf       	out	0x3e, r29	; 62
     67e:	0f be       	out	0x3f, r0	; 63
     680:	cd bf       	out	0x3d, r28	; 61
     682:	df 91       	pop	r29
     684:	cf 91       	pop	r28
     686:	1f 91       	pop	r17
     688:	0f 91       	pop	r16
     68a:	ff 90       	pop	r15
     68c:	ef 90       	pop	r14
     68e:	df 90       	pop	r13
     690:	cf 90       	pop	r12
     692:	af 90       	pop	r10
     694:	08 95       	ret

00000696 <_ZN10ns_archive4SummEPm>:
	
	TYPE_IDX Summ(uint32_t* lenSumma)
	{
     696:	5f 92       	push	r5
     698:	6f 92       	push	r6
     69a:	7f 92       	push	r7
     69c:	8f 92       	push	r8
     69e:	9f 92       	push	r9
     6a0:	af 92       	push	r10
     6a2:	bf 92       	push	r11
     6a4:	cf 92       	push	r12
     6a6:	df 92       	push	r13
     6a8:	ef 92       	push	r14
     6aa:	ff 92       	push	r15
     6ac:	0f 93       	push	r16
     6ae:	1f 93       	push	r17
     6b0:	cf 93       	push	r28
     6b2:	df 93       	push	r29
     6b4:	6c 01       	movw	r12, r24
		uint32_t summa = 0;
		TYPE_IDX n = 0;
		TYPE_IDX id = idx;
     6b6:	c0 91 3f 01 	lds	r28, 0x013F	; 0x80013f <_ZN10ns_archive3idxE>
     6ba:	d0 91 40 01 	lds	r29, 0x0140	; 0x800140 <_ZN10ns_archive3idxE+0x1>
		TYPE_IDX ln = len;
     6be:	00 91 3d 01 	lds	r16, 0x013D	; 0x80013d <_ZN10ns_archive3lenE>
     6c2:	10 91 3e 01 	lds	r17, 0x013E	; 0x80013e <_ZN10ns_archive3lenE+0x1>
		while (ln > 0)
     6c6:	01 15       	cp	r16, r1
     6c8:	11 05       	cpc	r17, r1
     6ca:	a9 f1       	breq	.+106    	; 0x736 <_ZN10ns_archive4SummEPm+0xa0>
     6cc:	e1 2c       	mov	r14, r1
     6ce:	f1 2c       	mov	r15, r1
     6d0:	81 2c       	mov	r8, r1
     6d2:	91 2c       	mov	r9, r1
     6d4:	54 01       	movw	r10, r8
		{
			if (id == 0) id = ARCHIVE_LEN;
     6d6:	0f 2e       	mov	r0, r31
     6d8:	fc e2       	ldi	r31, 0x2C	; 44
     6da:	5f 2e       	mov	r5, r31
     6dc:	f0 2d       	mov	r31, r0
     6de:	66 24       	eor	r6, r6
     6e0:	63 94       	inc	r6
			id--;
			ln--;
			if ( eeprom_read_byte(&archive[id].ok) == 1 )
     6e2:	0f 2e       	mov	r0, r31
     6e4:	fb e0       	ldi	r31, 0x0B	; 11
     6e6:	7f 2e       	mov	r7, r31
     6e8:	f0 2d       	mov	r31, r0
		TYPE_IDX n = 0;
		TYPE_IDX id = idx;
		TYPE_IDX ln = len;
		while (ln > 0)
		{
			if (id == 0) id = ARCHIVE_LEN;
     6ea:	20 97       	sbiw	r28, 0x00	; 0
     6ec:	11 f4       	brne	.+4      	; 0x6f2 <_ZN10ns_archive4SummEPm+0x5c>
     6ee:	c5 2d       	mov	r28, r5
     6f0:	d6 2d       	mov	r29, r6
			id--;
     6f2:	21 97       	sbiw	r28, 0x01	; 1
			ln--;
     6f4:	01 50       	subi	r16, 0x01	; 1
     6f6:	11 09       	sbc	r17, r1
			if ( eeprom_read_byte(&archive[id].ok) == 1 )
     6f8:	7c 9e       	mul	r7, r28
     6fa:	c0 01       	movw	r24, r0
     6fc:	7d 9e       	mul	r7, r29
     6fe:	90 0d       	add	r25, r0
     700:	11 24       	eor	r1, r1
     702:	83 5f       	subi	r24, 0xF3	; 243
     704:	9f 4f       	sbci	r25, 0xFF	; 255
     706:	0e 94 db 32 	call	0x65b6	; 0x65b6 <eeprom_read_byte>
     70a:	81 30       	cpi	r24, 0x01	; 1
     70c:	81 f4       	brne	.+32     	; 0x72e <_ZN10ns_archive4SummEPm+0x98>
			{
				summa += eeprom_read_word(&archive[id].len);
     70e:	7c 9e       	mul	r7, r28
     710:	c0 01       	movw	r24, r0
     712:	7d 9e       	mul	r7, r29
     714:	90 0d       	add	r25, r0
     716:	11 24       	eor	r1, r1
     718:	85 5f       	subi	r24, 0xF5	; 245
     71a:	9f 4f       	sbci	r25, 0xFF	; 255
     71c:	0e 94 e3 32 	call	0x65c6	; 0x65c6 <eeprom_read_word>
     720:	88 0e       	add	r8, r24
     722:	99 1e       	adc	r9, r25
     724:	a1 1c       	adc	r10, r1
     726:	b1 1c       	adc	r11, r1
				n++;
     728:	ff ef       	ldi	r31, 0xFF	; 255
     72a:	ef 1a       	sub	r14, r31
     72c:	ff 0a       	sbc	r15, r31
	{
		uint32_t summa = 0;
		TYPE_IDX n = 0;
		TYPE_IDX id = idx;
		TYPE_IDX ln = len;
		while (ln > 0)
     72e:	01 15       	cp	r16, r1
     730:	11 05       	cpc	r17, r1
     732:	d9 f6       	brne	.-74     	; 0x6ea <_ZN10ns_archive4SummEPm+0x54>
     734:	05 c0       	rjmp	.+10     	; 0x740 <_ZN10ns_archive4SummEPm+0xaa>
	}
	
	TYPE_IDX Summ(uint32_t* lenSumma)
	{
		uint32_t summa = 0;
		TYPE_IDX n = 0;
     736:	e1 2c       	mov	r14, r1
     738:	f1 2c       	mov	r15, r1
				}
	}
	
	TYPE_IDX Summ(uint32_t* lenSumma)
	{
		uint32_t summa = 0;
     73a:	81 2c       	mov	r8, r1
     73c:	91 2c       	mov	r9, r1
     73e:	54 01       	movw	r10, r8
			{
				summa += eeprom_read_word(&archive[id].len);
				n++;
			}
		}
		CRITICAL_SECTION
     740:	8f b7       	in	r24, 0x3f	; 63
    return 1;
}

static __inline__ uint8_t __iCliRetVal(void)
{
    cli();
     742:	f8 94       	cli
		{
			*lenSumma = summa;
     744:	f6 01       	movw	r30, r12
     746:	80 82       	st	Z, r8
     748:	91 82       	std	Z+1, r9	; 0x01
     74a:	a2 82       	std	Z+2, r10	; 0x02
     74c:	b3 82       	std	Z+3, r11	; 0x03
    (void)__s;
}

static __inline__ void __iRestore(const  uint8_t *__s)
{
    SREG = *__s;
     74e:	8f bf       	out	0x3f, r24	; 63
		}
		return n;
	}
     750:	c7 01       	movw	r24, r14
     752:	df 91       	pop	r29
     754:	cf 91       	pop	r28
     756:	1f 91       	pop	r17
     758:	0f 91       	pop	r16
     75a:	ff 90       	pop	r15
     75c:	ef 90       	pop	r14
     75e:	df 90       	pop	r13
     760:	cf 90       	pop	r12
     762:	bf 90       	pop	r11
     764:	af 90       	pop	r10
     766:	9f 90       	pop	r9
     768:	8f 90       	pop	r8
     76a:	7f 90       	pop	r7
     76c:	6f 90       	pop	r6
     76e:	5f 90       	pop	r5
     770:	08 95       	ret

00000772 <_ZN10ns_archive8SummZeroEv>:
	
	void SummZero()
	{
		idx = 0;
     772:	10 92 40 01 	sts	0x0140, r1	; 0x800140 <_ZN10ns_archive3idxE+0x1>
     776:	10 92 3f 01 	sts	0x013F, r1	; 0x80013f <_ZN10ns_archive3idxE>
		len = 0;
     77a:	10 92 3e 01 	sts	0x013E, r1	; 0x80013e <_ZN10ns_archive3lenE+0x1>
     77e:	10 92 3d 01 	sts	0x013D, r1	; 0x80013d <_ZN10ns_archive3lenE>
		IDX_ee_update(&idxEE, idx);
     782:	60 e0       	ldi	r22, 0x00	; 0
     784:	70 e0       	ldi	r23, 0x00	; 0
     786:	82 e0       	ldi	r24, 0x02	; 2
     788:	90 e0       	ldi	r25, 0x00	; 0
     78a:	0e 94 f9 32 	call	0x65f2	; 0x65f2 <eeprom_update_word>
		IDX_ee_update(&lenEE, len);
     78e:	60 91 3d 01 	lds	r22, 0x013D	; 0x80013d <_ZN10ns_archive3lenE>
     792:	70 91 3e 01 	lds	r23, 0x013E	; 0x80013e <_ZN10ns_archive3lenE+0x1>
     796:	80 e0       	ldi	r24, 0x00	; 0
     798:	90 e0       	ldi	r25, 0x00	; 0
     79a:	0c 94 f9 32 	jmp	0x65f2	; 0x65f2 <eeprom_update_word>
     79e:	08 95       	ret

000007a0 <_ZN10ns_archive9InterruptEv>:
		unsigned low:8;
		unsigned high:2;
	} structACP;
	
	void Interrupt()
	{
     7a0:	cf 93       	push	r28
     7a2:	df 93       	push	r29
     7a4:	00 d0       	rcall	.+0      	; 0x7a6 <_ZN10ns_archive9InterruptEv+0x6>
     7a6:	cd b7       	in	r28, 0x3d	; 61
     7a8:	de b7       	in	r29, 0x3e	; 62
		uint16_t acp = 0;
     7aa:	1a 82       	std	Y+2, r1	; 0x02
     7ac:	19 82       	std	Y+1, r1	; 0x01
		CRITICAL_SECTION
     7ae:	8f b7       	in	r24, 0x3f	; 63
    return 1;
}

static __inline__ uint8_t __iCliRetVal(void)
{
    cli();
     7b0:	f8 94       	cli
		(*((volatile structACP*)(&acp))).low = ADCL;
     7b2:	94 b1       	in	r25, 0x04	; 4
     7b4:	99 83       	std	Y+1, r25	; 0x01
    (void)__s;
}

static __inline__ void __iRestore(const  uint8_t *__s)
{
    SREG = *__s;
     7b6:	8f bf       	out	0x3f, r24	; 63
		(*((volatile structACP*)(&acp))).high = ADCH;
     7b8:	85 b1       	in	r24, 0x05	; 5
     7ba:	98 2f       	mov	r25, r24
     7bc:	93 70       	andi	r25, 0x03	; 3
     7be:	8a 81       	ldd	r24, Y+2	; 0x02
     7c0:	8c 7f       	andi	r24, 0xFC	; 252
     7c2:	89 2b       	or	r24, r25
     7c4:	8a 83       	std	Y+2, r24	; 0x02
		acp0 = acp;
     7c6:	89 81       	ldd	r24, Y+1	; 0x01
     7c8:	9a 81       	ldd	r25, Y+2	; 0x02
     7ca:	90 93 3c 01 	sts	0x013C, r25	; 0x80013c <_ZN10ns_archive4acp0E+0x1>
     7ce:	80 93 3b 01 	sts	0x013B, r24	; 0x80013b <_ZN10ns_archive4acp0E>
		acp0_new = 1;
     7d2:	81 e0       	ldi	r24, 0x01	; 1
     7d4:	80 93 3a 01 	sts	0x013A, r24	; 0x80013a <__data_end>
		ADMUX = 0;
     7d8:	17 b8       	out	0x07, r1	; 7
		ADCSR = 0xd7;
     7da:	87 ed       	ldi	r24, 0xD7	; 215
     7dc:	86 b9       	out	0x06, r24	; 6
	}
     7de:	0f 90       	pop	r0
     7e0:	0f 90       	pop	r0
     7e2:	df 91       	pop	r29
     7e4:	cf 91       	pop	r28
     7e6:	08 95       	ret

000007e8 <_ZN10ns_archive4MainEv>:
	
	void Main()
	{
     7e8:	cf 93       	push	r28
		uint16_t acp;
		uint8_t newd = 0;
		CRITICAL_SECTION
     7ea:	9f b7       	in	r25, 0x3f	; 63
    return 1;
}

static __inline__ uint8_t __iCliRetVal(void)
{
    cli();
     7ec:	f8 94       	cli
		{
			if (acp0_new)
     7ee:	80 91 3a 01 	lds	r24, 0x013A	; 0x80013a <__data_end>
     7f2:	88 23       	and	r24, r24
     7f4:	41 f0       	breq	.+16     	; 0x806 <_ZN10ns_archive4MainEv+0x1e>
			{
				acp = acp0;
     7f6:	20 91 3b 01 	lds	r18, 0x013B	; 0x80013b <_ZN10ns_archive4acp0E>
     7fa:	30 91 3c 01 	lds	r19, 0x013C	; 0x80013c <_ZN10ns_archive4acp0E+0x1>
				acp0_new = 0;
     7fe:	10 92 3a 01 	sts	0x013A, r1	; 0x80013a <__data_end>
				newd = 1;
     802:	81 e0       	ldi	r24, 0x01	; 1
     804:	01 c0       	rjmp	.+2      	; 0x808 <_ZN10ns_archive4MainEv+0x20>
	}
	
	void Main()
	{
		uint16_t acp;
		uint8_t newd = 0;
     806:	80 e0       	ldi	r24, 0x00	; 0
    (void)__s;
}

static __inline__ void __iRestore(const  uint8_t *__s)
{
    SREG = *__s;
     808:	9f bf       	out	0x3f, r25	; 63
				acp = acp0;
				acp0_new = 0;
				newd = 1;
			}
		}
		if (newd)
     80a:	88 23       	and	r24, r24
     80c:	b1 f0       	breq	.+44     	; 0x83a <_ZN10ns_archive4MainEv+0x52>
		{
			newd = 0;
			if ( acp < ( ((uint16_t)20) * 1023 / 50) )
     80e:	29 39       	cpi	r18, 0x99	; 153
     810:	31 40       	sbci	r19, 0x01	; 1
     812:	98 f4       	brcc	.+38     	; 0x83a <_ZN10ns_archive4MainEv+0x52>
			{
				CRITICAL_SECTION
     814:	cf b7       	in	r28, 0x3f	; 63
    return 1;
}

static __inline__ uint8_t __iCliRetVal(void)
{
    cli();
     816:	f8 94       	cli
				{
					IDX_ee_update(&idxEE, idx);
     818:	60 91 3f 01 	lds	r22, 0x013F	; 0x80013f <_ZN10ns_archive3idxE>
     81c:	70 91 40 01 	lds	r23, 0x0140	; 0x800140 <_ZN10ns_archive3idxE+0x1>
     820:	82 e0       	ldi	r24, 0x02	; 2
     822:	90 e0       	ldi	r25, 0x00	; 0
     824:	0e 94 f9 32 	call	0x65f2	; 0x65f2 <eeprom_update_word>
					IDX_ee_update(&lenEE, len);
     828:	60 91 3d 01 	lds	r22, 0x013D	; 0x80013d <_ZN10ns_archive3lenE>
     82c:	70 91 3e 01 	lds	r23, 0x013E	; 0x80013e <_ZN10ns_archive3lenE+0x1>
     830:	80 e0       	ldi	r24, 0x00	; 0
     832:	90 e0       	ldi	r25, 0x00	; 0
     834:	0e 94 f9 32 	call	0x65f2	; 0x65f2 <eeprom_update_word>
    (void)__s;
}

static __inline__ void __iRestore(const  uint8_t *__s)
{
    SREG = *__s;
     838:	cf bf       	out	0x3f, r28	; 63
				}
					//scr::DigitZ(scr::SetPosition(8, 1), 8, acp);
					//while(true) {__delay_ms(1);}
			}
		}
	}
     83a:	cf 91       	pop	r28
     83c:	08 95       	ret

0000083e <_ZN7ns_line4InitEv>:

//	uint16_t distance[5] = {0, 750, 8500, 10000, 11500};
	int16_t distance[5] = {0, 500, 2000, 3000, 4000};
	uint16_t protect[5] = {0, 0, 0, 0, 0};
	void Init()
	{
     83e:	0f 93       	push	r16
     840:	1f 93       	push	r17
     842:	cf 93       	push	r28
     844:	df 93       	push	r29
     846:	cd b7       	in	r28, 0x3d	; 61
     848:	de b7       	in	r29, 0x3e	; 62
     84a:	2b 97       	sbiw	r28, 0x0b	; 11
     84c:	0f b6       	in	r0, 0x3f	; 63
     84e:	f8 94       	cli
     850:	de bf       	out	0x3e, r29	; 62
     852:	0f be       	out	0x3f, r0	; 63
     854:	cd bf       	out	0x3d, r28	; 61
		//uint16_t k = (uint16_t)(((uint32_t)10) * ((uint32_t)FtTimerMain) / ((uint32_t)1000));
		uint16_t k = eeprom_read_word(&ns_vg::eeInteral);
     856:	8f ee       	ldi	r24, 0xEF	; 239
     858:	9c e0       	ldi	r25, 0x0C	; 12
     85a:	0e 94 e3 32 	call	0x65c6	; 0x65c6 <eeprom_read_word>
     85e:	8c 01       	movw	r16, r24
		sensors[0] = new tc_pin<uint16_t>(&DDRC, &PORTC, &PINC, 0, k);
     860:	8e e0       	ldi	r24, 0x0E	; 14
     862:	90 e0       	ldi	r25, 0x00	; 0
     864:	0e 94 09 2e 	call	0x5c12	; 0x5c12 <_Znwj>
     868:	fc 01       	movw	r30, r24
	//tc_pin() {}
	tc_pin(volatile unsigned char* ddr, volatile unsigned char* port, volatile unsigned char* pin, unsigned char bit, T porog)
//	{ Init(ddr, port, pin, bit, porog); }
//	void Init(volatile unsigned char* ddr, volatile unsigned char* port, volatile unsigned char* pin, unsigned char bit, T porog)
	{
		this->ddr = ddr;
     86a:	84 e3       	ldi	r24, 0x34	; 52
     86c:	90 e0       	ldi	r25, 0x00	; 0
     86e:	94 83       	std	Z+4, r25	; 0x04
     870:	83 83       	std	Z+3, r24	; 0x03
		this->port = port;
     872:	85 e3       	ldi	r24, 0x35	; 53
     874:	90 e0       	ldi	r25, 0x00	; 0
     876:	96 83       	std	Z+6, r25	; 0x06
     878:	85 83       	std	Z+5, r24	; 0x05
		this->pin = pin;
     87a:	83 e3       	ldi	r24, 0x33	; 51
     87c:	90 e0       	ldi	r25, 0x00	; 0
     87e:	90 87       	std	Z+8, r25	; 0x08
     880:	87 83       	std	Z+7, r24	; 0x07
		this->mask = (1<<(bit & 0x07));
     882:	81 e0       	ldi	r24, 0x01	; 1
     884:	90 e0       	ldi	r25, 0x00	; 0
     886:	92 87       	std	Z+10, r25	; 0x0a
     888:	81 87       	std	Z+9, r24	; 0x09
		this->porog = porog;
     88a:	12 83       	std	Z+2, r17	; 0x02
     88c:	01 83       	std	Z+1, r16	; 0x01
		*this->ddr &= ~mask;
     88e:	a0 98       	cbi	0x14, 0	; 20
		*this->port |= 1<<mask;
     890:	a5 81       	ldd	r26, Z+5	; 0x05
     892:	b6 81       	ldd	r27, Z+6	; 0x06
     894:	2c 91       	ld	r18, X
     896:	01 84       	ldd	r0, Z+9	; 0x09
     898:	02 c0       	rjmp	.+4      	; 0x89e <_ZN7ns_line4InitEv+0x60>
     89a:	88 0f       	add	r24, r24
     89c:	99 1f       	adc	r25, r25
     89e:	0a 94       	dec	r0
     8a0:	e2 f7       	brpl	.-8      	; 0x89a <_ZN7ns_line4InitEv+0x5c>
     8a2:	82 2b       	or	r24, r18
     8a4:	8c 93       	st	X, r24
		__delay_ms(1);
     8a6:	8f e9       	ldi	r24, 0x9F	; 159
     8a8:	9f e0       	ldi	r25, 0x0F	; 15
     8aa:	01 97       	sbiw	r24, 0x01	; 1
     8ac:	f1 f7       	brne	.-4      	; 0x8aa <_ZN7ns_line4InitEv+0x6c>
     8ae:	00 c0       	rjmp	.+0      	; 0x8b0 <_ZN7ns_line4InitEv+0x72>
     8b0:	00 00       	nop
		tr = fl = (*this->pin & mask)?1:0;
     8b2:	a7 81       	ldd	r26, Z+7	; 0x07
     8b4:	b0 85       	ldd	r27, Z+8	; 0x08
     8b6:	2c 91       	ld	r18, X
     8b8:	30 e0       	ldi	r19, 0x00	; 0
     8ba:	81 85       	ldd	r24, Z+9	; 0x09
     8bc:	92 85       	ldd	r25, Z+10	; 0x0a
     8be:	28 23       	and	r18, r24
     8c0:	39 23       	and	r19, r25
     8c2:	81 e0       	ldi	r24, 0x01	; 1
     8c4:	23 2b       	or	r18, r19
     8c6:	09 f4       	brne	.+2      	; 0x8ca <_ZN7ns_line4InitEv+0x8c>
     8c8:	80 e0       	ldi	r24, 0x00	; 0
     8ca:	85 87       	std	Z+13, r24	; 0x0d
     8cc:	80 83       	st	Z, r24
		if (fl)
     8ce:	88 23       	and	r24, r24
     8d0:	29 f0       	breq	.+10     	; 0x8dc <_ZN7ns_line4InitEv+0x9e>
			count = this->porog;
     8d2:	81 81       	ldd	r24, Z+1	; 0x01
     8d4:	92 81       	ldd	r25, Z+2	; 0x02
     8d6:	94 87       	std	Z+12, r25	; 0x0c
     8d8:	83 87       	std	Z+11, r24	; 0x0b
     8da:	02 c0       	rjmp	.+4      	; 0x8e0 <_ZN7ns_line4InitEv+0xa2>
		else
			count = (T)0;
     8dc:	14 86       	std	Z+12, r1	; 0x0c
     8de:	13 86       	std	Z+11, r1	; 0x0b
     8e0:	f0 93 80 01 	sts	0x0180, r31	; 0x800180 <_ZN7ns_line7sensorsE+0x1>
     8e4:	e0 93 7f 01 	sts	0x017F, r30	; 0x80017f <_ZN7ns_line7sensorsE>
		sensors[1] = new tc_pin<uint16_t>(&DDRC, &PORTC, &PINC, 1, k);
     8e8:	8e e0       	ldi	r24, 0x0E	; 14
     8ea:	90 e0       	ldi	r25, 0x00	; 0
     8ec:	0e 94 09 2e 	call	0x5c12	; 0x5c12 <_Znwj>
     8f0:	fc 01       	movw	r30, r24
	//tc_pin() {}
	tc_pin(volatile unsigned char* ddr, volatile unsigned char* port, volatile unsigned char* pin, unsigned char bit, T porog)
//	{ Init(ddr, port, pin, bit, porog); }
//	void Init(volatile unsigned char* ddr, volatile unsigned char* port, volatile unsigned char* pin, unsigned char bit, T porog)
	{
		this->ddr = ddr;
     8f2:	84 e3       	ldi	r24, 0x34	; 52
     8f4:	90 e0       	ldi	r25, 0x00	; 0
     8f6:	94 83       	std	Z+4, r25	; 0x04
     8f8:	83 83       	std	Z+3, r24	; 0x03
		this->port = port;
     8fa:	85 e3       	ldi	r24, 0x35	; 53
     8fc:	90 e0       	ldi	r25, 0x00	; 0
     8fe:	96 83       	std	Z+6, r25	; 0x06
     900:	85 83       	std	Z+5, r24	; 0x05
		this->pin = pin;
     902:	83 e3       	ldi	r24, 0x33	; 51
     904:	90 e0       	ldi	r25, 0x00	; 0
     906:	90 87       	std	Z+8, r25	; 0x08
     908:	87 83       	std	Z+7, r24	; 0x07
		this->mask = (1<<(bit & 0x07));
     90a:	82 e0       	ldi	r24, 0x02	; 2
     90c:	90 e0       	ldi	r25, 0x00	; 0
     90e:	92 87       	std	Z+10, r25	; 0x0a
     910:	81 87       	std	Z+9, r24	; 0x09
		this->porog = porog;
     912:	12 83       	std	Z+2, r17	; 0x02
     914:	01 83       	std	Z+1, r16	; 0x01
		*this->ddr &= ~mask;
     916:	a1 98       	cbi	0x14, 1	; 20
		*this->port |= 1<<mask;
     918:	a5 81       	ldd	r26, Z+5	; 0x05
     91a:	b6 81       	ldd	r27, Z+6	; 0x06
     91c:	2c 91       	ld	r18, X
     91e:	81 e0       	ldi	r24, 0x01	; 1
     920:	90 e0       	ldi	r25, 0x00	; 0
     922:	01 84       	ldd	r0, Z+9	; 0x09
     924:	02 c0       	rjmp	.+4      	; 0x92a <_ZN7ns_line4InitEv+0xec>
     926:	88 0f       	add	r24, r24
     928:	99 1f       	adc	r25, r25
     92a:	0a 94       	dec	r0
     92c:	e2 f7       	brpl	.-8      	; 0x926 <_ZN7ns_line4InitEv+0xe8>
     92e:	82 2b       	or	r24, r18
     930:	8c 93       	st	X, r24
		__delay_ms(1);
     932:	8f e9       	ldi	r24, 0x9F	; 159
     934:	9f e0       	ldi	r25, 0x0F	; 15
     936:	01 97       	sbiw	r24, 0x01	; 1
     938:	f1 f7       	brne	.-4      	; 0x936 <_ZN7ns_line4InitEv+0xf8>
     93a:	00 c0       	rjmp	.+0      	; 0x93c <_ZN7ns_line4InitEv+0xfe>
     93c:	00 00       	nop
		tr = fl = (*this->pin & mask)?1:0;
     93e:	a7 81       	ldd	r26, Z+7	; 0x07
     940:	b0 85       	ldd	r27, Z+8	; 0x08
     942:	2c 91       	ld	r18, X
     944:	30 e0       	ldi	r19, 0x00	; 0
     946:	81 85       	ldd	r24, Z+9	; 0x09
     948:	92 85       	ldd	r25, Z+10	; 0x0a
     94a:	28 23       	and	r18, r24
     94c:	39 23       	and	r19, r25
     94e:	81 e0       	ldi	r24, 0x01	; 1
     950:	23 2b       	or	r18, r19
     952:	09 f4       	brne	.+2      	; 0x956 <_ZN7ns_line4InitEv+0x118>
     954:	80 e0       	ldi	r24, 0x00	; 0
     956:	85 87       	std	Z+13, r24	; 0x0d
     958:	80 83       	st	Z, r24
		if (fl)
     95a:	88 23       	and	r24, r24
     95c:	29 f0       	breq	.+10     	; 0x968 <_ZN7ns_line4InitEv+0x12a>
			count = this->porog;
     95e:	81 81       	ldd	r24, Z+1	; 0x01
     960:	92 81       	ldd	r25, Z+2	; 0x02
     962:	94 87       	std	Z+12, r25	; 0x0c
     964:	83 87       	std	Z+11, r24	; 0x0b
     966:	02 c0       	rjmp	.+4      	; 0x96c <_ZN7ns_line4InitEv+0x12e>
		else
			count = (T)0;
     968:	14 86       	std	Z+12, r1	; 0x0c
     96a:	13 86       	std	Z+11, r1	; 0x0b
     96c:	f0 93 82 01 	sts	0x0182, r31	; 0x800182 <_ZN7ns_line7sensorsE+0x3>
     970:	e0 93 81 01 	sts	0x0181, r30	; 0x800181 <_ZN7ns_line7sensorsE+0x2>
		sensors[2] = new tc_pin<uint16_t>(&DDRC, &PORTC, &PINC, 2, k);
     974:	8e e0       	ldi	r24, 0x0E	; 14
     976:	90 e0       	ldi	r25, 0x00	; 0
     978:	0e 94 09 2e 	call	0x5c12	; 0x5c12 <_Znwj>
     97c:	fc 01       	movw	r30, r24
	//tc_pin() {}
	tc_pin(volatile unsigned char* ddr, volatile unsigned char* port, volatile unsigned char* pin, unsigned char bit, T porog)
//	{ Init(ddr, port, pin, bit, porog); }
//	void Init(volatile unsigned char* ddr, volatile unsigned char* port, volatile unsigned char* pin, unsigned char bit, T porog)
	{
		this->ddr = ddr;
     97e:	84 e3       	ldi	r24, 0x34	; 52
     980:	90 e0       	ldi	r25, 0x00	; 0
     982:	94 83       	std	Z+4, r25	; 0x04
     984:	83 83       	std	Z+3, r24	; 0x03
		this->port = port;
     986:	85 e3       	ldi	r24, 0x35	; 53
     988:	90 e0       	ldi	r25, 0x00	; 0
     98a:	96 83       	std	Z+6, r25	; 0x06
     98c:	85 83       	std	Z+5, r24	; 0x05
		this->pin = pin;
     98e:	83 e3       	ldi	r24, 0x33	; 51
     990:	90 e0       	ldi	r25, 0x00	; 0
     992:	90 87       	std	Z+8, r25	; 0x08
     994:	87 83       	std	Z+7, r24	; 0x07
		this->mask = (1<<(bit & 0x07));
     996:	84 e0       	ldi	r24, 0x04	; 4
     998:	90 e0       	ldi	r25, 0x00	; 0
     99a:	92 87       	std	Z+10, r25	; 0x0a
     99c:	81 87       	std	Z+9, r24	; 0x09
		this->porog = porog;
     99e:	12 83       	std	Z+2, r17	; 0x02
     9a0:	01 83       	std	Z+1, r16	; 0x01
		*this->ddr &= ~mask;
     9a2:	a2 98       	cbi	0x14, 2	; 20
		*this->port |= 1<<mask;
     9a4:	a5 81       	ldd	r26, Z+5	; 0x05
     9a6:	b6 81       	ldd	r27, Z+6	; 0x06
     9a8:	2c 91       	ld	r18, X
     9aa:	81 e0       	ldi	r24, 0x01	; 1
     9ac:	90 e0       	ldi	r25, 0x00	; 0
     9ae:	01 84       	ldd	r0, Z+9	; 0x09
     9b0:	02 c0       	rjmp	.+4      	; 0x9b6 <_ZN7ns_line4InitEv+0x178>
     9b2:	88 0f       	add	r24, r24
     9b4:	99 1f       	adc	r25, r25
     9b6:	0a 94       	dec	r0
     9b8:	e2 f7       	brpl	.-8      	; 0x9b2 <_ZN7ns_line4InitEv+0x174>
     9ba:	82 2b       	or	r24, r18
     9bc:	8c 93       	st	X, r24
		__delay_ms(1);
     9be:	8f e9       	ldi	r24, 0x9F	; 159
     9c0:	9f e0       	ldi	r25, 0x0F	; 15
     9c2:	01 97       	sbiw	r24, 0x01	; 1
     9c4:	f1 f7       	brne	.-4      	; 0x9c2 <_ZN7ns_line4InitEv+0x184>
     9c6:	00 c0       	rjmp	.+0      	; 0x9c8 <_ZN7ns_line4InitEv+0x18a>
     9c8:	00 00       	nop
		tr = fl = (*this->pin & mask)?1:0;
     9ca:	a7 81       	ldd	r26, Z+7	; 0x07
     9cc:	b0 85       	ldd	r27, Z+8	; 0x08
     9ce:	2c 91       	ld	r18, X
     9d0:	30 e0       	ldi	r19, 0x00	; 0
     9d2:	81 85       	ldd	r24, Z+9	; 0x09
     9d4:	92 85       	ldd	r25, Z+10	; 0x0a
     9d6:	28 23       	and	r18, r24
     9d8:	39 23       	and	r19, r25
     9da:	81 e0       	ldi	r24, 0x01	; 1
     9dc:	23 2b       	or	r18, r19
     9de:	09 f4       	brne	.+2      	; 0x9e2 <_ZN7ns_line4InitEv+0x1a4>
     9e0:	80 e0       	ldi	r24, 0x00	; 0
     9e2:	85 87       	std	Z+13, r24	; 0x0d
     9e4:	80 83       	st	Z, r24
		if (fl)
     9e6:	88 23       	and	r24, r24
     9e8:	29 f0       	breq	.+10     	; 0x9f4 <_ZN7ns_line4InitEv+0x1b6>
			count = this->porog;
     9ea:	81 81       	ldd	r24, Z+1	; 0x01
     9ec:	92 81       	ldd	r25, Z+2	; 0x02
     9ee:	94 87       	std	Z+12, r25	; 0x0c
     9f0:	83 87       	std	Z+11, r24	; 0x0b
     9f2:	02 c0       	rjmp	.+4      	; 0x9f8 <_ZN7ns_line4InitEv+0x1ba>
		else
			count = (T)0;
     9f4:	14 86       	std	Z+12, r1	; 0x0c
     9f6:	13 86       	std	Z+11, r1	; 0x0b
     9f8:	f0 93 84 01 	sts	0x0184, r31	; 0x800184 <_ZN7ns_line7sensorsE+0x5>
     9fc:	e0 93 83 01 	sts	0x0183, r30	; 0x800183 <_ZN7ns_line7sensorsE+0x4>
		sensors[3] = new tc_pin<uint16_t>(&DDRC, &PORTC, &PINC, 3, k);
     a00:	8e e0       	ldi	r24, 0x0E	; 14
     a02:	90 e0       	ldi	r25, 0x00	; 0
     a04:	0e 94 09 2e 	call	0x5c12	; 0x5c12 <_Znwj>
     a08:	fc 01       	movw	r30, r24
	//tc_pin() {}
	tc_pin(volatile unsigned char* ddr, volatile unsigned char* port, volatile unsigned char* pin, unsigned char bit, T porog)
//	{ Init(ddr, port, pin, bit, porog); }
//	void Init(volatile unsigned char* ddr, volatile unsigned char* port, volatile unsigned char* pin, unsigned char bit, T porog)
	{
		this->ddr = ddr;
     a0a:	84 e3       	ldi	r24, 0x34	; 52
     a0c:	90 e0       	ldi	r25, 0x00	; 0
     a0e:	94 83       	std	Z+4, r25	; 0x04
     a10:	83 83       	std	Z+3, r24	; 0x03
		this->port = port;
     a12:	85 e3       	ldi	r24, 0x35	; 53
     a14:	90 e0       	ldi	r25, 0x00	; 0
     a16:	96 83       	std	Z+6, r25	; 0x06
     a18:	85 83       	std	Z+5, r24	; 0x05
		this->pin = pin;
     a1a:	83 e3       	ldi	r24, 0x33	; 51
     a1c:	90 e0       	ldi	r25, 0x00	; 0
     a1e:	90 87       	std	Z+8, r25	; 0x08
     a20:	87 83       	std	Z+7, r24	; 0x07
		this->mask = (1<<(bit & 0x07));
     a22:	88 e0       	ldi	r24, 0x08	; 8
     a24:	90 e0       	ldi	r25, 0x00	; 0
     a26:	92 87       	std	Z+10, r25	; 0x0a
     a28:	81 87       	std	Z+9, r24	; 0x09
		this->porog = porog;
     a2a:	12 83       	std	Z+2, r17	; 0x02
     a2c:	01 83       	std	Z+1, r16	; 0x01
		*this->ddr &= ~mask;
     a2e:	a3 98       	cbi	0x14, 3	; 20
		*this->port |= 1<<mask;
     a30:	a5 81       	ldd	r26, Z+5	; 0x05
     a32:	b6 81       	ldd	r27, Z+6	; 0x06
     a34:	2c 91       	ld	r18, X
     a36:	81 e0       	ldi	r24, 0x01	; 1
     a38:	90 e0       	ldi	r25, 0x00	; 0
     a3a:	01 84       	ldd	r0, Z+9	; 0x09
     a3c:	02 c0       	rjmp	.+4      	; 0xa42 <_ZN7ns_line4InitEv+0x204>
     a3e:	88 0f       	add	r24, r24
     a40:	99 1f       	adc	r25, r25
     a42:	0a 94       	dec	r0
     a44:	e2 f7       	brpl	.-8      	; 0xa3e <_ZN7ns_line4InitEv+0x200>
     a46:	82 2b       	or	r24, r18
     a48:	8c 93       	st	X, r24
		__delay_ms(1);
     a4a:	8f e9       	ldi	r24, 0x9F	; 159
     a4c:	9f e0       	ldi	r25, 0x0F	; 15
     a4e:	01 97       	sbiw	r24, 0x01	; 1
     a50:	f1 f7       	brne	.-4      	; 0xa4e <_ZN7ns_line4InitEv+0x210>
     a52:	00 c0       	rjmp	.+0      	; 0xa54 <_ZN7ns_line4InitEv+0x216>
     a54:	00 00       	nop
		tr = fl = (*this->pin & mask)?1:0;
     a56:	a7 81       	ldd	r26, Z+7	; 0x07
     a58:	b0 85       	ldd	r27, Z+8	; 0x08
     a5a:	2c 91       	ld	r18, X
     a5c:	30 e0       	ldi	r19, 0x00	; 0
     a5e:	81 85       	ldd	r24, Z+9	; 0x09
     a60:	92 85       	ldd	r25, Z+10	; 0x0a
     a62:	28 23       	and	r18, r24
     a64:	39 23       	and	r19, r25
     a66:	81 e0       	ldi	r24, 0x01	; 1
     a68:	23 2b       	or	r18, r19
     a6a:	09 f4       	brne	.+2      	; 0xa6e <_ZN7ns_line4InitEv+0x230>
     a6c:	80 e0       	ldi	r24, 0x00	; 0
     a6e:	85 87       	std	Z+13, r24	; 0x0d
     a70:	80 83       	st	Z, r24
		if (fl)
     a72:	88 23       	and	r24, r24
     a74:	29 f0       	breq	.+10     	; 0xa80 <_ZN7ns_line4InitEv+0x242>
			count = this->porog;
     a76:	81 81       	ldd	r24, Z+1	; 0x01
     a78:	92 81       	ldd	r25, Z+2	; 0x02
     a7a:	94 87       	std	Z+12, r25	; 0x0c
     a7c:	83 87       	std	Z+11, r24	; 0x0b
     a7e:	02 c0       	rjmp	.+4      	; 0xa84 <_ZN7ns_line4InitEv+0x246>
		else
			count = (T)0;
     a80:	14 86       	std	Z+12, r1	; 0x0c
     a82:	13 86       	std	Z+11, r1	; 0x0b
     a84:	f0 93 86 01 	sts	0x0186, r31	; 0x800186 <_ZN7ns_line7sensorsE+0x7>
     a88:	e0 93 85 01 	sts	0x0185, r30	; 0x800185 <_ZN7ns_line7sensorsE+0x6>
		sensors[4] = new tc_pin<uint16_t>(&DDRC, &PORTC, &PINC, 4, k);
     a8c:	8e e0       	ldi	r24, 0x0E	; 14
     a8e:	90 e0       	ldi	r25, 0x00	; 0
     a90:	0e 94 09 2e 	call	0x5c12	; 0x5c12 <_Znwj>
     a94:	fc 01       	movw	r30, r24
	//tc_pin() {}
	tc_pin(volatile unsigned char* ddr, volatile unsigned char* port, volatile unsigned char* pin, unsigned char bit, T porog)
//	{ Init(ddr, port, pin, bit, porog); }
//	void Init(volatile unsigned char* ddr, volatile unsigned char* port, volatile unsigned char* pin, unsigned char bit, T porog)
	{
		this->ddr = ddr;
     a96:	84 e3       	ldi	r24, 0x34	; 52
     a98:	90 e0       	ldi	r25, 0x00	; 0
     a9a:	94 83       	std	Z+4, r25	; 0x04
     a9c:	83 83       	std	Z+3, r24	; 0x03
		this->port = port;
     a9e:	85 e3       	ldi	r24, 0x35	; 53
     aa0:	90 e0       	ldi	r25, 0x00	; 0
     aa2:	96 83       	std	Z+6, r25	; 0x06
     aa4:	85 83       	std	Z+5, r24	; 0x05
		this->pin = pin;
     aa6:	83 e3       	ldi	r24, 0x33	; 51
     aa8:	90 e0       	ldi	r25, 0x00	; 0
     aaa:	90 87       	std	Z+8, r25	; 0x08
     aac:	87 83       	std	Z+7, r24	; 0x07
		this->mask = (1<<(bit & 0x07));
     aae:	80 e1       	ldi	r24, 0x10	; 16
     ab0:	90 e0       	ldi	r25, 0x00	; 0
     ab2:	92 87       	std	Z+10, r25	; 0x0a
     ab4:	81 87       	std	Z+9, r24	; 0x09
		this->porog = porog;
     ab6:	12 83       	std	Z+2, r17	; 0x02
     ab8:	01 83       	std	Z+1, r16	; 0x01
		*this->ddr &= ~mask;
     aba:	a4 98       	cbi	0x14, 4	; 20
		*this->port |= 1<<mask;
     abc:	a5 81       	ldd	r26, Z+5	; 0x05
     abe:	b6 81       	ldd	r27, Z+6	; 0x06
     ac0:	2c 91       	ld	r18, X
     ac2:	81 e0       	ldi	r24, 0x01	; 1
     ac4:	90 e0       	ldi	r25, 0x00	; 0
     ac6:	01 84       	ldd	r0, Z+9	; 0x09
     ac8:	02 c0       	rjmp	.+4      	; 0xace <_ZN7ns_line4InitEv+0x290>
     aca:	88 0f       	add	r24, r24
     acc:	99 1f       	adc	r25, r25
     ace:	0a 94       	dec	r0
     ad0:	e2 f7       	brpl	.-8      	; 0xaca <_ZN7ns_line4InitEv+0x28c>
     ad2:	82 2b       	or	r24, r18
     ad4:	8c 93       	st	X, r24
		__delay_ms(1);
     ad6:	8f e9       	ldi	r24, 0x9F	; 159
     ad8:	9f e0       	ldi	r25, 0x0F	; 15
     ada:	01 97       	sbiw	r24, 0x01	; 1
     adc:	f1 f7       	brne	.-4      	; 0xada <_ZN7ns_line4InitEv+0x29c>
     ade:	00 c0       	rjmp	.+0      	; 0xae0 <_ZN7ns_line4InitEv+0x2a2>
     ae0:	00 00       	nop
		tr = fl = (*this->pin & mask)?1:0;
     ae2:	a7 81       	ldd	r26, Z+7	; 0x07
     ae4:	b0 85       	ldd	r27, Z+8	; 0x08
     ae6:	2c 91       	ld	r18, X
     ae8:	30 e0       	ldi	r19, 0x00	; 0
     aea:	81 85       	ldd	r24, Z+9	; 0x09
     aec:	92 85       	ldd	r25, Z+10	; 0x0a
     aee:	28 23       	and	r18, r24
     af0:	39 23       	and	r19, r25
     af2:	81 e0       	ldi	r24, 0x01	; 1
     af4:	23 2b       	or	r18, r19
     af6:	09 f4       	brne	.+2      	; 0xafa <_ZN7ns_line4InitEv+0x2bc>
     af8:	80 e0       	ldi	r24, 0x00	; 0
     afa:	85 87       	std	Z+13, r24	; 0x0d
     afc:	80 83       	st	Z, r24
		if (fl)
     afe:	88 23       	and	r24, r24
     b00:	29 f0       	breq	.+10     	; 0xb0c <_ZN7ns_line4InitEv+0x2ce>
			count = this->porog;
     b02:	81 81       	ldd	r24, Z+1	; 0x01
     b04:	92 81       	ldd	r25, Z+2	; 0x02
     b06:	94 87       	std	Z+12, r25	; 0x0c
     b08:	83 87       	std	Z+11, r24	; 0x0b
     b0a:	02 c0       	rjmp	.+4      	; 0xb10 <_ZN7ns_line4InitEv+0x2d2>
		else
			count = (T)0;
     b0c:	14 86       	std	Z+12, r1	; 0x0c
     b0e:	13 86       	std	Z+11, r1	; 0x0b
     b10:	f0 93 88 01 	sts	0x0188, r31	; 0x800188 <_ZN7ns_line7sensorsE+0x9>
     b14:	e0 93 87 01 	sts	0x0187, r30	; 0x800187 <_ZN7ns_line7sensorsE+0x8>
		mode = 1;
     b18:	81 e0       	ldi	r24, 0x01	; 1
     b1a:	80 93 10 01 	sts	0x0110, r24	; 0x800110 <_ZN7ns_line4modeE>
		if ( (ns_archive::len == 0) && (eeprom_read_word(&ns_archive::lenEE) == 0) )
     b1e:	80 91 3d 01 	lds	r24, 0x013D	; 0x80013d <_ZN10ns_archive3lenE>
     b22:	90 91 3e 01 	lds	r25, 0x013E	; 0x80013e <_ZN10ns_archive3lenE+0x1>
     b26:	89 2b       	or	r24, r25
     b28:	59 f4       	brne	.+22     	; 0xb40 <_ZN7ns_line4InitEv+0x302>
     b2a:	80 e0       	ldi	r24, 0x00	; 0
     b2c:	90 e0       	ldi	r25, 0x00	; 0
     b2e:	0e 94 e3 32 	call	0x65c6	; 0x65c6 <eeprom_read_word>
     b32:	89 2b       	or	r24, r25
     b34:	29 f4       	brne	.+10     	; 0xb40 <_ZN7ns_line4InitEv+0x302>
		{
			ns_vg::nTube = 0;
     b36:	10 92 08 02 	sts	0x0208, r1	; 0x800208 <_ZN5ns_vg5nTubeE+0x1>
     b3a:	10 92 07 02 	sts	0x0207, r1	; 0x800207 <_ZN5ns_vg5nTubeE>
     b3e:	1e c0       	rjmp	.+60     	; 0xb7c <_ZN7ns_line4InitEv+0x33e>
		}
		else
		{
			int16_t corCurTube_idx = ns_archive::idx;
     b40:	80 91 3f 01 	lds	r24, 0x013F	; 0x80013f <_ZN10ns_archive3idxE>
     b44:	90 91 40 01 	lds	r25, 0x0140	; 0x800140 <_ZN10ns_archive3idxE+0x1>
			archiveStruct corCurTube_cell;
			if (corCurTube_idx == 0) corCurTube_idx = ARCHIVE_LEN - 1;
     b48:	00 97       	sbiw	r24, 0x00	; 0
     b4a:	11 f0       	breq	.+4      	; 0xb50 <_ZN7ns_line4InitEv+0x312>
			else corCurTube_idx--;
     b4c:	01 97       	sbiw	r24, 0x01	; 1
     b4e:	02 c0       	rjmp	.+4      	; 0xb54 <_ZN7ns_line4InitEv+0x316>
		}
		else
		{
			int16_t corCurTube_idx = ns_archive::idx;
			archiveStruct corCurTube_cell;
			if (corCurTube_idx == 0) corCurTube_idx = ARCHIVE_LEN - 1;
     b50:	8b e2       	ldi	r24, 0x2B	; 43
     b52:	91 e0       	ldi	r25, 0x01	; 1
			else corCurTube_idx--;
			eeprom_read_block(&corCurTube_cell, &ns_archive::archive[corCurTube_idx], sizeof(archiveStruct));
     b54:	2b e0       	ldi	r18, 0x0B	; 11
     b56:	28 9f       	mul	r18, r24
     b58:	b0 01       	movw	r22, r0
     b5a:	29 9f       	mul	r18, r25
     b5c:	70 0d       	add	r23, r0
     b5e:	11 24       	eor	r1, r1
     b60:	6c 5f       	subi	r22, 0xFC	; 252
     b62:	7f 4f       	sbci	r23, 0xFF	; 255
     b64:	4b e0       	ldi	r20, 0x0B	; 11
     b66:	50 e0       	ldi	r21, 0x00	; 0
     b68:	ce 01       	movw	r24, r28
     b6a:	01 96       	adiw	r24, 0x01	; 1
     b6c:	0e 94 cb 32 	call	0x6596	; 0x6596 <eeprom_read_block>
			ns_vg::nTube = corCurTube_cell.nTube;
     b70:	8e 81       	ldd	r24, Y+6	; 0x06
     b72:	9f 81       	ldd	r25, Y+7	; 0x07
     b74:	90 93 08 02 	sts	0x0208, r25	; 0x800208 <_ZN5ns_vg5nTubeE+0x1>
     b78:	80 93 07 02 	sts	0x0207, r24	; 0x800207 <_ZN5ns_vg5nTubeE>
		}
		eeprom_update_word(&ns_vg::eeDistance[0], 0);
     b7c:	60 e0       	ldi	r22, 0x00	; 0
     b7e:	70 e0       	ldi	r23, 0x00	; 0
     b80:	83 ef       	ldi	r24, 0xF3	; 243
     b82:	9c e0       	ldi	r25, 0x0C	; 12
     b84:	0e 94 f9 32 	call	0x65f2	; 0x65f2 <eeprom_update_word>
	}
     b88:	2b 96       	adiw	r28, 0x0b	; 11
     b8a:	0f b6       	in	r0, 0x3f	; 63
     b8c:	f8 94       	cli
     b8e:	de bf       	out	0x3e, r29	; 62
     b90:	0f be       	out	0x3f, r0	; 63
     b92:	cd bf       	out	0x3d, r28	; 61
     b94:	df 91       	pop	r29
     b96:	cf 91       	pop	r28
     b98:	1f 91       	pop	r17
     b9a:	0f 91       	pop	r16
     b9c:	08 95       	ret

00000b9e <_ZN7ns_line9InterruptEv>:
	void Interrupt()
	{
     b9e:	2f 92       	push	r2
     ba0:	3f 92       	push	r3
     ba2:	5f 92       	push	r5
     ba4:	6f 92       	push	r6
     ba6:	7f 92       	push	r7
     ba8:	8f 92       	push	r8
     baa:	9f 92       	push	r9
     bac:	af 92       	push	r10
     bae:	bf 92       	push	r11
     bb0:	cf 92       	push	r12
     bb2:	df 92       	push	r13
     bb4:	ef 92       	push	r14
     bb6:	ff 92       	push	r15
     bb8:	0f 93       	push	r16
     bba:	1f 93       	push	r17
     bbc:	cf 93       	push	r28
     bbe:	df 93       	push	r29
     bc0:	0f 2e       	mov	r0, r31
     bc2:	ff e7       	ldi	r31, 0x7F	; 127
     bc4:	ef 2e       	mov	r14, r31
     bc6:	f1 e0       	ldi	r31, 0x01	; 1
     bc8:	ff 2e       	mov	r15, r31
     bca:	f0 2d       	mov	r31, r0
     bcc:	01 e4       	ldi	r16, 0x41	; 65
     bce:	11 e0       	ldi	r17, 0x01	; 1
     bd0:	0f 2e       	mov	r0, r31
     bd2:	f9 e8       	ldi	r31, 0x89	; 137
     bd4:	2f 2e       	mov	r2, r31
     bd6:	f1 e0       	ldi	r31, 0x01	; 1
     bd8:	3f 2e       	mov	r3, r31
     bda:	f0 2d       	mov	r31, r0
     bdc:	a8 01       	movw	r20, r16
     bde:	d7 01       	movw	r26, r14
		//   &   
		for (uint8_t i=0; i<5; i++)
		{
			sensors[i]->tr = 10;
     be0:	6a e0       	ldi	r22, 0x0A	; 10
	{
		if (*this->pin & mask)
		{
			if ( count <  porog) count++;
			if ((count >= porog) && !fl)
				tr = fl = 1;
     be2:	71 e0       	ldi	r23, 0x01	; 1
     be4:	ed 91       	ld	r30, X+
     be6:	fc 91       	ld	r31, X
     be8:	11 97       	sbiw	r26, 0x01	; 1
     bea:	60 83       	st	Z, r22
			sensors[i]->Interrupt();
     bec:	ed 91       	ld	r30, X+
     bee:	fd 91       	ld	r31, X+
			count = (T)0;
	}
	//~tc_pin() {}
	void Interrupt()
	{
		if (*this->pin & mask)
     bf0:	87 81       	ldd	r24, Z+7	; 0x07
     bf2:	90 85       	ldd	r25, Z+8	; 0x08
     bf4:	ec 01       	movw	r28, r24
     bf6:	88 81       	ld	r24, Y
     bf8:	28 2f       	mov	r18, r24
     bfa:	30 e0       	ldi	r19, 0x00	; 0
     bfc:	81 85       	ldd	r24, Z+9	; 0x09
     bfe:	92 85       	ldd	r25, Z+10	; 0x0a
     c00:	82 23       	and	r24, r18
     c02:	93 23       	and	r25, r19
     c04:	89 2b       	or	r24, r25
     c06:	99 f0       	breq	.+38     	; 0xc2e <_ZN7ns_line9InterruptEv+0x90>
		{
			if ( count <  porog) count++;
     c08:	83 85       	ldd	r24, Z+11	; 0x0b
     c0a:	94 85       	ldd	r25, Z+12	; 0x0c
     c0c:	21 81       	ldd	r18, Z+1	; 0x01
     c0e:	32 81       	ldd	r19, Z+2	; 0x02
     c10:	82 17       	cp	r24, r18
     c12:	93 07       	cpc	r25, r19
     c14:	30 f4       	brcc	.+12     	; 0xc22 <_ZN7ns_line9InterruptEv+0x84>
     c16:	01 96       	adiw	r24, 0x01	; 1
     c18:	94 87       	std	Z+12, r25	; 0x0c
     c1a:	83 87       	std	Z+11, r24	; 0x0b
			if ((count >= porog) && !fl)
     c1c:	82 17       	cp	r24, r18
     c1e:	93 07       	cpc	r25, r19
     c20:	a0 f0       	brcs	.+40     	; 0xc4a <_ZN7ns_line9InterruptEv+0xac>
     c22:	85 85       	ldd	r24, Z+13	; 0x0d
     c24:	81 11       	cpse	r24, r1
     c26:	11 c0       	rjmp	.+34     	; 0xc4a <_ZN7ns_line9InterruptEv+0xac>
				tr = fl = 1;
     c28:	75 87       	std	Z+13, r23	; 0x0d
     c2a:	70 83       	st	Z, r23
     c2c:	0e c0       	rjmp	.+28     	; 0xc4a <_ZN7ns_line9InterruptEv+0xac>
		}
		else
		{
			if ( count >  (T)0) count--;
     c2e:	83 85       	ldd	r24, Z+11	; 0x0b
     c30:	94 85       	ldd	r25, Z+12	; 0x0c
     c32:	00 97       	sbiw	r24, 0x00	; 0
     c34:	29 f0       	breq	.+10     	; 0xc40 <_ZN7ns_line9InterruptEv+0xa2>
     c36:	01 97       	sbiw	r24, 0x01	; 1
     c38:	94 87       	std	Z+12, r25	; 0x0c
     c3a:	83 87       	std	Z+11, r24	; 0x0b
			if ((count == (T)0) && fl)
     c3c:	89 2b       	or	r24, r25
     c3e:	29 f4       	brne	.+10     	; 0xc4a <_ZN7ns_line9InterruptEv+0xac>
     c40:	85 85       	ldd	r24, Z+13	; 0x0d
     c42:	88 23       	and	r24, r24
     c44:	11 f0       	breq	.+4      	; 0xc4a <_ZN7ns_line9InterruptEv+0xac>
				tr = fl = 0;
     c46:	15 86       	std	Z+13, r1	; 0x0d
     c48:	10 82       	st	Z, r1
			if (protect[i] > 0) protect[i]--;
     c4a:	fa 01       	movw	r30, r20
     c4c:	80 81       	ld	r24, Z
     c4e:	91 81       	ldd	r25, Z+1	; 0x01
     c50:	00 97       	sbiw	r24, 0x00	; 0
     c52:	19 f0       	breq	.+6      	; 0xc5a <_ZN7ns_line9InterruptEv+0xbc>
     c54:	01 97       	sbiw	r24, 0x01	; 1
     c56:	91 83       	std	Z+1, r25	; 0x01
     c58:	80 83       	st	Z, r24
     c5a:	4e 5f       	subi	r20, 0xFE	; 254
     c5c:	5f 4f       	sbci	r21, 0xFF	; 255
		eeprom_update_word(&ns_vg::eeDistance[0], 0);
	}
	void Interrupt()
	{
		//   &   
		for (uint8_t i=0; i<5; i++)
     c5e:	a2 15       	cp	r26, r2
     c60:	b3 05       	cpc	r27, r3
     c62:	09 f0       	breq	.+2      	; 0xc66 <_ZN7ns_line9InterruptEv+0xc8>
     c64:	bf cf       	rjmp	.-130    	; 0xbe4 <_ZN7ns_line9InterruptEv+0x46>
		{
			sensors[i]->tr = 10;
			sensors[i]->Interrupt();
			if (protect[i] > 0) protect[i]--;
		}
		if (mode == 0)
     c66:	80 91 10 01 	lds	r24, 0x0110	; 0x800110 <_ZN7ns_line4modeE>
     c6a:	88 23       	and	r24, r24
     c6c:	09 f4       	brne	.+2      	; 0xc70 <_ZN7ns_line9InterruptEv+0xd2>
     c6e:	01 c2       	rjmp	.+1026   	; 0x1072 <_ZN7ns_line9InterruptEv+0x4d4>
		{	// render
			return;
		}
		if (mode == 1)
     c70:	81 30       	cpi	r24, 0x01	; 1
     c72:	09 f0       	breq	.+2      	; 0xc76 <_ZN7ns_line9InterruptEv+0xd8>
     c74:	59 c0       	rjmp	.+178    	; 0xd28 <_ZN7ns_line9InterruptEv+0x18a>
		{	// wait free
			uint8_t fl = 1;
			//for (uint8_t i=0; i<2; i++) //   2 
			{
				if (sensors[0]->readSensor() == 0 ) fl = 0;
     c76:	ef e7       	ldi	r30, 0x7F	; 127
     c78:	f1 e0       	ldi	r31, 0x01	; 1
		}
	}
	uint8_t readSensor() { return this->fl; }
     c7a:	a0 81       	ld	r26, Z
     c7c:	b1 81       	ldd	r27, Z+1	; 0x01
     c7e:	1d 96       	adiw	r26, 0x0d	; 13
     c80:	9c 91       	ld	r25, X
     c82:	02 80       	ldd	r0, Z+2	; 0x02
     c84:	f3 81       	ldd	r31, Z+3	; 0x03
     c86:	e0 2d       	mov	r30, r0
				if (sensors[1]->readSensor() == 0 ) fl = 0;
     c88:	85 85       	ldd	r24, Z+13	; 0x0d
     c8a:	88 23       	and	r24, r24
     c8c:	39 f1       	breq	.+78     	; 0xcdc <_ZN7ns_line9InterruptEv+0x13e>
     c8e:	cb c1       	rjmp	.+918    	; 0x1026 <_ZN7ns_line9InterruptEv+0x488>
				//if (sensors[2]->readSensor() == 0 ) fl = 0;
				//if (sensors[3]->readSensor() == 0 ) fl = 0;
				//if (sensors[4]->readSensor() == 0 ) fl = 0;
			}
			if (fl)
     c90:	c0 e0       	ldi	r28, 0x00	; 0
     c92:	d0 e0       	ldi	r29, 0x00	; 0
			{	//    
				for (uint8_t i=0; i<5; i++)
				{
					times[i][0] = 0;
     c94:	fe 01       	movw	r30, r28
     c96:	ee 0f       	add	r30, r30
     c98:	ff 1f       	adc	r31, r31
     c9a:	ee 0f       	add	r30, r30
     c9c:	ff 1f       	adc	r31, r31
     c9e:	ee 0f       	add	r30, r30
     ca0:	ff 1f       	adc	r31, r31
     ca2:	ed 5a       	subi	r30, 0xAD	; 173
     ca4:	fe 4f       	sbci	r31, 0xFE	; 254
     ca6:	10 82       	st	Z, r1
     ca8:	11 82       	std	Z+1, r1	; 0x01
     caa:	12 82       	std	Z+2, r1	; 0x02
     cac:	13 82       	std	Z+3, r1	; 0x03
					times[i][1] = 0;
     cae:	14 82       	std	Z+4, r1	; 0x04
     cb0:	15 82       	std	Z+5, r1	; 0x05
     cb2:	16 82       	std	Z+6, r1	; 0x06
     cb4:	17 82       	std	Z+7, r1	; 0x07
					protect[i] = 0;
     cb6:	d8 01       	movw	r26, r16
     cb8:	1d 92       	st	X+, r1
     cba:	1d 92       	st	X+, r1
     cbc:	8d 01       	movw	r16, r26
					protect_interval = eeprom_read_word(&ns_vg::eeProtect);
     cbe:	81 ef       	ldi	r24, 0xF1	; 241
     cc0:	9c e0       	ldi	r25, 0x0C	; 12
     cc2:	0e 94 e3 32 	call	0x65c6	; 0x65c6 <eeprom_read_word>
     cc6:	90 93 12 01 	sts	0x0112, r25	; 0x800112 <_ZN7ns_line16protect_intervalE+0x1>
     cca:	80 93 11 01 	sts	0x0111, r24	; 0x800111 <_ZN7ns_line16protect_intervalE>
     cce:	21 96       	adiw	r28, 0x01	; 1
				//if (sensors[3]->readSensor() == 0 ) fl = 0;
				//if (sensors[4]->readSensor() == 0 ) fl = 0;
			}
			if (fl)
			{	//    
				for (uint8_t i=0; i<5; i++)
     cd0:	c5 30       	cpi	r28, 0x05	; 5
     cd2:	d1 05       	cpc	r29, r1
     cd4:	f9 f6       	brne	.-66     	; 0xc94 <_ZN7ns_line9InterruptEv+0xf6>
					times[i][0] = 0;
					times[i][1] = 0;
					protect[i] = 0;
					protect_interval = eeprom_read_word(&ns_vg::eeProtect);
				}
				mode = 2;
     cd6:	82 e0       	ldi	r24, 0x02	; 2
     cd8:	80 93 10 01 	sts	0x0110, r24	; 0x800110 <_ZN7ns_line4modeE>
			}
			if (count > 0)
     cdc:	80 91 7b 01 	lds	r24, 0x017B	; 0x80017b <_ZN7ns_line5countE>
     ce0:	90 91 7c 01 	lds	r25, 0x017C	; 0x80017c <_ZN7ns_line5countE+0x1>
     ce4:	a0 91 7d 01 	lds	r26, 0x017D	; 0x80017d <_ZN7ns_line5countE+0x2>
     ce8:	b0 91 7e 01 	lds	r27, 0x017E	; 0x80017e <_ZN7ns_line5countE+0x3>
     cec:	89 2b       	or	r24, r25
     cee:	8a 2b       	or	r24, r26
     cf0:	8b 2b       	or	r24, r27
     cf2:	09 f4       	brne	.+2      	; 0xcf6 <_ZN7ns_line9InterruptEv+0x158>
     cf4:	be c1       	rjmp	.+892    	; 0x1072 <_ZN7ns_line9InterruptEv+0x4d4>
			{
				count = 0;
     cf6:	10 92 7b 01 	sts	0x017B, r1	; 0x80017b <_ZN7ns_line5countE>
     cfa:	10 92 7c 01 	sts	0x017C, r1	; 0x80017c <_ZN7ns_line5countE+0x1>
     cfe:	10 92 7d 01 	sts	0x017D, r1	; 0x80017d <_ZN7ns_line5countE+0x2>
     d02:	10 92 7e 01 	sts	0x017E, r1	; 0x80017e <_ZN7ns_line5countE+0x3>
				timeEnd = 0;
     d06:	10 92 4f 01 	sts	0x014F, r1	; 0x80014f <_ZN7ns_line7timeEndE>
     d0a:	10 92 50 01 	sts	0x0150, r1	; 0x800150 <_ZN7ns_line7timeEndE+0x1>
     d0e:	10 92 51 01 	sts	0x0151, r1	; 0x800151 <_ZN7ns_line7timeEndE+0x2>
     d12:	10 92 52 01 	sts	0x0152, r1	; 0x800152 <_ZN7ns_line7timeEndE+0x3>
				timeCrh = 0;
     d16:	10 92 4b 01 	sts	0x014B, r1	; 0x80014b <_ZN7ns_line7timeCrhE>
     d1a:	10 92 4c 01 	sts	0x014C, r1	; 0x80014c <_ZN7ns_line7timeCrhE+0x1>
     d1e:	10 92 4d 01 	sts	0x014D, r1	; 0x80014d <_ZN7ns_line7timeCrhE+0x2>
     d22:	10 92 4e 01 	sts	0x014E, r1	; 0x80014e <_ZN7ns_line7timeCrhE+0x3>
     d26:	a5 c1       	rjmp	.+842    	; 0x1072 <_ZN7ns_line9InterruptEv+0x4d4>
			}
			return;
		}
		if (mode == 2)
     d28:	82 30       	cpi	r24, 0x02	; 2
     d2a:	09 f0       	breq	.+2      	; 0xd2e <_ZN7ns_line9InterruptEv+0x190>
     d2c:	a2 c1       	rjmp	.+836    	; 0x1072 <_ZN7ns_line9InterruptEv+0x4d4>
		{	// read data
			if (count == 0)
     d2e:	80 91 7b 01 	lds	r24, 0x017B	; 0x80017b <_ZN7ns_line5countE>
     d32:	90 91 7c 01 	lds	r25, 0x017C	; 0x80017c <_ZN7ns_line5countE+0x1>
     d36:	a0 91 7d 01 	lds	r26, 0x017D	; 0x80017d <_ZN7ns_line5countE+0x2>
     d3a:	b0 91 7e 01 	lds	r27, 0x017E	; 0x80017e <_ZN7ns_line5countE+0x3>
     d3e:	00 97       	sbiw	r24, 0x00	; 0
     d40:	a1 05       	cpc	r26, r1
     d42:	b1 05       	cpc	r27, r1
     d44:	e1 f4       	brne	.+56     	; 0xd7e <_ZN7ns_line9InterruptEv+0x1e0>
			{
				if (
				   ( (sensors[0]->readSensor() == 0) && (sensors[1]->readSensor() == 0) ) // !!!!!!!!!!!!!  
     d46:	e0 91 7f 01 	lds	r30, 0x017F	; 0x80017f <_ZN7ns_line7sensorsE>
     d4a:	f0 91 80 01 	lds	r31, 0x0180	; 0x800180 <_ZN7ns_line7sensorsE+0x1>
				   ||
     d4e:	85 85       	ldd	r24, Z+13	; 0x0d
     d50:	81 11       	cpse	r24, r1
     d52:	0a c0       	rjmp	.+20     	; 0xd68 <_ZN7ns_line9InterruptEv+0x1ca>
     d54:	a0 91 81 01 	lds	r26, 0x0181	; 0x800181 <_ZN7ns_line7sensorsE+0x2>
     d58:	b0 91 82 01 	lds	r27, 0x0182	; 0x800182 <_ZN7ns_line7sensorsE+0x3>
		if (mode == 2)
		{	// read data
			if (count == 0)
			{
				if (
				   ( (sensors[0]->readSensor() == 0) && (sensors[1]->readSensor() == 0) ) // !!!!!!!!!!!!!  
     d5c:	1d 96       	adiw	r26, 0x0d	; 13
     d5e:	8c 91       	ld	r24, X
     d60:	88 23       	and	r24, r24
     d62:	09 f4       	brne	.+2      	; 0xd66 <_ZN7ns_line9InterruptEv+0x1c8>
     d64:	63 c1       	rjmp	.+710    	; 0x102c <_ZN7ns_line9InterruptEv+0x48e>
     d66:	81 c1       	rjmp	.+770    	; 0x106a <_ZN7ns_line9InterruptEv+0x4cc>
				   ||
     d68:	80 81       	ld	r24, Z
     d6a:	81 11       	cpse	r24, r1
     d6c:	13 c0       	rjmp	.+38     	; 0xd94 <_ZN7ns_line9InterruptEv+0x1f6>
     d6e:	e0 91 81 01 	lds	r30, 0x0181	; 0x800181 <_ZN7ns_line7sensorsE+0x2>
     d72:	f0 91 82 01 	lds	r31, 0x0182	; 0x800182 <_ZN7ns_line7sensorsE+0x3>
				   ( (sensors[0]->tr == 0) && (sensors[1]->readSensor() != 0) )			// 0 , 1 - 
     d76:	85 85       	ldd	r24, Z+13	; 0x0d
     d78:	81 11       	cpse	r24, r1
     d7a:	58 c1       	rjmp	.+688    	; 0x102c <_ZN7ns_line9InterruptEv+0x48e>
     d7c:	0b c0       	rjmp	.+22     	; 0xd94 <_ZN7ns_line9InterruptEv+0x1f6>
					count = 1;
				}
			}
			else
			{
				count++;
     d7e:	01 96       	adiw	r24, 0x01	; 1
     d80:	a1 1d       	adc	r26, r1
     d82:	b1 1d       	adc	r27, r1
     d84:	80 93 7b 01 	sts	0x017B, r24	; 0x80017b <_ZN7ns_line5countE>
     d88:	90 93 7c 01 	sts	0x017C, r25	; 0x80017c <_ZN7ns_line5countE+0x1>
     d8c:	a0 93 7d 01 	sts	0x017D, r26	; 0x80017d <_ZN7ns_line5countE+0x2>
     d90:	b0 93 7e 01 	sts	0x017E, r27	; 0x80017e <_ZN7ns_line5countE+0x3>
				if (sensors[1]->readSensor() == 0 ) fl = 0;
				//if (sensors[2]->readSensor() == 0 ) fl = 0;
				//if (sensors[3]->readSensor() == 0 ) fl = 0;
				//if (sensors[4]->readSensor() == 0 ) fl = 0;
			}
			if (fl)
     d94:	0f 2e       	mov	r0, r31
     d96:	ff e7       	ldi	r31, 0x7F	; 127
     d98:	cf 2e       	mov	r12, r31
     d9a:	f1 e0       	ldi	r31, 0x01	; 1
     d9c:	df 2e       	mov	r13, r31
     d9e:	f0 2d       	mov	r31, r0
     da0:	0f 2e       	mov	r0, r31
     da2:	f0 e3       	ldi	r31, 0x30	; 48
     da4:	5f 2e       	mov	r5, r31
     da6:	f0 2d       	mov	r31, r0
     da8:	a1 2c       	mov	r10, r1
     daa:	b1 2c       	mov	r11, r1
			{
				count++;
			}
			for (uint8_t i=0; i<5; i++)
			{
				if (sensors[i]->tr == 0) //   
     dac:	35 01       	movw	r6, r10
     dae:	46 01       	movw	r8, r12
     db0:	e6 01       	movw	r28, r12
     db2:	e8 81       	ld	r30, Y
     db4:	f9 81       	ldd	r31, Y+1	; 0x01
     db6:	80 81       	ld	r24, Z
     db8:	81 11       	cpse	r24, r1
     dba:	46 c0       	rjmp	.+140    	; 0xe48 <_ZN7ns_line9InterruptEv+0x2aa>
				{
					if (count > 0)	//    rs    
     dbc:	80 91 7b 01 	lds	r24, 0x017B	; 0x80017b <_ZN7ns_line5countE>
     dc0:	90 91 7c 01 	lds	r25, 0x017C	; 0x80017c <_ZN7ns_line5countE+0x1>
     dc4:	a0 91 7d 01 	lds	r26, 0x017D	; 0x80017d <_ZN7ns_line5countE+0x2>
     dc8:	b0 91 7e 01 	lds	r27, 0x017E	; 0x80017e <_ZN7ns_line5countE+0x3>
     dcc:	89 2b       	or	r24, r25
     dce:	8a 2b       	or	r24, r26
     dd0:	8b 2b       	or	r24, r27
     dd2:	d1 f0       	breq	.+52     	; 0xe08 <_ZN7ns_line9InterruptEv+0x26a>
					{
						ns_rs232::SendByte('d');
     dd4:	84 e6       	ldi	r24, 0x64	; 100
     dd6:	0e 94 fc 2e 	call	0x5df8	; 0x5df8 <_ZN8ns_rs2328SendByteEh>
						ns_rs232::SendByte('0'+i);
     dda:	85 2d       	mov	r24, r5
     ddc:	0e 94 fc 2e 	call	0x5df8	; 0x5df8 <_ZN8ns_rs2328SendByteEh>
						ns_rs232::SendByte(':');
     de0:	8a e3       	ldi	r24, 0x3A	; 58
     de2:	0e 94 fc 2e 	call	0x5df8	; 0x5df8 <_ZN8ns_rs2328SendByteEh>
						ns_rs232::DigitZ(6, count);
     de6:	40 91 7b 01 	lds	r20, 0x017B	; 0x80017b <_ZN7ns_line5countE>
     dea:	50 91 7c 01 	lds	r21, 0x017C	; 0x80017c <_ZN7ns_line5countE+0x1>
     dee:	60 91 7d 01 	lds	r22, 0x017D	; 0x80017d <_ZN7ns_line5countE+0x2>
     df2:	70 91 7e 01 	lds	r23, 0x017E	; 0x80017e <_ZN7ns_line5countE+0x3>
     df6:	86 e0       	ldi	r24, 0x06	; 6
     df8:	0e 94 3b 2f 	call	0x5e76	; 0x5e76 <_ZN8ns_rs2326DigitZEhl>
						ns_rs232::SendByte('\r');
     dfc:	8d e0       	ldi	r24, 0x0D	; 13
     dfe:	0e 94 fc 2e 	call	0x5df8	; 0x5df8 <_ZN8ns_rs2328SendByteEh>
						ns_rs232::SendByte('\n');
     e02:	8a e0       	ldi	r24, 0x0A	; 10
     e04:	0e 94 fc 2e 	call	0x5df8	; 0x5df8 <_ZN8ns_rs2328SendByteEh>
					}
					{
						//       i
						uint16_t tmpProtect = protect[i];
     e08:	f8 01       	movw	r30, r16
     e0a:	80 81       	ld	r24, Z
     e0c:	91 81       	ldd	r25, Z+1	; 0x01
						//      i
						protect[i] = protect_interval;
     e0e:	20 91 11 01 	lds	r18, 0x0111	; 0x800111 <_ZN7ns_line16protect_intervalE>
     e12:	30 91 12 01 	lds	r19, 0x0112	; 0x800112 <_ZN7ns_line16protect_intervalE+0x1>
     e16:	31 83       	std	Z+1, r19	; 0x01
     e18:	20 83       	st	Z, r18
						// ,    
						if (tmpProtect == 0) times[i][0] = count;
     e1a:	89 2b       	or	r24, r25
     e1c:	a9 f4       	brne	.+42     	; 0xe48 <_ZN7ns_line9InterruptEv+0x2aa>
     e1e:	80 91 7b 01 	lds	r24, 0x017B	; 0x80017b <_ZN7ns_line5countE>
     e22:	90 91 7c 01 	lds	r25, 0x017C	; 0x80017c <_ZN7ns_line5countE+0x1>
     e26:	a0 91 7d 01 	lds	r26, 0x017D	; 0x80017d <_ZN7ns_line5countE+0x2>
     e2a:	b0 91 7e 01 	lds	r27, 0x017E	; 0x80017e <_ZN7ns_line5countE+0x3>
     e2e:	f3 01       	movw	r30, r6
     e30:	ee 0f       	add	r30, r30
     e32:	ff 1f       	adc	r31, r31
     e34:	ee 0f       	add	r30, r30
     e36:	ff 1f       	adc	r31, r31
     e38:	ee 0f       	add	r30, r30
     e3a:	ff 1f       	adc	r31, r31
     e3c:	ed 5a       	subi	r30, 0xAD	; 173
     e3e:	fe 4f       	sbci	r31, 0xFE	; 254
     e40:	80 83       	st	Z, r24
     e42:	91 83       	std	Z+1, r25	; 0x01
     e44:	a2 83       	std	Z+2, r26	; 0x02
     e46:	b3 83       	std	Z+3, r27	; 0x03
     e48:	f2 e0       	ldi	r31, 0x02	; 2
     e4a:	cf 0e       	add	r12, r31
     e4c:	d1 1c       	adc	r13, r1
					}
				}
				if (sensors[i]->tr == 1)	//     (c  )
     e4e:	d4 01       	movw	r26, r8
     e50:	ed 91       	ld	r30, X+
     e52:	fc 91       	ld	r31, X
     e54:	80 81       	ld	r24, Z
     e56:	81 30       	cpi	r24, 0x01	; 1
     e58:	99 f5       	brne	.+102    	; 0xec0 <_ZN7ns_line9InterruptEv+0x322>
				{
					times[i][1] = count;
     e5a:	80 91 7b 01 	lds	r24, 0x017B	; 0x80017b <_ZN7ns_line5countE>
     e5e:	90 91 7c 01 	lds	r25, 0x017C	; 0x80017c <_ZN7ns_line5countE+0x1>
     e62:	a0 91 7d 01 	lds	r26, 0x017D	; 0x80017d <_ZN7ns_line5countE+0x2>
     e66:	b0 91 7e 01 	lds	r27, 0x017E	; 0x80017e <_ZN7ns_line5countE+0x3>
     e6a:	f3 01       	movw	r30, r6
     e6c:	ee 0f       	add	r30, r30
     e6e:	ff 1f       	adc	r31, r31
     e70:	ee 0f       	add	r30, r30
     e72:	ff 1f       	adc	r31, r31
     e74:	ee 0f       	add	r30, r30
     e76:	ff 1f       	adc	r31, r31
     e78:	ed 5a       	subi	r30, 0xAD	; 173
     e7a:	fe 4f       	sbci	r31, 0xFE	; 254
     e7c:	84 83       	std	Z+4, r24	; 0x04
     e7e:	95 83       	std	Z+5, r25	; 0x05
     e80:	a6 83       	std	Z+6, r26	; 0x06
     e82:	b7 83       	std	Z+7, r27	; 0x07
					if (count > 0)
     e84:	89 2b       	or	r24, r25
     e86:	8a 2b       	or	r24, r26
     e88:	8b 2b       	or	r24, r27
     e8a:	d1 f0       	breq	.+52     	; 0xec0 <_ZN7ns_line9InterruptEv+0x322>
					{
						ns_rs232::SendByte('D');
     e8c:	84 e4       	ldi	r24, 0x44	; 68
     e8e:	0e 94 fc 2e 	call	0x5df8	; 0x5df8 <_ZN8ns_rs2328SendByteEh>
						ns_rs232::SendByte('0'+i);
     e92:	85 2d       	mov	r24, r5
     e94:	0e 94 fc 2e 	call	0x5df8	; 0x5df8 <_ZN8ns_rs2328SendByteEh>
						ns_rs232::SendByte(':');
     e98:	8a e3       	ldi	r24, 0x3A	; 58
     e9a:	0e 94 fc 2e 	call	0x5df8	; 0x5df8 <_ZN8ns_rs2328SendByteEh>
						ns_rs232::DigitZ(6, count);
     e9e:	40 91 7b 01 	lds	r20, 0x017B	; 0x80017b <_ZN7ns_line5countE>
     ea2:	50 91 7c 01 	lds	r21, 0x017C	; 0x80017c <_ZN7ns_line5countE+0x1>
     ea6:	60 91 7d 01 	lds	r22, 0x017D	; 0x80017d <_ZN7ns_line5countE+0x2>
     eaa:	70 91 7e 01 	lds	r23, 0x017E	; 0x80017e <_ZN7ns_line5countE+0x3>
     eae:	86 e0       	ldi	r24, 0x06	; 6
     eb0:	0e 94 3b 2f 	call	0x5e76	; 0x5e76 <_ZN8ns_rs2326DigitZEhl>
						ns_rs232::SendByte('\r');
     eb4:	8d e0       	ldi	r24, 0x0D	; 13
     eb6:	0e 94 fc 2e 	call	0x5df8	; 0x5df8 <_ZN8ns_rs2328SendByteEh>
						ns_rs232::SendByte('\n');
     eba:	8a e0       	ldi	r24, 0x0A	; 10
     ebc:	0e 94 fc 2e 	call	0x5df8	; 0x5df8 <_ZN8ns_rs2328SendByteEh>
     ec0:	bf ef       	ldi	r27, 0xFF	; 255
     ec2:	ab 1a       	sub	r10, r27
     ec4:	bb 0a       	sbc	r11, r27
     ec6:	53 94       	inc	r5
     ec8:	0e 5f       	subi	r16, 0xFE	; 254
     eca:	1f 4f       	sbci	r17, 0xFF	; 255
			}
			else
			{
				count++;
			}
			for (uint8_t i=0; i<5; i++)
     ecc:	c5 e3       	ldi	r28, 0x35	; 53
     ece:	5c 12       	cpse	r5, r28
     ed0:	6d cf       	rjmp	.-294    	; 0xdac <_ZN7ns_line9InterruptEv+0x20e>
     ed2:	90 e0       	ldi	r25, 0x00	; 0
				uint8_t fl = 0;
				for (uint8_t i=0; i<5; i++)
				{
					if (sensors[i]->readSensor() == 1)
					{
						fl = 1;
     ed4:	21 e0       	ldi	r18, 0x01	; 1
			// 
			{
				uint8_t fl = 0;
				for (uint8_t i=0; i<5; i++)
				{
					if (sensors[i]->readSensor() == 1)
     ed6:	d7 01       	movw	r26, r14
     ed8:	ed 91       	ld	r30, X+
     eda:	fd 91       	ld	r31, X+
     edc:	7d 01       	movw	r14, r26
     ede:	85 85       	ldd	r24, Z+13	; 0x0d
     ee0:	81 30       	cpi	r24, 0x01	; 1
     ee2:	09 f4       	brne	.+2      	; 0xee6 <_ZN7ns_line9InterruptEv+0x348>
					{
						fl = 1;
     ee4:	92 2f       	mov	r25, r18
				}
			}
			// 
			{
				uint8_t fl = 0;
				for (uint8_t i=0; i<5; i++)
     ee6:	2e 14       	cp	r2, r14
     ee8:	3f 04       	cpc	r3, r15
     eea:	a9 f7       	brne	.-22     	; 0xed6 <_ZN7ns_line9InterruptEv+0x338>
					if (sensors[i]->readSensor() == 1)
					{
						fl = 1;
					}
				}
				if (!fl)
     eec:	91 11       	cpse	r25, r1
     eee:	39 c0       	rjmp	.+114    	; 0xf62 <_ZN7ns_line9InterruptEv+0x3c4>
				{
					if (timeCrh == 0)
     ef0:	80 91 4b 01 	lds	r24, 0x014B	; 0x80014b <_ZN7ns_line7timeCrhE>
     ef4:	90 91 4c 01 	lds	r25, 0x014C	; 0x80014c <_ZN7ns_line7timeCrhE+0x1>
     ef8:	a0 91 4d 01 	lds	r26, 0x014D	; 0x80014d <_ZN7ns_line7timeCrhE+0x2>
     efc:	b0 91 4e 01 	lds	r27, 0x014E	; 0x80014e <_ZN7ns_line7timeCrhE+0x3>
     f00:	00 97       	sbiw	r24, 0x00	; 0
     f02:	a1 05       	cpc	r26, r1
     f04:	b1 05       	cpc	r27, r1
     f06:	69 f4       	brne	.+26     	; 0xf22 <_ZN7ns_line9InterruptEv+0x384>
					{
						timeCrh = TIME_CRASH;
     f08:	80 ec       	ldi	r24, 0xC0	; 192
     f0a:	94 ed       	ldi	r25, 0xD4	; 212
     f0c:	a1 e0       	ldi	r26, 0x01	; 1
     f0e:	b0 e0       	ldi	r27, 0x00	; 0
     f10:	80 93 4b 01 	sts	0x014B, r24	; 0x80014b <_ZN7ns_line7timeCrhE>
     f14:	90 93 4c 01 	sts	0x014C, r25	; 0x80014c <_ZN7ns_line7timeCrhE+0x1>
     f18:	a0 93 4d 01 	sts	0x014D, r26	; 0x80014d <_ZN7ns_line7timeCrhE+0x2>
     f1c:	b0 93 4e 01 	sts	0x014E, r27	; 0x80014e <_ZN7ns_line7timeCrhE+0x3>
     f20:	20 c0       	rjmp	.+64     	; 0xf62 <_ZN7ns_line9InterruptEv+0x3c4>
					}
					else
					{
						timeCrh--;
     f22:	01 97       	sbiw	r24, 0x01	; 1
     f24:	a1 09       	sbc	r26, r1
     f26:	b1 09       	sbc	r27, r1
						if (timeCrh == 1)
     f28:	81 30       	cpi	r24, 0x01	; 1
     f2a:	91 05       	cpc	r25, r1
     f2c:	a1 05       	cpc	r26, r1
     f2e:	b1 05       	cpc	r27, r1
     f30:	49 f0       	breq	.+18     	; 0xf44 <_ZN7ns_line9InterruptEv+0x3a6>
					{
						timeCrh = TIME_CRASH;
					}
					else
					{
						timeCrh--;
     f32:	80 93 4b 01 	sts	0x014B, r24	; 0x80014b <_ZN7ns_line7timeCrhE>
     f36:	90 93 4c 01 	sts	0x014C, r25	; 0x80014c <_ZN7ns_line7timeCrhE+0x1>
     f3a:	a0 93 4d 01 	sts	0x014D, r26	; 0x80014d <_ZN7ns_line7timeCrhE+0x2>
     f3e:	b0 93 4e 01 	sts	0x014E, r27	; 0x80014e <_ZN7ns_line7timeCrhE+0x3>
     f42:	0f c0       	rjmp	.+30     	; 0xf62 <_ZN7ns_line9InterruptEv+0x3c4>
						if (timeCrh == 1)
						{
							timeCrh = 0;
     f44:	10 92 4b 01 	sts	0x014B, r1	; 0x80014b <_ZN7ns_line7timeCrhE>
     f48:	10 92 4c 01 	sts	0x014C, r1	; 0x80014c <_ZN7ns_line7timeCrhE+0x1>
     f4c:	10 92 4d 01 	sts	0x014D, r1	; 0x80014d <_ZN7ns_line7timeCrhE+0x2>
     f50:	10 92 4e 01 	sts	0x014E, r1	; 0x80014e <_ZN7ns_line7timeCrhE+0x3>
							ns_vg::lenTubuStat = 10;
     f54:	8a e0       	ldi	r24, 0x0A	; 10
     f56:	80 93 03 02 	sts	0x0203, r24	; 0x800203 <_ZN5ns_vg11lenTubuStatE>
							mode = 1;
     f5a:	81 e0       	ldi	r24, 0x01	; 1
     f5c:	80 93 10 01 	sts	0x0110, r24	; 0x800110 <_ZN7ns_line4modeE>
							return;
     f60:	88 c0       	rjmp	.+272    	; 0x1072 <_ZN7ns_line9InterruptEv+0x4d4>
					}
				}
			}
			
			//       2
			if ( (sensors[1]->tr == 1) && (sensors[0]->readSensor() != 0) )
     f62:	e0 91 81 01 	lds	r30, 0x0181	; 0x800181 <_ZN7ns_line7sensorsE+0x2>
     f66:	f0 91 82 01 	lds	r31, 0x0182	; 0x800182 <_ZN7ns_line7sensorsE+0x3>
     f6a:	80 81       	ld	r24, Z
     f6c:	81 30       	cpi	r24, 0x01	; 1
     f6e:	61 f5       	brne	.+88     	; 0xfc8 <_ZN7ns_line9InterruptEv+0x42a>
     f70:	e0 91 7f 01 	lds	r30, 0x017F	; 0x80017f <_ZN7ns_line7sensorsE>
     f74:	f0 91 80 01 	lds	r31, 0x0180	; 0x800180 <_ZN7ns_line7sensorsE+0x1>
     f78:	85 85       	ldd	r24, Z+13	; 0x0d
     f7a:	81 11       	cpse	r24, r1
     f7c:	64 c0       	rjmp	.+200    	; 0x1046 <_ZN7ns_line9InterruptEv+0x4a8>
     f7e:	24 c0       	rjmp	.+72     	; 0xfc8 <_ZN7ns_line9InterruptEv+0x42a>
				{
					if (times[2][0] == 0)
					{
						timeEnd = ((uint32_t)3) * (times[1][1] - times[0][1]) / ((uint32_t)2); //   3/4   sq1->sq2 @@@@@@@@@@@@@@@@@@@@@@@@@@@@@@@@@@@@@@@@@@
     f80:	e3 e5       	ldi	r30, 0x53	; 83
     f82:	f1 e0       	ldi	r31, 0x01	; 1
     f84:	84 85       	ldd	r24, Z+12	; 0x0c
     f86:	95 85       	ldd	r25, Z+13	; 0x0d
     f88:	a6 85       	ldd	r26, Z+14	; 0x0e
     f8a:	b7 85       	ldd	r27, Z+15	; 0x0f
     f8c:	44 81       	ldd	r20, Z+4	; 0x04
     f8e:	55 81       	ldd	r21, Z+5	; 0x05
     f90:	66 81       	ldd	r22, Z+6	; 0x06
     f92:	77 81       	ldd	r23, Z+7	; 0x07
     f94:	84 1b       	sub	r24, r20
     f96:	95 0b       	sbc	r25, r21
     f98:	a6 0b       	sbc	r26, r22
     f9a:	b7 0b       	sbc	r27, r23
     f9c:	ac 01       	movw	r20, r24
     f9e:	bd 01       	movw	r22, r26
     fa0:	44 0f       	add	r20, r20
     fa2:	55 1f       	adc	r21, r21
     fa4:	66 1f       	adc	r22, r22
     fa6:	77 1f       	adc	r23, r23
     fa8:	84 0f       	add	r24, r20
     faa:	95 1f       	adc	r25, r21
     fac:	a6 1f       	adc	r26, r22
     fae:	b7 1f       	adc	r27, r23
     fb0:	b6 95       	lsr	r27
     fb2:	a7 95       	ror	r26
     fb4:	97 95       	ror	r25
     fb6:	87 95       	ror	r24
     fb8:	80 93 4f 01 	sts	0x014F, r24	; 0x80014f <_ZN7ns_line7timeEndE>
     fbc:	90 93 50 01 	sts	0x0150, r25	; 0x800150 <_ZN7ns_line7timeEndE+0x1>
     fc0:	a0 93 51 01 	sts	0x0151, r26	; 0x800151 <_ZN7ns_line7timeEndE+0x2>
     fc4:	b0 93 52 01 	sts	0x0152, r27	; 0x800152 <_ZN7ns_line7timeEndE+0x3>
					else
					{
						timeEnd = ((uint32_t)FtTimerMain) / 4;
					}
				}
			if (timeEnd > 1) timeEnd--;
     fc8:	80 91 4f 01 	lds	r24, 0x014F	; 0x80014f <_ZN7ns_line7timeEndE>
     fcc:	90 91 50 01 	lds	r25, 0x0150	; 0x800150 <_ZN7ns_line7timeEndE+0x1>
     fd0:	a0 91 51 01 	lds	r26, 0x0151	; 0x800151 <_ZN7ns_line7timeEndE+0x2>
     fd4:	b0 91 52 01 	lds	r27, 0x0152	; 0x800152 <_ZN7ns_line7timeEndE+0x3>
     fd8:	82 30       	cpi	r24, 0x02	; 2
     fda:	91 05       	cpc	r25, r1
     fdc:	a1 05       	cpc	r26, r1
     fde:	b1 05       	cpc	r27, r1
     fe0:	58 f0       	brcs	.+22     	; 0xff8 <_ZN7ns_line9InterruptEv+0x45a>
     fe2:	01 97       	sbiw	r24, 0x01	; 1
     fe4:	a1 09       	sbc	r26, r1
     fe6:	b1 09       	sbc	r27, r1
     fe8:	80 93 4f 01 	sts	0x014F, r24	; 0x80014f <_ZN7ns_line7timeEndE>
     fec:	90 93 50 01 	sts	0x0150, r25	; 0x800150 <_ZN7ns_line7timeEndE+0x1>
     ff0:	a0 93 51 01 	sts	0x0151, r26	; 0x800151 <_ZN7ns_line7timeEndE+0x2>
     ff4:	b0 93 52 01 	sts	0x0152, r27	; 0x800152 <_ZN7ns_line7timeEndE+0x3>
			if (timeEnd == 1)
     ff8:	80 91 4f 01 	lds	r24, 0x014F	; 0x80014f <_ZN7ns_line7timeEndE>
     ffc:	90 91 50 01 	lds	r25, 0x0150	; 0x800150 <_ZN7ns_line7timeEndE+0x1>
    1000:	a0 91 51 01 	lds	r26, 0x0151	; 0x800151 <_ZN7ns_line7timeEndE+0x2>
    1004:	b0 91 52 01 	lds	r27, 0x0152	; 0x800152 <_ZN7ns_line7timeEndE+0x3>
    1008:	01 97       	sbiw	r24, 0x01	; 1
    100a:	a1 05       	cpc	r26, r1
    100c:	b1 05       	cpc	r27, r1
    100e:	89 f5       	brne	.+98     	; 0x1072 <_ZN7ns_line9InterruptEv+0x4d4>
			{
				timeEnd = 0;
    1010:	10 92 4f 01 	sts	0x014F, r1	; 0x80014f <_ZN7ns_line7timeEndE>
    1014:	10 92 50 01 	sts	0x0150, r1	; 0x800150 <_ZN7ns_line7timeEndE+0x1>
    1018:	10 92 51 01 	sts	0x0151, r1	; 0x800151 <_ZN7ns_line7timeEndE+0x2>
    101c:	10 92 52 01 	sts	0x0152, r1	; 0x800152 <_ZN7ns_line7timeEndE+0x3>
				mode = 0; // render
    1020:	10 92 10 01 	sts	0x0110, r1	; 0x800110 <_ZN7ns_line4modeE>
    1024:	26 c0       	rjmp	.+76     	; 0x1072 <_ZN7ns_line9InterruptEv+0x4d4>
				if (sensors[1]->readSensor() == 0 ) fl = 0;
				//if (sensors[2]->readSensor() == 0 ) fl = 0;
				//if (sensors[3]->readSensor() == 0 ) fl = 0;
				//if (sensors[4]->readSensor() == 0 ) fl = 0;
			}
			if (fl)
    1026:	91 11       	cpse	r25, r1
    1028:	33 ce       	rjmp	.-922    	; 0xc90 <_ZN7ns_line9InterruptEv+0xf2>
    102a:	58 ce       	rjmp	.-848    	; 0xcdc <_ZN7ns_line9InterruptEv+0x13e>
				   ( (sensors[0]->readSensor() == 0) && (sensors[1]->readSensor() == 0) ) // !!!!!!!!!!!!!  
				   ||
				   ( (sensors[0]->tr == 0) && (sensors[1]->readSensor() != 0) )			// 0 , 1 - 
				)
				{	//   
					count = 1;
    102c:	81 e0       	ldi	r24, 0x01	; 1
    102e:	90 e0       	ldi	r25, 0x00	; 0
    1030:	a0 e0       	ldi	r26, 0x00	; 0
    1032:	b0 e0       	ldi	r27, 0x00	; 0
    1034:	80 93 7b 01 	sts	0x017B, r24	; 0x80017b <_ZN7ns_line5countE>
    1038:	90 93 7c 01 	sts	0x017C, r25	; 0x80017c <_ZN7ns_line5countE+0x1>
    103c:	a0 93 7d 01 	sts	0x017D, r26	; 0x80017d <_ZN7ns_line5countE+0x2>
    1040:	b0 93 7e 01 	sts	0x017E, r27	; 0x80017e <_ZN7ns_line5countE+0x3>
    1044:	a7 ce       	rjmp	.-690    	; 0xd94 <_ZN7ns_line9InterruptEv+0x1f6>
			}
			
			//       2
			if ( (sensors[1]->tr == 1) && (sensors[0]->readSensor() != 0) )
				{
					if (times[2][0] == 0)
    1046:	80 91 63 01 	lds	r24, 0x0163	; 0x800163 <_ZN7ns_line5timesE+0x10>
    104a:	90 91 64 01 	lds	r25, 0x0164	; 0x800164 <_ZN7ns_line5timesE+0x11>
    104e:	a0 91 65 01 	lds	r26, 0x0165	; 0x800165 <_ZN7ns_line5timesE+0x12>
    1052:	b0 91 66 01 	lds	r27, 0x0166	; 0x800166 <_ZN7ns_line5timesE+0x13>
    1056:	89 2b       	or	r24, r25
    1058:	8a 2b       	or	r24, r26
    105a:	8b 2b       	or	r24, r27
    105c:	09 f4       	brne	.+2      	; 0x1060 <_ZN7ns_line9InterruptEv+0x4c2>
    105e:	90 cf       	rjmp	.-224    	; 0xf80 <_ZN7ns_line9InterruptEv+0x3e2>
					else
					{
						timeEnd = ((uint32_t)FtTimerMain) / 4;
					}
				}
			if (timeEnd > 1) timeEnd--;
    1060:	84 ef       	ldi	r24, 0xF4	; 244
    1062:	91 e0       	ldi	r25, 0x01	; 1
    1064:	a0 e0       	ldi	r26, 0x00	; 0
    1066:	b0 e0       	ldi	r27, 0x00	; 0
    1068:	bc cf       	rjmp	.-136    	; 0xfe2 <_ZN7ns_line9InterruptEv+0x444>
		{	// read data
			if (count == 0)
			{
				if (
				   ( (sensors[0]->readSensor() == 0) && (sensors[1]->readSensor() == 0) ) // !!!!!!!!!!!!!  
				   ||
    106a:	80 81       	ld	r24, Z
    106c:	88 23       	and	r24, r24
    106e:	f1 f2       	breq	.-68     	; 0x102c <_ZN7ns_line9InterruptEv+0x48e>
    1070:	91 ce       	rjmp	.-734    	; 0xd94 <_ZN7ns_line9InterruptEv+0x1f6>
				timeEnd = 0;
				mode = 0; // render
			}
			return;
		}
	}
    1072:	df 91       	pop	r29
    1074:	cf 91       	pop	r28
    1076:	1f 91       	pop	r17
    1078:	0f 91       	pop	r16
    107a:	ff 90       	pop	r15
    107c:	ef 90       	pop	r14
    107e:	df 90       	pop	r13
    1080:	cf 90       	pop	r12
    1082:	bf 90       	pop	r11
    1084:	af 90       	pop	r10
    1086:	9f 90       	pop	r9
    1088:	8f 90       	pop	r8
    108a:	7f 90       	pop	r7
    108c:	6f 90       	pop	r6
    108e:	5f 90       	pop	r5
    1090:	3f 90       	pop	r3
    1092:	2f 90       	pop	r2
    1094:	08 95       	ret

00001096 <_ZN7ns_line8sendTeleEjajj>:
	// ====
	void sendTele(uint16_t dlina, int8_t sqBas, uint16_t base, uint16_t exL)
	{
    1096:	af 92       	push	r10
    1098:	bf 92       	push	r11
    109a:	df 92       	push	r13
    109c:	ef 92       	push	r14
    109e:	ff 92       	push	r15
    10a0:	0f 93       	push	r16
    10a2:	1f 93       	push	r17
    10a4:	cf 93       	push	r28
    10a6:	df 93       	push	r29
    10a8:	ec 01       	movw	r28, r24
    10aa:	d6 2e       	mov	r13, r22
    10ac:	7a 01       	movw	r14, r20
    10ae:	89 01       	movw	r16, r18
		// send to rs tele
		ns_rs232::String_P(PSTR(" tube: ") );
    10b0:	89 ed       	ldi	r24, 0xD9	; 217
    10b2:	90 e0       	ldi	r25, 0x00	; 0
    10b4:	0e 94 2b 2f 	call	0x5e56	; 0x5e56 <_ZN8ns_rs2328String_PEPKc>
		ns_rs232::DigitZ(3, ns_vg::nTube + 1 );
    10b8:	40 91 07 02 	lds	r20, 0x0207	; 0x800207 <_ZN5ns_vg5nTubeE>
    10bc:	50 91 08 02 	lds	r21, 0x0208	; 0x800208 <_ZN5ns_vg5nTubeE+0x1>
    10c0:	4f 5f       	subi	r20, 0xFF	; 255
    10c2:	5f 4f       	sbci	r21, 0xFF	; 255
    10c4:	60 e0       	ldi	r22, 0x00	; 0
    10c6:	70 e0       	ldi	r23, 0x00	; 0
    10c8:	83 e0       	ldi	r24, 0x03	; 3
    10ca:	0e 94 3b 2f 	call	0x5e76	; 0x5e76 <_ZN8ns_rs2326DigitZEhl>
		ns_rs232::String_P(PSTR("; L=") );
    10ce:	84 ed       	ldi	r24, 0xD4	; 212
    10d0:	90 e0       	ldi	r25, 0x00	; 0
    10d2:	0e 94 2b 2f 	call	0x5e56	; 0x5e56 <_ZN8ns_rs2328String_PEPKc>
		ns_rs232::DigitZ(5, dlina );
    10d6:	ae 01       	movw	r20, r28
    10d8:	60 e0       	ldi	r22, 0x00	; 0
    10da:	70 e0       	ldi	r23, 0x00	; 0
    10dc:	85 e0       	ldi	r24, 0x05	; 5
    10de:	0e 94 3b 2f 	call	0x5e76	; 0x5e76 <_ZN8ns_rs2326DigitZEhl>
		ns_rs232::String_P(PSTR("\r\n") );
    10e2:	81 ed       	ldi	r24, 0xD1	; 209
    10e4:	90 e0       	ldi	r25, 0x00	; 0
    10e6:	0e 94 2b 2f 	call	0x5e56	; 0x5e56 <_ZN8ns_rs2328String_PEPKc>
    10ea:	c3 ef       	ldi	r28, 0xF3	; 243
    10ec:	dc e0       	ldi	r29, 0x0C	; 12
    10ee:	0f 2e       	mov	r0, r31
    10f0:	fd ef       	ldi	r31, 0xFD	; 253
    10f2:	af 2e       	mov	r10, r31
    10f4:	fc e0       	ldi	r31, 0x0C	; 12
    10f6:	bf 2e       	mov	r11, r31
    10f8:	f0 2d       	mov	r31, r0
		for (uint8_t i=0; i<5; i++) { ns_rs232::DigitZ(8, eeprom_read_word(&ns_vg::eeDistance[i]) ); ns_rs232::SendByte(' '); }
    10fa:	ce 01       	movw	r24, r28
    10fc:	0e 94 e3 32 	call	0x65c6	; 0x65c6 <eeprom_read_word>
    1100:	ac 01       	movw	r20, r24
    1102:	60 e0       	ldi	r22, 0x00	; 0
    1104:	70 e0       	ldi	r23, 0x00	; 0
    1106:	88 e0       	ldi	r24, 0x08	; 8
    1108:	0e 94 3b 2f 	call	0x5e76	; 0x5e76 <_ZN8ns_rs2326DigitZEhl>
    110c:	80 e2       	ldi	r24, 0x20	; 32
    110e:	0e 94 fc 2e 	call	0x5df8	; 0x5df8 <_ZN8ns_rs2328SendByteEh>
    1112:	22 96       	adiw	r28, 0x02	; 2
    1114:	ca 15       	cp	r28, r10
    1116:	db 05       	cpc	r29, r11
    1118:	81 f7       	brne	.-32     	; 0x10fa <_ZN7ns_line8sendTeleEjajj+0x64>
		ns_rs232::String_P(PSTR("\r\n") );
    111a:	8e ec       	ldi	r24, 0xCE	; 206
    111c:	90 e0       	ldi	r25, 0x00	; 0
    111e:	0e 94 2b 2f 	call	0x5e56	; 0x5e56 <_ZN8ns_rs2328String_PEPKc>
    1122:	c0 e0       	ldi	r28, 0x00	; 0
    1124:	d0 e0       	ldi	r29, 0x00	; 0
		// 
		for (uint8_t i=0; i<5; i++) { ns_rs232::DigitZ(8, times[i][0] ); ns_rs232::SendByte(' '); }
    1126:	fe 01       	movw	r30, r28
    1128:	ee 0f       	add	r30, r30
    112a:	ff 1f       	adc	r31, r31
    112c:	ee 0f       	add	r30, r30
    112e:	ff 1f       	adc	r31, r31
    1130:	ee 0f       	add	r30, r30
    1132:	ff 1f       	adc	r31, r31
    1134:	ed 5a       	subi	r30, 0xAD	; 173
    1136:	fe 4f       	sbci	r31, 0xFE	; 254
    1138:	40 81       	ld	r20, Z
    113a:	51 81       	ldd	r21, Z+1	; 0x01
    113c:	62 81       	ldd	r22, Z+2	; 0x02
    113e:	73 81       	ldd	r23, Z+3	; 0x03
    1140:	88 e0       	ldi	r24, 0x08	; 8
    1142:	0e 94 3b 2f 	call	0x5e76	; 0x5e76 <_ZN8ns_rs2326DigitZEhl>
    1146:	80 e2       	ldi	r24, 0x20	; 32
    1148:	0e 94 fc 2e 	call	0x5df8	; 0x5df8 <_ZN8ns_rs2328SendByteEh>
    114c:	21 96       	adiw	r28, 0x01	; 1
    114e:	c5 30       	cpi	r28, 0x05	; 5
    1150:	d1 05       	cpc	r29, r1
    1152:	49 f7       	brne	.-46     	; 0x1126 <__stack+0x27>
		ns_rs232::String_P(PSTR("\r\n") );
    1154:	8b ec       	ldi	r24, 0xCB	; 203
    1156:	90 e0       	ldi	r25, 0x00	; 0
    1158:	0e 94 2b 2f 	call	0x5e56	; 0x5e56 <_ZN8ns_rs2328String_PEPKc>
    115c:	c0 e0       	ldi	r28, 0x00	; 0
    115e:	d0 e0       	ldi	r29, 0x00	; 0
		// 
		for (uint8_t i=0; i<5; i++) { ns_rs232::DigitZ(8, times[i][1] ); ns_rs232::SendByte(' '); }
    1160:	fe 01       	movw	r30, r28
    1162:	ee 0f       	add	r30, r30
    1164:	ff 1f       	adc	r31, r31
    1166:	ee 0f       	add	r30, r30
    1168:	ff 1f       	adc	r31, r31
    116a:	ee 0f       	add	r30, r30
    116c:	ff 1f       	adc	r31, r31
    116e:	ed 5a       	subi	r30, 0xAD	; 173
    1170:	fe 4f       	sbci	r31, 0xFE	; 254
    1172:	44 81       	ldd	r20, Z+4	; 0x04
    1174:	55 81       	ldd	r21, Z+5	; 0x05
    1176:	66 81       	ldd	r22, Z+6	; 0x06
    1178:	77 81       	ldd	r23, Z+7	; 0x07
    117a:	88 e0       	ldi	r24, 0x08	; 8
    117c:	0e 94 3b 2f 	call	0x5e76	; 0x5e76 <_ZN8ns_rs2326DigitZEhl>
    1180:	80 e2       	ldi	r24, 0x20	; 32
    1182:	0e 94 fc 2e 	call	0x5df8	; 0x5df8 <_ZN8ns_rs2328SendByteEh>
    1186:	21 96       	adiw	r28, 0x01	; 1
    1188:	c5 30       	cpi	r28, 0x05	; 5
    118a:	d1 05       	cpc	r29, r1
    118c:	49 f7       	brne	.-46     	; 0x1160 <__stack+0x61>
		ns_rs232::String_P(PSTR("\r\nsqBase=") );
    118e:	81 ec       	ldi	r24, 0xC1	; 193
    1190:	90 e0       	ldi	r25, 0x00	; 0
    1192:	0e 94 2b 2f 	call	0x5e56	; 0x5e56 <_ZN8ns_rs2328String_PEPKc>
		//uint8_t sqB;
		if (sqBas<0)
    1196:	dd 20       	and	r13, r13
    1198:	8c f4       	brge	.+34     	; 0x11bc <__stack+0xbd>
		{
			ns_rs232::SendByte('-');
    119a:	8d e2       	ldi	r24, 0x2D	; 45
    119c:	0e 94 fc 2e 	call	0x5df8	; 0x5df8 <_ZN8ns_rs2328SendByteEh>
			ns_rs232::DigitZ(2, -sqBas);
    11a0:	8d 2d       	mov	r24, r13
    11a2:	99 27       	eor	r25, r25
    11a4:	81 95       	neg	r24
    11a6:	0c f4       	brge	.+2      	; 0x11aa <__stack+0xab>
    11a8:	90 95       	com	r25
    11aa:	ac 01       	movw	r20, r24
    11ac:	05 2e       	mov	r0, r21
    11ae:	00 0c       	add	r0, r0
    11b0:	66 0b       	sbc	r22, r22
    11b2:	77 0b       	sbc	r23, r23
    11b4:	82 e0       	ldi	r24, 0x02	; 2
    11b6:	0e 94 3b 2f 	call	0x5e76	; 0x5e76 <_ZN8ns_rs2326DigitZEhl>
    11ba:	0b c0       	rjmp	.+22     	; 0x11d2 <__stack+0xd3>
			//sqB = -sqBas;
		}
		else
		{
			ns_rs232::SendByte(' ');
    11bc:	80 e2       	ldi	r24, 0x20	; 32
    11be:	0e 94 fc 2e 	call	0x5df8	; 0x5df8 <_ZN8ns_rs2328SendByteEh>
			ns_rs232::DigitZ(2, sqBas);
    11c2:	4d 2d       	mov	r20, r13
    11c4:	dd 0c       	add	r13, r13
    11c6:	55 0b       	sbc	r21, r21
    11c8:	66 0b       	sbc	r22, r22
    11ca:	77 0b       	sbc	r23, r23
    11cc:	82 e0       	ldi	r24, 0x02	; 2
    11ce:	0e 94 3b 2f 	call	0x5e76	; 0x5e76 <_ZN8ns_rs2326DigitZEhl>
			//sqB = sqBas;
		}
		ns_rs232::String_P(PSTR(" exN="));
    11d2:	8b eb       	ldi	r24, 0xBB	; 187
    11d4:	90 e0       	ldi	r25, 0x00	; 0
    11d6:	0e 94 2b 2f 	call	0x5e56	; 0x5e56 <_ZN8ns_rs2328String_PEPKc>
		ns_rs232::DigitZ(2, ns_vg::exN);
    11da:	40 91 01 02 	lds	r20, 0x0201	; 0x800201 <_ZN5ns_vg3exNE>
    11de:	50 e0       	ldi	r21, 0x00	; 0
    11e0:	60 e0       	ldi	r22, 0x00	; 0
    11e2:	70 e0       	ldi	r23, 0x00	; 0
    11e4:	82 e0       	ldi	r24, 0x02	; 2
    11e6:	0e 94 3b 2f 	call	0x5e76	; 0x5e76 <_ZN8ns_rs2326DigitZEhl>
		ns_rs232::String_P(PSTR(" SpeedCor="));
    11ea:	80 eb       	ldi	r24, 0xB0	; 176
    11ec:	90 e0       	ldi	r25, 0x00	; 0
    11ee:	0e 94 2b 2f 	call	0x5e56	; 0x5e56 <_ZN8ns_rs2328String_PEPKc>
		ns_rs232::DigitZ(4, (int8_t)eeprom_read_byte(&ns_vg::eeCorSpeed) );
    11f2:	8e ee       	ldi	r24, 0xEE	; 238
    11f4:	9c e0       	ldi	r25, 0x0C	; 12
    11f6:	0e 94 db 32 	call	0x65b6	; 0x65b6 <eeprom_read_byte>
    11fa:	48 2f       	mov	r20, r24
    11fc:	88 0f       	add	r24, r24
    11fe:	55 0b       	sbc	r21, r21
    1200:	66 0b       	sbc	r22, r22
    1202:	77 0b       	sbc	r23, r23
    1204:	84 e0       	ldi	r24, 0x04	; 4
    1206:	0e 94 3b 2f 	call	0x5e76	; 0x5e76 <_ZN8ns_rs2326DigitZEhl>
		ns_rs232::String_P(PSTR(" Base="));
    120a:	89 ea       	ldi	r24, 0xA9	; 169
    120c:	90 e0       	ldi	r25, 0x00	; 0
    120e:	0e 94 2b 2f 	call	0x5e56	; 0x5e56 <_ZN8ns_rs2328String_PEPKc>
		ns_rs232::DigitZ(5, base);
    1212:	a7 01       	movw	r20, r14
    1214:	60 e0       	ldi	r22, 0x00	; 0
    1216:	70 e0       	ldi	r23, 0x00	; 0
    1218:	85 e0       	ldi	r24, 0x05	; 5
    121a:	0e 94 3b 2f 	call	0x5e76	; 0x5e76 <_ZN8ns_rs2326DigitZEhl>
		ns_rs232::String_P(PSTR(" exL="));
    121e:	83 ea       	ldi	r24, 0xA3	; 163
    1220:	90 e0       	ldi	r25, 0x00	; 0
    1222:	0e 94 2b 2f 	call	0x5e56	; 0x5e56 <_ZN8ns_rs2328String_PEPKc>
		ns_rs232::DigitZ(5, exL);
    1226:	a8 01       	movw	r20, r16
    1228:	60 e0       	ldi	r22, 0x00	; 0
    122a:	70 e0       	ldi	r23, 0x00	; 0
    122c:	85 e0       	ldi	r24, 0x05	; 5
    122e:	0e 94 3b 2f 	call	0x5e76	; 0x5e76 <_ZN8ns_rs2326DigitZEhl>

		//
		ns_rs232::String_P(PSTR("\r\n") );
    1232:	80 ea       	ldi	r24, 0xA0	; 160
    1234:	90 e0       	ldi	r25, 0x00	; 0
    1236:	0e 94 2b 2f 	call	0x5e56	; 0x5e56 <_ZN8ns_rs2328String_PEPKc>
		ns_rs232::String_P(PSTR("\r\n") );
    123a:	8d e9       	ldi	r24, 0x9D	; 157
    123c:	90 e0       	ldi	r25, 0x00	; 0
    123e:	0e 94 2b 2f 	call	0x5e56	; 0x5e56 <_ZN8ns_rs2328String_PEPKc>
	}
    1242:	df 91       	pop	r29
    1244:	cf 91       	pop	r28
    1246:	1f 91       	pop	r17
    1248:	0f 91       	pop	r16
    124a:	ff 90       	pop	r15
    124c:	ef 90       	pop	r14
    124e:	df 90       	pop	r13
    1250:	bf 90       	pop	r11
    1252:	af 90       	pop	r10
    1254:	08 95       	ret

00001256 <_ZN7ns_line6RenderEPjPa>:
	//
	uint8_t Render(uint16_t* dlina, int8_t* sqBas)
	{
    1256:	2f 92       	push	r2
    1258:	3f 92       	push	r3
    125a:	4f 92       	push	r4
    125c:	5f 92       	push	r5
    125e:	6f 92       	push	r6
    1260:	7f 92       	push	r7
    1262:	8f 92       	push	r8
    1264:	9f 92       	push	r9
    1266:	af 92       	push	r10
    1268:	bf 92       	push	r11
    126a:	cf 92       	push	r12
    126c:	df 92       	push	r13
    126e:	ef 92       	push	r14
    1270:	ff 92       	push	r15
    1272:	0f 93       	push	r16
    1274:	1f 93       	push	r17
    1276:	cf 93       	push	r28
    1278:	df 93       	push	r29
    127a:	cd b7       	in	r28, 0x3d	; 61
    127c:	de b7       	in	r29, 0x3e	; 62
    127e:	e6 97       	sbiw	r28, 0x36	; 54
    1280:	0f b6       	in	r0, 0x3f	; 63
    1282:	f8 94       	cli
    1284:	de bf       	out	0x3e, r29	; 62
    1286:	0f be       	out	0x3f, r0	; 63
    1288:	cd bf       	out	0x3d, r28	; 61
		if (mode != 0) return 0; // no render mode
    128a:	b0 90 10 01 	lds	r11, 0x0110	; 0x800110 <_ZN7ns_line4modeE>
    128e:	b1 10       	cpse	r11, r1
    1290:	9d c7       	rjmp	.+3898   	; 0x21cc <_ZN7ns_line6RenderEPjPa+0xf76>
    1292:	3b 01       	movw	r6, r22
    1294:	4c 01       	movw	r8, r24
    1296:	0f 2e       	mov	r0, r31
    1298:	f3 ef       	ldi	r31, 0xF3	; 243
    129a:	ef 2e       	mov	r14, r31
    129c:	fc e0       	ldi	r31, 0x0C	; 12
    129e:	ff 2e       	mov	r15, r31
    12a0:	f0 2d       	mov	r31, r0
    12a2:	06 e0       	ldi	r16, 0x06	; 6
    12a4:	11 e0       	ldi	r17, 0x01	; 1
    12a6:	0f 2e       	mov	r0, r31
    12a8:	f0 e1       	ldi	r31, 0x10	; 16
    12aa:	cf 2e       	mov	r12, r31
    12ac:	f1 e0       	ldi	r31, 0x01	; 1
    12ae:	df 2e       	mov	r13, r31
    12b0:	f0 2d       	mov	r31, r0
		
		// load distance
		for (uint8_t i=0; i<5; i++)
			distance[i] = eeprom_read_word(&ns_vg::eeDistance[i]);
    12b2:	c7 01       	movw	r24, r14
    12b4:	0e 94 e3 32 	call	0x65c6	; 0x65c6 <eeprom_read_word>
    12b8:	d8 01       	movw	r26, r16
    12ba:	8d 93       	st	X+, r24
    12bc:	9d 93       	st	X+, r25
    12be:	8d 01       	movw	r16, r26
    12c0:	b2 e0       	ldi	r27, 0x02	; 2
    12c2:	eb 0e       	add	r14, r27
    12c4:	f1 1c       	adc	r15, r1
	uint8_t Render(uint16_t* dlina, int8_t* sqBas)
	{
		if (mode != 0) return 0; // no render mode
		
		// load distance
		for (uint8_t i=0; i<5; i++)
    12c6:	0c 15       	cp	r16, r12
    12c8:	1d 05       	cpc	r17, r13
    12ca:	99 f7       	brne	.-26     	; 0x12b2 <_ZN7ns_line6RenderEPjPa+0x5c>
		volatile uint16_t	exLen;
		volatile uint16_t  sampleD;
		volatile uint32_t sampleT;
		volatile uint32_t extendT;
		// sample for render (d1-d2)
		sampleD = distance[1] - distance[0] + (int8_t)( eeprom_read_byte(&ns_vg::eeCorSpeed) );
    12cc:	e6 e0       	ldi	r30, 0x06	; 6
    12ce:	f1 e0       	ldi	r31, 0x01	; 1
    12d0:	e2 80       	ldd	r14, Z+2	; 0x02
    12d2:	f3 80       	ldd	r15, Z+3	; 0x03
    12d4:	c0 80       	ld	r12, Z
    12d6:	d1 80       	ldd	r13, Z+1	; 0x01
    12d8:	87 01       	movw	r16, r14
    12da:	0c 19       	sub	r16, r12
    12dc:	1d 09       	sbc	r17, r13
    12de:	8e ee       	ldi	r24, 0xEE	; 238
    12e0:	9c e0       	ldi	r25, 0x0C	; 12
    12e2:	0e 94 db 32 	call	0x65b6	; 0x65b6 <eeprom_read_byte>
    12e6:	08 0f       	add	r16, r24
    12e8:	11 1d       	adc	r17, r1
    12ea:	87 fd       	sbrc	r24, 7
    12ec:	1a 95       	dec	r17
    12ee:	1e a3       	std	Y+38, r17	; 0x26
    12f0:	0d a3       	std	Y+37, r16	; 0x25
		sampleT = times[1][1] - times[0][1];
    12f2:	e3 e5       	ldi	r30, 0x53	; 83
    12f4:	f1 e0       	ldi	r31, 0x01	; 1
    12f6:	84 85       	ldd	r24, Z+12	; 0x0c
    12f8:	95 85       	ldd	r25, Z+13	; 0x0d
    12fa:	a6 85       	ldd	r26, Z+14	; 0x0e
    12fc:	b7 85       	ldd	r27, Z+15	; 0x0f
    12fe:	44 81       	ldd	r20, Z+4	; 0x04
    1300:	55 81       	ldd	r21, Z+5	; 0x05
    1302:	66 81       	ldd	r22, Z+6	; 0x06
    1304:	77 81       	ldd	r23, Z+7	; 0x07
    1306:	84 1b       	sub	r24, r20
    1308:	95 0b       	sbc	r25, r21
    130a:	a6 0b       	sbc	r26, r22
    130c:	b7 0b       	sbc	r27, r23
    130e:	89 a3       	std	Y+33, r24	; 0x21
    1310:	9a a3       	std	Y+34, r25	; 0x22
    1312:	ab a3       	std	Y+35, r26	; 0x23
    1314:	bc a3       	std	Y+36, r27	; 0x24
		//
		if ( times[2][0] >= times[1][1] )
    1316:	40 89       	ldd	r20, Z+16	; 0x10
    1318:	51 89       	ldd	r21, Z+17	; 0x11
    131a:	62 89       	ldd	r22, Z+18	; 0x12
    131c:	73 89       	ldd	r23, Z+19	; 0x13
    131e:	84 85       	ldd	r24, Z+12	; 0x0c
    1320:	95 85       	ldd	r25, Z+13	; 0x0d
    1322:	a6 85       	ldd	r26, Z+14	; 0x0e
    1324:	b7 85       	ldd	r27, Z+15	; 0x0f
    1326:	48 17       	cp	r20, r24
    1328:	59 07       	cpc	r21, r25
    132a:	6a 07       	cpc	r22, r26
    132c:	7b 07       	cpc	r23, r27
    132e:	08 f4       	brcc	.+2      	; 0x1332 <_ZN7ns_line6RenderEPjPa+0xdc>
    1330:	83 c0       	rjmp	.+262    	; 0x1438 <_ZN7ns_line6RenderEPjPa+0x1e2>
		{	// tube small d2-d3
			base = distance[2] - distance[1];
    1332:	80 91 0a 01 	lds	r24, 0x010A	; 0x80010a <_ZN7ns_line8distanceE+0x4>
    1336:	90 91 0b 01 	lds	r25, 0x010B	; 0x80010b <_ZN7ns_line8distanceE+0x5>
    133a:	8e 19       	sub	r24, r14
    133c:	9f 09       	sbc	r25, r15
    133e:	9a a7       	std	Y+42, r25	; 0x2a
    1340:	89 a7       	std	Y+41, r24	; 0x29
			extendT = times[2][0] - times[1][1]; // !!! time < 0
    1342:	80 89       	ldd	r24, Z+16	; 0x10
    1344:	91 89       	ldd	r25, Z+17	; 0x11
    1346:	a2 89       	ldd	r26, Z+18	; 0x12
    1348:	b3 89       	ldd	r27, Z+19	; 0x13
    134a:	44 85       	ldd	r20, Z+12	; 0x0c
    134c:	55 85       	ldd	r21, Z+13	; 0x0d
    134e:	66 85       	ldd	r22, Z+14	; 0x0e
    1350:	77 85       	ldd	r23, Z+15	; 0x0f
    1352:	84 1b       	sub	r24, r20
    1354:	95 0b       	sbc	r25, r21
    1356:	a6 0b       	sbc	r26, r22
    1358:	b7 0b       	sbc	r27, r23
    135a:	8d 8f       	std	Y+29, r24	; 0x1d
    135c:	9e 8f       	std	Y+30, r25	; 0x1e
    135e:	af 8f       	std	Y+31, r26	; 0x1f
    1360:	b8 a3       	std	Y+32, r27	; 0x20
			exLen = (uint16_t)( ((uint64_t)extendT) * ((uint64_t)sampleD) / ((uint64_t)sampleT) );
    1362:	0d 8d       	ldd	r16, Y+29	; 0x1d
    1364:	1e 8d       	ldd	r17, Y+30	; 0x1e
    1366:	2f 8d       	ldd	r18, Y+31	; 0x1f
    1368:	38 a1       	ldd	r19, Y+32	; 0x20
    136a:	ed a1       	ldd	r30, Y+37	; 0x25
    136c:	fe a1       	ldd	r31, Y+38	; 0x26
    136e:	29 a0       	ldd	r2, Y+33	; 0x21
    1370:	3a a0       	ldd	r3, Y+34	; 0x22
    1372:	4b a0       	ldd	r4, Y+35	; 0x23
    1374:	5c a0       	ldd	r5, Y+36	; 0x24
    1376:	af 01       	movw	r20, r30
    1378:	60 e0       	ldi	r22, 0x00	; 0
    137a:	70 e0       	ldi	r23, 0x00	; 0
    137c:	80 e0       	ldi	r24, 0x00	; 0
    137e:	90 e0       	ldi	r25, 0x00	; 0
    1380:	dc 01       	movw	r26, r24
    1382:	ec a7       	std	Y+44, r30	; 0x2c
    1384:	5d a7       	std	Y+45, r21	; 0x2d
    1386:	6e a7       	std	Y+46, r22	; 0x2e
    1388:	7f a7       	std	Y+47, r23	; 0x2f
    138a:	88 ab       	std	Y+48, r24	; 0x30
    138c:	99 ab       	std	Y+49, r25	; 0x31
    138e:	aa ab       	std	Y+50, r26	; 0x32
    1390:	bb ab       	std	Y+51, r27	; 0x33
    1392:	a0 2e       	mov	r10, r16
    1394:	b1 2e       	mov	r11, r17
    1396:	c2 2e       	mov	r12, r18
    1398:	d3 2e       	mov	r13, r19
    139a:	e1 2c       	mov	r14, r1
    139c:	f1 2c       	mov	r15, r1
    139e:	00 e0       	ldi	r16, 0x00	; 0
    13a0:	10 e0       	ldi	r17, 0x00	; 0
    13a2:	2c a5       	ldd	r18, Y+44	; 0x2c
    13a4:	3d a5       	ldd	r19, Y+45	; 0x2d
    13a6:	40 e0       	ldi	r20, 0x00	; 0
    13a8:	50 e0       	ldi	r21, 0x00	; 0
    13aa:	60 e0       	ldi	r22, 0x00	; 0
    13ac:	70 e0       	ldi	r23, 0x00	; 0
    13ae:	80 e0       	ldi	r24, 0x00	; 0
    13b0:	90 e0       	ldi	r25, 0x00	; 0
    13b2:	0e 94 4d 30 	call	0x609a	; 0x609a <__muldi3>
    13b6:	62 01       	movw	r12, r4
    13b8:	51 01       	movw	r10, r2
    13ba:	e1 2c       	mov	r14, r1
    13bc:	f1 2c       	mov	r15, r1
    13be:	87 01       	movw	r16, r14
    13c0:	2c a6       	std	Y+44, r2	; 0x2c
    13c2:	bd a6       	std	Y+45, r11	; 0x2d
    13c4:	ce a6       	std	Y+46, r12	; 0x2e
    13c6:	df a6       	std	Y+47, r13	; 0x2f
    13c8:	e8 aa       	std	Y+48, r14	; 0x30
    13ca:	f9 aa       	std	Y+49, r15	; 0x31
    13cc:	0a ab       	std	Y+50, r16	; 0x32
    13ce:	1b ab       	std	Y+51, r17	; 0x33
    13d0:	e1 2c       	mov	r14, r1
    13d2:	f1 2c       	mov	r15, r1
    13d4:	00 e0       	ldi	r16, 0x00	; 0
    13d6:	10 e0       	ldi	r17, 0x00	; 0
    13d8:	0e 94 a0 30 	call	0x6140	; 0x6140 <__udivdi3>
    13dc:	82 2f       	mov	r24, r18
    13de:	93 2f       	mov	r25, r19
    13e0:	98 a7       	std	Y+40, r25	; 0x28
    13e2:	8f a3       	std	Y+39, r24	; 0x27
			*dlina = base - exLen;
    13e4:	89 a5       	ldd	r24, Y+41	; 0x29
    13e6:	9a a5       	ldd	r25, Y+42	; 0x2a
    13e8:	2f a1       	ldd	r18, Y+39	; 0x27
    13ea:	38 a5       	ldd	r19, Y+40	; 0x28
    13ec:	82 1b       	sub	r24, r18
    13ee:	93 0b       	sbc	r25, r19
    13f0:	d4 01       	movw	r26, r8
    13f2:	11 96       	adiw	r26, 0x01	; 1
    13f4:	9c 93       	st	X, r25
    13f6:	8e 93       	st	-X, r24
			ns_vg::lenTubuStat = 1;
    13f8:	11 e0       	ldi	r17, 0x01	; 1
    13fa:	10 93 03 02 	sts	0x0203, r17	; 0x800203 <_ZN5ns_vg11lenTubuStatE>
			ns_vg::exN = 8;
    13fe:	88 e0       	ldi	r24, 0x08	; 8
    1400:	80 93 01 02 	sts	0x0201, r24	; 0x800201 <_ZN5ns_vg3exNE>
			ns_vg::lenTubuExl = -exLen;
    1404:	8f a1       	ldd	r24, Y+39	; 0x27
    1406:	98 a5       	ldd	r25, Y+40	; 0x28
    1408:	91 95       	neg	r25
    140a:	81 95       	neg	r24
    140c:	91 09       	sbc	r25, r1
    140e:	90 93 06 02 	sts	0x0206, r25	; 0x800206 <_ZN5ns_vg10lenTubuExlE+0x1>
    1412:	80 93 05 02 	sts	0x0205, r24	; 0x800205 <_ZN5ns_vg10lenTubuExlE>
			*sqBas = -12;
    1416:	84 ef       	ldi	r24, 0xF4	; 244
    1418:	f3 01       	movw	r30, r6
    141a:	80 83       	st	Z, r24
			sendTele(*dlina, *sqBas, base, exLen);
    141c:	2f a1       	ldd	r18, Y+39	; 0x27
    141e:	38 a5       	ldd	r19, Y+40	; 0x28
    1420:	49 a5       	ldd	r20, Y+41	; 0x29
    1422:	5a a5       	ldd	r21, Y+42	; 0x2a
    1424:	64 ef       	ldi	r22, 0xF4	; 244
    1426:	8d 91       	ld	r24, X+
    1428:	9c 91       	ld	r25, X
    142a:	35 de       	rcall	.-918    	; 0x1096 <_ZN7ns_line8sendTeleEjajj>
			mode = 1;
    142c:	10 93 10 01 	sts	0x0110, r17	; 0x800110 <_ZN7ns_line4modeE>
			return 1;
    1430:	bb 24       	eor	r11, r11
    1432:	b3 94       	inc	r11
    1434:	0c 94 d8 12 	jmp	0x25b0	; 0x25b0 <_ZN7ns_line6RenderEPjPa+0x135a>
		}
		else
		if ( (times[0][1] >= times[4][0]) && (times[4][0] != 0) )
    1438:	e3 e5       	ldi	r30, 0x53	; 83
    143a:	f1 e0       	ldi	r31, 0x01	; 1
    143c:	44 81       	ldd	r20, Z+4	; 0x04
    143e:	55 81       	ldd	r21, Z+5	; 0x05
    1440:	66 81       	ldd	r22, Z+6	; 0x06
    1442:	77 81       	ldd	r23, Z+7	; 0x07
    1444:	80 a1       	ldd	r24, Z+32	; 0x20
    1446:	91 a1       	ldd	r25, Z+33	; 0x21
    1448:	a2 a1       	ldd	r26, Z+34	; 0x22
    144a:	b3 a1       	ldd	r27, Z+35	; 0x23
    144c:	48 17       	cp	r20, r24
    144e:	59 07       	cpc	r21, r25
    1450:	6a 07       	cpc	r22, r26
    1452:	7b 07       	cpc	r23, r27
    1454:	08 f4       	brcc	.+2      	; 0x1458 <_ZN7ns_line6RenderEPjPa+0x202>
    1456:	42 c7       	rjmp	.+3716   	; 0x22dc <_ZN7ns_line6RenderEPjPa+0x1086>
    1458:	80 91 73 01 	lds	r24, 0x0173	; 0x800173 <_ZN7ns_line5timesE+0x20>
    145c:	90 91 74 01 	lds	r25, 0x0174	; 0x800174 <_ZN7ns_line5timesE+0x21>
    1460:	a0 91 75 01 	lds	r26, 0x0175	; 0x800175 <_ZN7ns_line5timesE+0x22>
    1464:	b0 91 76 01 	lds	r27, 0x0176	; 0x800176 <_ZN7ns_line5timesE+0x23>
    1468:	89 2b       	or	r24, r25
    146a:	8a 2b       	or	r24, r26
    146c:	8b 2b       	or	r24, r27
    146e:	09 f0       	breq	.+2      	; 0x1472 <_ZN7ns_line6RenderEPjPa+0x21c>
    1470:	af c6       	rjmp	.+3422   	; 0x21d0 <_ZN7ns_line6RenderEPjPa+0xf7a>
    1472:	34 c7       	rjmp	.+3688   	; 0x22dc <_ZN7ns_line6RenderEPjPa+0x1086>
		else
		{
			// find right sensor
			for (n = 2; n < 4; n++)
			{
				if ( times[n+1][0] == 0)
    1474:	eb a5       	ldd	r30, Y+43	; 0x2b
    1476:	f0 e0       	ldi	r31, 0x00	; 0
    1478:	ee 0f       	add	r30, r30
    147a:	ff 1f       	adc	r31, r31
    147c:	ee 0f       	add	r30, r30
    147e:	ff 1f       	adc	r31, r31
    1480:	ee 0f       	add	r30, r30
    1482:	ff 1f       	adc	r31, r31
    1484:	e5 5a       	subi	r30, 0xA5	; 165
    1486:	fe 4f       	sbci	r31, 0xFE	; 254
    1488:	80 81       	ld	r24, Z
    148a:	91 81       	ldd	r25, Z+1	; 0x01
    148c:	a2 81       	ldd	r26, Z+2	; 0x02
    148e:	b3 81       	ldd	r27, Z+3	; 0x03
    1490:	89 2b       	or	r24, r25
    1492:	8a 2b       	or	r24, r26
    1494:	8b 2b       	or	r24, r27
    1496:	a9 f0       	breq	.+42     	; 0x14c2 <_ZN7ns_line6RenderEPjPa+0x26c>
				{
					n--;
					break;
				}
				if ( (times[1][1] >= times[n][0]) && (times[1][1] < times[n+1][0]) )
    1498:	a3 e5       	ldi	r26, 0x53	; 83
    149a:	b1 e0       	ldi	r27, 0x01	; 1
    149c:	16 c0       	rjmp	.+44     	; 0x14ca <_ZN7ns_line6RenderEPjPa+0x274>
		else
		{
			// find right sensor
			for (n = 2; n < 4; n++)
			{
				if ( times[n+1][0] == 0)
    149e:	eb a5       	ldd	r30, Y+43	; 0x2b
    14a0:	f0 e0       	ldi	r31, 0x00	; 0
    14a2:	ee 0f       	add	r30, r30
    14a4:	ff 1f       	adc	r31, r31
    14a6:	ee 0f       	add	r30, r30
    14a8:	ff 1f       	adc	r31, r31
    14aa:	ee 0f       	add	r30, r30
    14ac:	ff 1f       	adc	r31, r31
    14ae:	e5 5a       	subi	r30, 0xA5	; 165
    14b0:	fe 4f       	sbci	r31, 0xFE	; 254
    14b2:	40 81       	ld	r20, Z
    14b4:	51 81       	ldd	r21, Z+1	; 0x01
    14b6:	62 81       	ldd	r22, Z+2	; 0x02
    14b8:	73 81       	ldd	r23, Z+3	; 0x03
    14ba:	45 2b       	or	r20, r21
    14bc:	46 2b       	or	r20, r22
    14be:	47 2b       	or	r20, r23
    14c0:	21 f4       	brne	.+8      	; 0x14ca <_ZN7ns_line6RenderEPjPa+0x274>
				{
					n--;
    14c2:	8b a5       	ldd	r24, Y+43	; 0x2b
    14c4:	81 50       	subi	r24, 0x01	; 1
    14c6:	8b a7       	std	Y+43, r24	; 0x2b
					break;
    14c8:	0f c7       	rjmp	.+3614   	; 0x22e8 <_ZN7ns_line6RenderEPjPa+0x1092>
				}
				if ( (times[1][1] >= times[n][0]) && (times[1][1] < times[n+1][0]) )
    14ca:	1c 96       	adiw	r26, 0x0c	; 12
    14cc:	0d 91       	ld	r16, X+
    14ce:	1d 91       	ld	r17, X+
    14d0:	2d 91       	ld	r18, X+
    14d2:	3c 91       	ld	r19, X
    14d4:	1f 97       	sbiw	r26, 0x0f	; 15
    14d6:	eb a5       	ldd	r30, Y+43	; 0x2b
    14d8:	f0 e0       	ldi	r31, 0x00	; 0
    14da:	ee 0f       	add	r30, r30
    14dc:	ff 1f       	adc	r31, r31
    14de:	ee 0f       	add	r30, r30
    14e0:	ff 1f       	adc	r31, r31
    14e2:	ee 0f       	add	r30, r30
    14e4:	ff 1f       	adc	r31, r31
    14e6:	ed 5a       	subi	r30, 0xAD	; 173
    14e8:	fe 4f       	sbci	r31, 0xFE	; 254
    14ea:	40 81       	ld	r20, Z
    14ec:	51 81       	ldd	r21, Z+1	; 0x01
    14ee:	62 81       	ldd	r22, Z+2	; 0x02
    14f0:	73 81       	ldd	r23, Z+3	; 0x03
    14f2:	04 17       	cp	r16, r20
    14f4:	15 07       	cpc	r17, r21
    14f6:	26 07       	cpc	r18, r22
    14f8:	37 07       	cpc	r19, r23
    14fa:	08 f4       	brcc	.+2      	; 0x14fe <_ZN7ns_line6RenderEPjPa+0x2a8>
    14fc:	01 c7       	rjmp	.+3586   	; 0x2300 <_ZN7ns_line6RenderEPjPa+0x10aa>
    14fe:	1c 96       	adiw	r26, 0x0c	; 12
    1500:	0d 91       	ld	r16, X+
    1502:	1d 91       	ld	r17, X+
    1504:	2d 91       	ld	r18, X+
    1506:	3c 91       	ld	r19, X
    1508:	1f 97       	sbiw	r26, 0x0f	; 15
    150a:	eb a5       	ldd	r30, Y+43	; 0x2b
    150c:	f0 e0       	ldi	r31, 0x00	; 0
    150e:	ee 0f       	add	r30, r30
    1510:	ff 1f       	adc	r31, r31
    1512:	ee 0f       	add	r30, r30
    1514:	ff 1f       	adc	r31, r31
    1516:	ee 0f       	add	r30, r30
    1518:	ff 1f       	adc	r31, r31
    151a:	e5 5a       	subi	r30, 0xA5	; 165
    151c:	fe 4f       	sbci	r31, 0xFE	; 254
    151e:	40 81       	ld	r20, Z
    1520:	51 81       	ldd	r21, Z+1	; 0x01
    1522:	62 81       	ldd	r22, Z+2	; 0x02
    1524:	73 81       	ldd	r23, Z+3	; 0x03
    1526:	04 17       	cp	r16, r20
    1528:	15 07       	cpc	r17, r21
    152a:	26 07       	cpc	r18, r22
    152c:	37 07       	cpc	r19, r23
    152e:	08 f0       	brcs	.+2      	; 0x1532 <_ZN7ns_line6RenderEPjPa+0x2dc>
    1530:	e7 c6       	rjmp	.+3534   	; 0x2300 <_ZN7ns_line6RenderEPjPa+0x10aa>
    1532:	da c6       	rjmp	.+3508   	; 0x22e8 <_ZN7ns_line6RenderEPjPa+0x1092>
					break;
			}
			
			uint32_t ex[7];
			for (uint8_t i=0; i<7; i++) ex[i] = 99999;
    1534:	81 93       	st	Z+, r24
    1536:	91 93       	st	Z+, r25
    1538:	a1 93       	st	Z+, r26
    153a:	b1 93       	st	Z+, r27
    153c:	e2 17       	cp	r30, r18
    153e:	f3 07       	cpc	r31, r19
    1540:	c9 f7       	brne	.-14     	; 0x1534 <_ZN7ns_line6RenderEPjPa+0x2de>
			uint8_t exN;
			
			// render all metod
			
			if ( (times[n][0] > times[0][1]) && (times[n][0] != 0) && (n < 5) )
    1542:	eb a5       	ldd	r30, Y+43	; 0x2b
    1544:	f0 e0       	ldi	r31, 0x00	; 0
    1546:	ee 0f       	add	r30, r30
    1548:	ff 1f       	adc	r31, r31
    154a:	ee 0f       	add	r30, r30
    154c:	ff 1f       	adc	r31, r31
    154e:	ee 0f       	add	r30, r30
    1550:	ff 1f       	adc	r31, r31
    1552:	ed 5a       	subi	r30, 0xAD	; 173
    1554:	fe 4f       	sbci	r31, 0xFE	; 254
    1556:	40 81       	ld	r20, Z
    1558:	51 81       	ldd	r21, Z+1	; 0x01
    155a:	62 81       	ldd	r22, Z+2	; 0x02
    155c:	73 81       	ldd	r23, Z+3	; 0x03
    155e:	80 91 57 01 	lds	r24, 0x0157	; 0x800157 <_ZN7ns_line5timesE+0x4>
    1562:	90 91 58 01 	lds	r25, 0x0158	; 0x800158 <_ZN7ns_line5timesE+0x5>
    1566:	a0 91 59 01 	lds	r26, 0x0159	; 0x800159 <_ZN7ns_line5timesE+0x6>
    156a:	b0 91 5a 01 	lds	r27, 0x015A	; 0x80015a <_ZN7ns_line5timesE+0x7>
    156e:	84 17       	cp	r24, r20
    1570:	95 07       	cpc	r25, r21
    1572:	a6 07       	cpc	r26, r22
    1574:	b7 07       	cpc	r27, r23
    1576:	08 f0       	brcs	.+2      	; 0x157a <_ZN7ns_line6RenderEPjPa+0x324>
    1578:	f2 c6       	rjmp	.+3556   	; 0x235e <_ZN7ns_line6RenderEPjPa+0x1108>
    157a:	eb a5       	ldd	r30, Y+43	; 0x2b
    157c:	f0 e0       	ldi	r31, 0x00	; 0
    157e:	ee 0f       	add	r30, r30
    1580:	ff 1f       	adc	r31, r31
    1582:	ee 0f       	add	r30, r30
    1584:	ff 1f       	adc	r31, r31
    1586:	ee 0f       	add	r30, r30
    1588:	ff 1f       	adc	r31, r31
    158a:	ed 5a       	subi	r30, 0xAD	; 173
    158c:	fe 4f       	sbci	r31, 0xFE	; 254
    158e:	80 81       	ld	r24, Z
    1590:	91 81       	ldd	r25, Z+1	; 0x01
    1592:	a2 81       	ldd	r26, Z+2	; 0x02
    1594:	b3 81       	ldd	r27, Z+3	; 0x03
    1596:	89 2b       	or	r24, r25
    1598:	8a 2b       	or	r24, r26
    159a:	8b 2b       	or	r24, r27
    159c:	09 f4       	brne	.+2      	; 0x15a0 <_ZN7ns_line6RenderEPjPa+0x34a>
    159e:	df c6       	rjmp	.+3518   	; 0x235e <_ZN7ns_line6RenderEPjPa+0x1108>
    15a0:	8b a5       	ldd	r24, Y+43	; 0x2b
    15a2:	85 30       	cpi	r24, 0x05	; 5
    15a4:	08 f4       	brcc	.+2      	; 0x15a8 <_ZN7ns_line6RenderEPjPa+0x352>
    15a6:	b4 c6       	rjmp	.+3432   	; 0x2310 <_ZN7ns_line6RenderEPjPa+0x10ba>
    15a8:	da c6       	rjmp	.+3508   	; 0x235e <_ZN7ns_line6RenderEPjPa+0x1108>
						extendT = times[n][0] - times[0][1];		// 1920 = -20	base[n-0]		- ex	:	n-0
						ex[0] = extendT;
					}
			else    ex[0] = 99999;
			
			if ( (times[0][1] >= times[n][0]) && (times[n][0] != 0) && (n < 5) )
    15aa:	40 91 57 01 	lds	r20, 0x0157	; 0x800157 <_ZN7ns_line5timesE+0x4>
    15ae:	50 91 58 01 	lds	r21, 0x0158	; 0x800158 <_ZN7ns_line5timesE+0x5>
    15b2:	60 91 59 01 	lds	r22, 0x0159	; 0x800159 <_ZN7ns_line5timesE+0x6>
    15b6:	70 91 5a 01 	lds	r23, 0x015A	; 0x80015a <_ZN7ns_line5timesE+0x7>
    15ba:	eb a5       	ldd	r30, Y+43	; 0x2b
    15bc:	f0 e0       	ldi	r31, 0x00	; 0
    15be:	ee 0f       	add	r30, r30
    15c0:	ff 1f       	adc	r31, r31
    15c2:	ee 0f       	add	r30, r30
    15c4:	ff 1f       	adc	r31, r31
    15c6:	ee 0f       	add	r30, r30
    15c8:	ff 1f       	adc	r31, r31
    15ca:	ed 5a       	subi	r30, 0xAD	; 173
    15cc:	fe 4f       	sbci	r31, 0xFE	; 254
    15ce:	80 81       	ld	r24, Z
    15d0:	91 81       	ldd	r25, Z+1	; 0x01
    15d2:	a2 81       	ldd	r26, Z+2	; 0x02
    15d4:	b3 81       	ldd	r27, Z+3	; 0x03
    15d6:	48 17       	cp	r20, r24
    15d8:	59 07       	cpc	r21, r25
    15da:	6a 07       	cpc	r22, r26
    15dc:	7b 07       	cpc	r23, r27
    15de:	08 f4       	brcc	.+2      	; 0x15e2 <_ZN7ns_line6RenderEPjPa+0x38c>
    15e0:	ee c6       	rjmp	.+3548   	; 0x23be <_ZN7ns_line6RenderEPjPa+0x1168>
    15e2:	eb a5       	ldd	r30, Y+43	; 0x2b
    15e4:	f0 e0       	ldi	r31, 0x00	; 0
    15e6:	ee 0f       	add	r30, r30
    15e8:	ff 1f       	adc	r31, r31
    15ea:	ee 0f       	add	r30, r30
    15ec:	ff 1f       	adc	r31, r31
    15ee:	ee 0f       	add	r30, r30
    15f0:	ff 1f       	adc	r31, r31
    15f2:	ed 5a       	subi	r30, 0xAD	; 173
    15f4:	fe 4f       	sbci	r31, 0xFE	; 254
    15f6:	80 81       	ld	r24, Z
    15f8:	91 81       	ldd	r25, Z+1	; 0x01
    15fa:	a2 81       	ldd	r26, Z+2	; 0x02
    15fc:	b3 81       	ldd	r27, Z+3	; 0x03
    15fe:	89 2b       	or	r24, r25
    1600:	8a 2b       	or	r24, r26
    1602:	8b 2b       	or	r24, r27
    1604:	09 f4       	brne	.+2      	; 0x1608 <_ZN7ns_line6RenderEPjPa+0x3b2>
    1606:	db c6       	rjmp	.+3510   	; 0x23be <_ZN7ns_line6RenderEPjPa+0x1168>
    1608:	8b a5       	ldd	r24, Y+43	; 0x2b
    160a:	85 30       	cpi	r24, 0x05	; 5
    160c:	08 f4       	brcc	.+2      	; 0x1610 <_ZN7ns_line6RenderEPjPa+0x3ba>
    160e:	b0 c6       	rjmp	.+3424   	; 0x2370 <_ZN7ns_line6RenderEPjPa+0x111a>
    1610:	d6 c6       	rjmp	.+3500   	; 0x23be <_ZN7ns_line6RenderEPjPa+0x1168>
						extendT = times[0][1] - times[n][0];		// 2013 = +12	base[n-0]		+ ex	:	0-n
						ex[1] = extendT;
					}
			else	ex[1] = 99999;
			
			if ( (times[0][1] >= times[n+1][0]) && (times[n+1][0] != 0) && ((n + 1) < 5) )
    1612:	40 91 57 01 	lds	r20, 0x0157	; 0x800157 <_ZN7ns_line5timesE+0x4>
    1616:	50 91 58 01 	lds	r21, 0x0158	; 0x800158 <_ZN7ns_line5timesE+0x5>
    161a:	60 91 59 01 	lds	r22, 0x0159	; 0x800159 <_ZN7ns_line5timesE+0x6>
    161e:	70 91 5a 01 	lds	r23, 0x015A	; 0x80015a <_ZN7ns_line5timesE+0x7>
    1622:	eb a5       	ldd	r30, Y+43	; 0x2b
    1624:	f0 e0       	ldi	r31, 0x00	; 0
    1626:	ee 0f       	add	r30, r30
    1628:	ff 1f       	adc	r31, r31
    162a:	ee 0f       	add	r30, r30
    162c:	ff 1f       	adc	r31, r31
    162e:	ee 0f       	add	r30, r30
    1630:	ff 1f       	adc	r31, r31
    1632:	e5 5a       	subi	r30, 0xA5	; 165
    1634:	fe 4f       	sbci	r31, 0xFE	; 254
    1636:	80 81       	ld	r24, Z
    1638:	91 81       	ldd	r25, Z+1	; 0x01
    163a:	a2 81       	ldd	r26, Z+2	; 0x02
    163c:	b3 81       	ldd	r27, Z+3	; 0x03
    163e:	48 17       	cp	r20, r24
    1640:	59 07       	cpc	r21, r25
    1642:	6a 07       	cpc	r22, r26
    1644:	7b 07       	cpc	r23, r27
    1646:	08 f4       	brcc	.+2      	; 0x164a <_ZN7ns_line6RenderEPjPa+0x3f4>
    1648:	ea c6       	rjmp	.+3540   	; 0x241e <_ZN7ns_line6RenderEPjPa+0x11c8>
    164a:	eb a5       	ldd	r30, Y+43	; 0x2b
    164c:	f0 e0       	ldi	r31, 0x00	; 0
    164e:	ee 0f       	add	r30, r30
    1650:	ff 1f       	adc	r31, r31
    1652:	ee 0f       	add	r30, r30
    1654:	ff 1f       	adc	r31, r31
    1656:	ee 0f       	add	r30, r30
    1658:	ff 1f       	adc	r31, r31
    165a:	e5 5a       	subi	r30, 0xA5	; 165
    165c:	fe 4f       	sbci	r31, 0xFE	; 254
    165e:	80 81       	ld	r24, Z
    1660:	91 81       	ldd	r25, Z+1	; 0x01
    1662:	a2 81       	ldd	r26, Z+2	; 0x02
    1664:	b3 81       	ldd	r27, Z+3	; 0x03
    1666:	89 2b       	or	r24, r25
    1668:	8a 2b       	or	r24, r26
    166a:	8b 2b       	or	r24, r27
    166c:	09 f4       	brne	.+2      	; 0x1670 <_ZN7ns_line6RenderEPjPa+0x41a>
    166e:	d7 c6       	rjmp	.+3502   	; 0x241e <_ZN7ns_line6RenderEPjPa+0x11c8>
    1670:	8b a5       	ldd	r24, Y+43	; 0x2b
    1672:	90 e0       	ldi	r25, 0x00	; 0
    1674:	01 96       	adiw	r24, 0x01	; 1
    1676:	05 97       	sbiw	r24, 0x05	; 5
    1678:	0c f4       	brge	.+2      	; 0x167c <_ZN7ns_line6RenderEPjPa+0x426>
    167a:	aa c6       	rjmp	.+3412   	; 0x23d0 <_ZN7ns_line6RenderEPjPa+0x117a>
    167c:	d0 c6       	rjmp	.+3488   	; 0x241e <_ZN7ns_line6RenderEPjPa+0x11c8>
						extendT = times[0][1] - times[n+1][0];		// 2013 = +xx	base[(n+1)-0]	+ ex	:	0-(n+1)
						ex[5] = extendT;
					}
			else	ex[5] = 99999;

			if (eeprom_read_byte(&ns_vg::eeFlSq2))
    167e:	8d ee       	ldi	r24, 0xED	; 237
    1680:	9c e0       	ldi	r25, 0x0C	; 12
    1682:	0e 94 db 32 	call	0x65b6	; 0x65b6 <eeprom_read_byte>
    1686:	88 23       	and	r24, r24
    1688:	09 f4       	brne	.+2      	; 0x168c <_ZN7ns_line6RenderEPjPa+0x436>
    168a:	a0 c0       	rjmp	.+320    	; 0x17cc <_ZN7ns_line6RenderEPjPa+0x576>
			{
				if ( (times[1][1] >= times[n][0]) && (times[n][0] != 0) && (n < 5) )
    168c:	40 91 5f 01 	lds	r20, 0x015F	; 0x80015f <_ZN7ns_line5timesE+0xc>
    1690:	50 91 60 01 	lds	r21, 0x0160	; 0x800160 <_ZN7ns_line5timesE+0xd>
    1694:	60 91 61 01 	lds	r22, 0x0161	; 0x800161 <_ZN7ns_line5timesE+0xe>
    1698:	70 91 62 01 	lds	r23, 0x0162	; 0x800162 <_ZN7ns_line5timesE+0xf>
    169c:	eb a5       	ldd	r30, Y+43	; 0x2b
    169e:	f0 e0       	ldi	r31, 0x00	; 0
    16a0:	ee 0f       	add	r30, r30
    16a2:	ff 1f       	adc	r31, r31
    16a4:	ee 0f       	add	r30, r30
    16a6:	ff 1f       	adc	r31, r31
    16a8:	ee 0f       	add	r30, r30
    16aa:	ff 1f       	adc	r31, r31
    16ac:	ed 5a       	subi	r30, 0xAD	; 173
    16ae:	fe 4f       	sbci	r31, 0xFE	; 254
    16b0:	80 81       	ld	r24, Z
    16b2:	91 81       	ldd	r25, Z+1	; 0x01
    16b4:	a2 81       	ldd	r26, Z+2	; 0x02
    16b6:	b3 81       	ldd	r27, Z+3	; 0x03
    16b8:	48 17       	cp	r20, r24
    16ba:	59 07       	cpc	r21, r25
    16bc:	6a 07       	cpc	r22, r26
    16be:	7b 07       	cpc	r23, r27
    16c0:	08 f4       	brcc	.+2      	; 0x16c4 <_ZN7ns_line6RenderEPjPa+0x46e>
    16c2:	dd c6       	rjmp	.+3514   	; 0x247e <_ZN7ns_line6RenderEPjPa+0x1228>
    16c4:	eb a5       	ldd	r30, Y+43	; 0x2b
    16c6:	f0 e0       	ldi	r31, 0x00	; 0
    16c8:	ee 0f       	add	r30, r30
    16ca:	ff 1f       	adc	r31, r31
    16cc:	ee 0f       	add	r30, r30
    16ce:	ff 1f       	adc	r31, r31
    16d0:	ee 0f       	add	r30, r30
    16d2:	ff 1f       	adc	r31, r31
    16d4:	ed 5a       	subi	r30, 0xAD	; 173
    16d6:	fe 4f       	sbci	r31, 0xFE	; 254
    16d8:	80 81       	ld	r24, Z
    16da:	91 81       	ldd	r25, Z+1	; 0x01
    16dc:	a2 81       	ldd	r26, Z+2	; 0x02
    16de:	b3 81       	ldd	r27, Z+3	; 0x03
    16e0:	89 2b       	or	r24, r25
    16e2:	8a 2b       	or	r24, r26
    16e4:	8b 2b       	or	r24, r27
    16e6:	09 f4       	brne	.+2      	; 0x16ea <_ZN7ns_line6RenderEPjPa+0x494>
    16e8:	ca c6       	rjmp	.+3476   	; 0x247e <_ZN7ns_line6RenderEPjPa+0x1228>
    16ea:	8b a5       	ldd	r24, Y+43	; 0x2b
    16ec:	85 30       	cpi	r24, 0x05	; 5
    16ee:	08 f4       	brcc	.+2      	; 0x16f2 <_ZN7ns_line6RenderEPjPa+0x49c>
    16f0:	9f c6       	rjmp	.+3390   	; 0x2430 <_ZN7ns_line6RenderEPjPa+0x11da>
    16f2:	c5 c6       	rjmp	.+3466   	; 0x247e <_ZN7ns_line6RenderEPjPa+0x1228>
							extendT = times[1][1] - times[n][0];		// 2013 = +512	base[n-1]		+ ex	:	1-n
							ex[2] = extendT;
						}
				else	ex[2] = 99999;

				if ( (times[1][1] >= times[n+1][0]) && (times[n+1][0] != 0) && ((n + 1) < 5) )
    16f4:	40 91 5f 01 	lds	r20, 0x015F	; 0x80015f <_ZN7ns_line5timesE+0xc>
    16f8:	50 91 60 01 	lds	r21, 0x0160	; 0x800160 <_ZN7ns_line5timesE+0xd>
    16fc:	60 91 61 01 	lds	r22, 0x0161	; 0x800161 <_ZN7ns_line5timesE+0xe>
    1700:	70 91 62 01 	lds	r23, 0x0162	; 0x800162 <_ZN7ns_line5timesE+0xf>
    1704:	eb a5       	ldd	r30, Y+43	; 0x2b
    1706:	f0 e0       	ldi	r31, 0x00	; 0
    1708:	ee 0f       	add	r30, r30
    170a:	ff 1f       	adc	r31, r31
    170c:	ee 0f       	add	r30, r30
    170e:	ff 1f       	adc	r31, r31
    1710:	ee 0f       	add	r30, r30
    1712:	ff 1f       	adc	r31, r31
    1714:	e5 5a       	subi	r30, 0xA5	; 165
    1716:	fe 4f       	sbci	r31, 0xFE	; 254
    1718:	80 81       	ld	r24, Z
    171a:	91 81       	ldd	r25, Z+1	; 0x01
    171c:	a2 81       	ldd	r26, Z+2	; 0x02
    171e:	b3 81       	ldd	r27, Z+3	; 0x03
    1720:	48 17       	cp	r20, r24
    1722:	59 07       	cpc	r21, r25
    1724:	6a 07       	cpc	r22, r26
    1726:	7b 07       	cpc	r23, r27
    1728:	08 f4       	brcc	.+2      	; 0x172c <_ZN7ns_line6RenderEPjPa+0x4d6>
    172a:	d9 c6       	rjmp	.+3506   	; 0x24de <_ZN7ns_line6RenderEPjPa+0x1288>
    172c:	eb a5       	ldd	r30, Y+43	; 0x2b
    172e:	f0 e0       	ldi	r31, 0x00	; 0
    1730:	ee 0f       	add	r30, r30
    1732:	ff 1f       	adc	r31, r31
    1734:	ee 0f       	add	r30, r30
    1736:	ff 1f       	adc	r31, r31
    1738:	ee 0f       	add	r30, r30
    173a:	ff 1f       	adc	r31, r31
    173c:	e5 5a       	subi	r30, 0xA5	; 165
    173e:	fe 4f       	sbci	r31, 0xFE	; 254
    1740:	80 81       	ld	r24, Z
    1742:	91 81       	ldd	r25, Z+1	; 0x01
    1744:	a2 81       	ldd	r26, Z+2	; 0x02
    1746:	b3 81       	ldd	r27, Z+3	; 0x03
    1748:	89 2b       	or	r24, r25
    174a:	8a 2b       	or	r24, r26
    174c:	8b 2b       	or	r24, r27
    174e:	09 f4       	brne	.+2      	; 0x1752 <_ZN7ns_line6RenderEPjPa+0x4fc>
    1750:	c6 c6       	rjmp	.+3468   	; 0x24de <_ZN7ns_line6RenderEPjPa+0x1288>
    1752:	8b a5       	ldd	r24, Y+43	; 0x2b
    1754:	90 e0       	ldi	r25, 0x00	; 0
    1756:	01 96       	adiw	r24, 0x01	; 1
    1758:	05 97       	sbiw	r24, 0x05	; 5
    175a:	0c f4       	brge	.+2      	; 0x175e <_ZN7ns_line6RenderEPjPa+0x508>
    175c:	99 c6       	rjmp	.+3378   	; 0x2490 <_ZN7ns_line6RenderEPjPa+0x123a>
    175e:	bf c6       	rjmp	.+3454   	; 0x24de <_ZN7ns_line6RenderEPjPa+0x1288>
							extendT = times[1][1] - times[n+1][0];		// 2013 = +xx	base[(n+1)-1]		+ ex	:	1-(n+1)
							ex[6] = extendT;
						}
				else	ex[6] = 99999;

				if ( (times[n+1][0] > times[1][1]) && (times[n+1][0] != 0) && ((n + 1) < 5) )
    1760:	eb a5       	ldd	r30, Y+43	; 0x2b
    1762:	f0 e0       	ldi	r31, 0x00	; 0
    1764:	ee 0f       	add	r30, r30
    1766:	ff 1f       	adc	r31, r31
    1768:	ee 0f       	add	r30, r30
    176a:	ff 1f       	adc	r31, r31
    176c:	ee 0f       	add	r30, r30
    176e:	ff 1f       	adc	r31, r31
    1770:	e5 5a       	subi	r30, 0xA5	; 165
    1772:	fe 4f       	sbci	r31, 0xFE	; 254
    1774:	40 81       	ld	r20, Z
    1776:	51 81       	ldd	r21, Z+1	; 0x01
    1778:	62 81       	ldd	r22, Z+2	; 0x02
    177a:	73 81       	ldd	r23, Z+3	; 0x03
    177c:	80 91 5f 01 	lds	r24, 0x015F	; 0x80015f <_ZN7ns_line5timesE+0xc>
    1780:	90 91 60 01 	lds	r25, 0x0160	; 0x800160 <_ZN7ns_line5timesE+0xd>
    1784:	a0 91 61 01 	lds	r26, 0x0161	; 0x800161 <_ZN7ns_line5timesE+0xe>
    1788:	b0 91 62 01 	lds	r27, 0x0162	; 0x800162 <_ZN7ns_line5timesE+0xf>
    178c:	84 17       	cp	r24, r20
    178e:	95 07       	cpc	r25, r21
    1790:	a6 07       	cpc	r26, r22
    1792:	b7 07       	cpc	r27, r23
    1794:	08 f0       	brcs	.+2      	; 0x1798 <_ZN7ns_line6RenderEPjPa+0x542>
    1796:	d3 c6       	rjmp	.+3494   	; 0x253e <_ZN7ns_line6RenderEPjPa+0x12e8>
    1798:	eb a5       	ldd	r30, Y+43	; 0x2b
    179a:	f0 e0       	ldi	r31, 0x00	; 0
    179c:	ee 0f       	add	r30, r30
    179e:	ff 1f       	adc	r31, r31
    17a0:	ee 0f       	add	r30, r30
    17a2:	ff 1f       	adc	r31, r31
    17a4:	ee 0f       	add	r30, r30
    17a6:	ff 1f       	adc	r31, r31
    17a8:	e5 5a       	subi	r30, 0xA5	; 165
    17aa:	fe 4f       	sbci	r31, 0xFE	; 254
    17ac:	80 81       	ld	r24, Z
    17ae:	91 81       	ldd	r25, Z+1	; 0x01
    17b0:	a2 81       	ldd	r26, Z+2	; 0x02
    17b2:	b3 81       	ldd	r27, Z+3	; 0x03
    17b4:	89 2b       	or	r24, r25
    17b6:	8a 2b       	or	r24, r26
    17b8:	8b 2b       	or	r24, r27
    17ba:	09 f4       	brne	.+2      	; 0x17be <_ZN7ns_line6RenderEPjPa+0x568>
    17bc:	c0 c6       	rjmp	.+3456   	; 0x253e <_ZN7ns_line6RenderEPjPa+0x12e8>
    17be:	8b a5       	ldd	r24, Y+43	; 0x2b
    17c0:	90 e0       	ldi	r25, 0x00	; 0
    17c2:	01 96       	adiw	r24, 0x01	; 1
    17c4:	05 97       	sbiw	r24, 0x05	; 5
    17c6:	0c f4       	brge	.+2      	; 0x17ca <_ZN7ns_line6RenderEPjPa+0x574>
    17c8:	93 c6       	rjmp	.+3366   	; 0x24f0 <_ZN7ns_line6RenderEPjPa+0x129a>
    17ca:	b9 c6       	rjmp	.+3442   	; 0x253e <_ZN7ns_line6RenderEPjPa+0x12e8>
							ex[3] = extendT;
						}
				else	ex[3] = 99999;
			}

			if ( (times[n+1][0] > times[0][1]) && (times[n+1][0] != 0) && ((n + 1) < 5) )
    17cc:	eb a5       	ldd	r30, Y+43	; 0x2b
    17ce:	f0 e0       	ldi	r31, 0x00	; 0
    17d0:	ee 0f       	add	r30, r30
    17d2:	ff 1f       	adc	r31, r31
    17d4:	ee 0f       	add	r30, r30
    17d6:	ff 1f       	adc	r31, r31
    17d8:	ee 0f       	add	r30, r30
    17da:	ff 1f       	adc	r31, r31
    17dc:	e5 5a       	subi	r30, 0xA5	; 165
    17de:	fe 4f       	sbci	r31, 0xFE	; 254
    17e0:	40 81       	ld	r20, Z
    17e2:	51 81       	ldd	r21, Z+1	; 0x01
    17e4:	62 81       	ldd	r22, Z+2	; 0x02
    17e6:	73 81       	ldd	r23, Z+3	; 0x03
    17e8:	80 91 57 01 	lds	r24, 0x0157	; 0x800157 <_ZN7ns_line5timesE+0x4>
    17ec:	90 91 58 01 	lds	r25, 0x0158	; 0x800158 <_ZN7ns_line5timesE+0x5>
    17f0:	a0 91 59 01 	lds	r26, 0x0159	; 0x800159 <_ZN7ns_line5timesE+0x6>
    17f4:	b0 91 5a 01 	lds	r27, 0x015A	; 0x80015a <_ZN7ns_line5timesE+0x7>
    17f8:	84 17       	cp	r24, r20
    17fa:	95 07       	cpc	r25, r21
    17fc:	a6 07       	cpc	r26, r22
    17fe:	b7 07       	cpc	r27, r23
    1800:	08 f0       	brcs	.+2      	; 0x1804 <_ZN7ns_line6RenderEPjPa+0x5ae>
    1802:	cd c6       	rjmp	.+3482   	; 0x259e <_ZN7ns_line6RenderEPjPa+0x1348>
    1804:	eb a5       	ldd	r30, Y+43	; 0x2b
    1806:	f0 e0       	ldi	r31, 0x00	; 0
    1808:	ee 0f       	add	r30, r30
    180a:	ff 1f       	adc	r31, r31
    180c:	ee 0f       	add	r30, r30
    180e:	ff 1f       	adc	r31, r31
    1810:	ee 0f       	add	r30, r30
    1812:	ff 1f       	adc	r31, r31
    1814:	e5 5a       	subi	r30, 0xA5	; 165
    1816:	fe 4f       	sbci	r31, 0xFE	; 254
    1818:	80 81       	ld	r24, Z
    181a:	91 81       	ldd	r25, Z+1	; 0x01
    181c:	a2 81       	ldd	r26, Z+2	; 0x02
    181e:	b3 81       	ldd	r27, Z+3	; 0x03
    1820:	89 2b       	or	r24, r25
    1822:	8a 2b       	or	r24, r26
    1824:	8b 2b       	or	r24, r27
    1826:	09 f4       	brne	.+2      	; 0x182a <_ZN7ns_line6RenderEPjPa+0x5d4>
    1828:	ba c6       	rjmp	.+3444   	; 0x259e <_ZN7ns_line6RenderEPjPa+0x1348>
    182a:	8b a5       	ldd	r24, Y+43	; 0x2b
    182c:	90 e0       	ldi	r25, 0x00	; 0
    182e:	01 96       	adiw	r24, 0x01	; 1
    1830:	05 97       	sbiw	r24, 0x05	; 5
    1832:	0c f4       	brge	.+2      	; 0x1836 <_ZN7ns_line6RenderEPjPa+0x5e0>
    1834:	8d c6       	rjmp	.+3354   	; 0x2550 <_ZN7ns_line6RenderEPjPa+0x12fa>
    1836:	b3 c6       	rjmp	.+3430   	; 0x259e <_ZN7ns_line6RenderEPjPa+0x1348>
						extendT = times[n+1][0] - times[0][1];	// 2013 = -988	base[(n+1)-0]	- ex	:	(n+1)-0
						ex[4] = extendT;
					}
			else	ex[4] = (uint32_t)99999;

			extendT = 99999;
    1838:	8f e9       	ldi	r24, 0x9F	; 159
    183a:	96 e8       	ldi	r25, 0x86	; 134
    183c:	a1 e0       	ldi	r26, 0x01	; 1
    183e:	b0 e0       	ldi	r27, 0x00	; 0
    1840:	8d 8f       	std	Y+29, r24	; 0x1d
    1842:	9e 8f       	std	Y+30, r25	; 0x1e
    1844:	af 8f       	std	Y+31, r26	; 0x1f
    1846:	b8 a3       	std	Y+32, r27	; 0x20
			exN = 10;
			
			// find min render
			for (uint8_t i=0; i<7; i++)
    1848:	80 e0       	ldi	r24, 0x00	; 0
						ex[4] = extendT;
					}
			else	ex[4] = (uint32_t)99999;

			extendT = 99999;
			exN = 10;
    184a:	9a e0       	ldi	r25, 0x0A	; 10
			
			// find min render
			for (uint8_t i=0; i<7; i++)
			{
				if ( ex[i] < extendT )
    184c:	d8 01       	movw	r26, r16
    184e:	4d 91       	ld	r20, X+
    1850:	5d 91       	ld	r21, X+
    1852:	6d 91       	ld	r22, X+
    1854:	7d 91       	ld	r23, X+
    1856:	8d 01       	movw	r16, r26
    1858:	cd 8c       	ldd	r12, Y+29	; 0x1d
    185a:	de 8c       	ldd	r13, Y+30	; 0x1e
    185c:	ef 8c       	ldd	r14, Y+31	; 0x1f
    185e:	f8 a0       	ldd	r15, Y+32	; 0x20
    1860:	4c 15       	cp	r20, r12
    1862:	5d 05       	cpc	r21, r13
    1864:	6e 05       	cpc	r22, r14
    1866:	7f 05       	cpc	r23, r15
    1868:	28 f4       	brcc	.+10     	; 0x1874 <_ZN7ns_line6RenderEPjPa+0x61e>
				{
					extendT = ex[i];
    186a:	4d 8f       	std	Y+29, r20	; 0x1d
    186c:	5e 8f       	std	Y+30, r21	; 0x1e
    186e:	6f 8f       	std	Y+31, r22	; 0x1f
    1870:	78 a3       	std	Y+32, r23	; 0x20
    1872:	98 2f       	mov	r25, r24

			extendT = 99999;
			exN = 10;
			
			// find min render
			for (uint8_t i=0; i<7; i++)
    1874:	8f 5f       	subi	r24, 0xFF	; 255
    1876:	87 30       	cpi	r24, 0x07	; 7
    1878:	49 f7       	brne	.-46     	; 0x184c <_ZN7ns_line6RenderEPjPa+0x5f6>
					extendT = ex[i];
					exN = i;
				}
			}
			
			if (extendT == 99999)
    187a:	4d 8d       	ldd	r20, Y+29	; 0x1d
    187c:	5e 8d       	ldd	r21, Y+30	; 0x1e
    187e:	6f 8d       	ldd	r22, Y+31	; 0x1f
    1880:	78 a1       	ldd	r23, Y+32	; 0x20
    1882:	4f 39       	cpi	r20, 0x9F	; 159
    1884:	56 48       	sbci	r21, 0x86	; 134
    1886:	61 40       	sbci	r22, 0x01	; 1
    1888:	71 05       	cpc	r23, r1
    188a:	39 f4       	brne	.+14     	; 0x189a <_ZN7ns_line6RenderEPjPa+0x644>
			{	// error - no solution
				ns_vg::lenTubuStat = 10;
    188c:	8a e0       	ldi	r24, 0x0A	; 10
    188e:	80 93 03 02 	sts	0x0203, r24	; 0x800203 <_ZN5ns_vg11lenTubuStatE>
				mode = 1;
    1892:	81 e0       	ldi	r24, 0x01	; 1
    1894:	80 93 10 01 	sts	0x0110, r24	; 0x800110 <_ZN7ns_line4modeE>
				return 0;
    1898:	8b c6       	rjmp	.+3350   	; 0x25b0 <_ZN7ns_line6RenderEPjPa+0x135a>
			}
			ns_vg::exN = exN;
    189a:	90 93 01 02 	sts	0x0201, r25	; 0x800201 <_ZN5ns_vg3exNE>
			// new render tube
			ns_vg::lenTubuStat = 1;
    189e:	81 e0       	ldi	r24, 0x01	; 1
    18a0:	80 93 03 02 	sts	0x0203, r24	; 0x800203 <_ZN5ns_vg11lenTubuStatE>
			if ( exN == 0 )
    18a4:	91 11       	cpse	r25, r1
    18a6:	a5 c0       	rjmp	.+330    	; 0x19f2 <_ZN7ns_line6RenderEPjPa+0x79c>
			{	// 1920 = -20	base[n-0]		- ex	:	n-0
				base = distance[n] - distance[0];
    18a8:	eb a5       	ldd	r30, Y+43	; 0x2b
    18aa:	f0 e0       	ldi	r31, 0x00	; 0
    18ac:	ee 0f       	add	r30, r30
    18ae:	ff 1f       	adc	r31, r31
    18b0:	ea 5f       	subi	r30, 0xFA	; 250
    18b2:	fe 4f       	sbci	r31, 0xFE	; 254
    18b4:	80 81       	ld	r24, Z
    18b6:	91 81       	ldd	r25, Z+1	; 0x01
    18b8:	20 91 06 01 	lds	r18, 0x0106	; 0x800106 <_ZN7ns_line8distanceE>
    18bc:	30 91 07 01 	lds	r19, 0x0107	; 0x800107 <_ZN7ns_line8distanceE+0x1>
    18c0:	82 1b       	sub	r24, r18
    18c2:	93 0b       	sbc	r25, r19
    18c4:	9a a7       	std	Y+42, r25	; 0x2a
    18c6:	89 a7       	std	Y+41, r24	; 0x29
				exLen = (uint16_t)((((((uint64_t)extendT) * ((uint64_t)sampleD) * ((uint64_t)10) ) / ((uint64_t)sampleT)) + 5) / 10);
    18c8:	8d 8d       	ldd	r24, Y+29	; 0x1d
    18ca:	9e 8d       	ldd	r25, Y+30	; 0x1e
    18cc:	af 8d       	ldd	r26, Y+31	; 0x1f
    18ce:	b8 a1       	ldd	r27, Y+32	; 0x20
    18d0:	ed a1       	ldd	r30, Y+37	; 0x25
    18d2:	fe a1       	ldd	r31, Y+38	; 0x26
    18d4:	29 a0       	ldd	r2, Y+33	; 0x21
    18d6:	3a a0       	ldd	r3, Y+34	; 0x22
    18d8:	4b a0       	ldd	r4, Y+35	; 0x23
    18da:	5c a0       	ldd	r5, Y+36	; 0x24
    18dc:	5c 01       	movw	r10, r24
    18de:	6d 01       	movw	r12, r26
    18e0:	e1 2c       	mov	r14, r1
    18e2:	f1 2c       	mov	r15, r1
    18e4:	87 01       	movw	r16, r14
    18e6:	8c a7       	std	Y+44, r24	; 0x2c
    18e8:	bd a6       	std	Y+45, r11	; 0x2d
    18ea:	ce a6       	std	Y+46, r12	; 0x2e
    18ec:	df a6       	std	Y+47, r13	; 0x2f
    18ee:	e8 aa       	std	Y+48, r14	; 0x30
    18f0:	f9 aa       	std	Y+49, r15	; 0x31
    18f2:	0a ab       	std	Y+50, r16	; 0x32
    18f4:	1b ab       	std	Y+51, r17	; 0x33
    18f6:	8f 01       	movw	r16, r30
    18f8:	ae 2e       	mov	r10, r30
    18fa:	b1 2e       	mov	r11, r17
    18fc:	c1 2c       	mov	r12, r1
    18fe:	d1 2c       	mov	r13, r1
    1900:	e1 2c       	mov	r14, r1
    1902:	f1 2c       	mov	r15, r1
    1904:	00 e0       	ldi	r16, 0x00	; 0
    1906:	10 e0       	ldi	r17, 0x00	; 0
    1908:	2c a5       	ldd	r18, Y+44	; 0x2c
    190a:	3d a5       	ldd	r19, Y+45	; 0x2d
    190c:	4e a5       	ldd	r20, Y+46	; 0x2e
    190e:	5f a5       	ldd	r21, Y+47	; 0x2f
    1910:	60 e0       	ldi	r22, 0x00	; 0
    1912:	70 e0       	ldi	r23, 0x00	; 0
    1914:	80 e0       	ldi	r24, 0x00	; 0
    1916:	90 e0       	ldi	r25, 0x00	; 0
    1918:	0e 94 4d 30 	call	0x609a	; 0x609a <__muldi3>
    191c:	01 e0       	ldi	r16, 0x01	; 1
    191e:	0e 94 fc 30 	call	0x61f8	; 0x61f8 <__ashldi3>
    1922:	2c a7       	std	Y+44, r18	; 0x2c
    1924:	3c ab       	std	Y+52, r19	; 0x34
    1926:	4d ab       	std	Y+53, r20	; 0x35
    1928:	5e ab       	std	Y+54, r21	; 0x36
    192a:	b6 2f       	mov	r27, r22
    192c:	a7 2f       	mov	r26, r23
    192e:	f8 2f       	mov	r31, r24
    1930:	e9 2f       	mov	r30, r25
    1932:	7a 2f       	mov	r23, r26
    1934:	8f 2f       	mov	r24, r31
    1936:	9e 2f       	mov	r25, r30
    1938:	02 e0       	ldi	r16, 0x02	; 2
    193a:	0e 94 fc 30 	call	0x61f8	; 0x61f8 <__ashldi3>
    193e:	a2 2e       	mov	r10, r18
    1940:	b3 2e       	mov	r11, r19
    1942:	c4 2e       	mov	r12, r20
    1944:	d5 2e       	mov	r13, r21
    1946:	e6 2e       	mov	r14, r22
    1948:	f7 2e       	mov	r15, r23
    194a:	08 2f       	mov	r16, r24
    194c:	19 2f       	mov	r17, r25
    194e:	2c a5       	ldd	r18, Y+44	; 0x2c
    1950:	3c a9       	ldd	r19, Y+52	; 0x34
    1952:	4d a9       	ldd	r20, Y+53	; 0x35
    1954:	5e a9       	ldd	r21, Y+54	; 0x36
    1956:	6b 2f       	mov	r22, r27
    1958:	7a 2f       	mov	r23, r26
    195a:	8f 2f       	mov	r24, r31
    195c:	9e 2f       	mov	r25, r30
    195e:	0e 94 15 31 	call	0x622a	; 0x622a <__adddi3>
    1962:	62 01       	movw	r12, r4
    1964:	51 01       	movw	r10, r2
    1966:	e1 2c       	mov	r14, r1
    1968:	f1 2c       	mov	r15, r1
    196a:	87 01       	movw	r16, r14
    196c:	2c a6       	std	Y+44, r2	; 0x2c
    196e:	bd a6       	std	Y+45, r11	; 0x2d
    1970:	ce a6       	std	Y+46, r12	; 0x2e
    1972:	df a6       	std	Y+47, r13	; 0x2f
    1974:	e8 aa       	std	Y+48, r14	; 0x30
    1976:	f9 aa       	std	Y+49, r15	; 0x31
    1978:	0a ab       	std	Y+50, r16	; 0x32
    197a:	1b ab       	std	Y+51, r17	; 0x33
    197c:	e1 2c       	mov	r14, r1
    197e:	f1 2c       	mov	r15, r1
    1980:	00 e0       	ldi	r16, 0x00	; 0
    1982:	10 e0       	ldi	r17, 0x00	; 0
    1984:	0e 94 a0 30 	call	0x6140	; 0x6140 <__udivdi3>
    1988:	a5 e0       	ldi	r26, 0x05	; 5
    198a:	0e 94 1e 31 	call	0x623c	; 0x623c <__adddi3_s8>
    198e:	0f 2e       	mov	r0, r31
    1990:	fa e0       	ldi	r31, 0x0A	; 10
    1992:	af 2e       	mov	r10, r31
    1994:	f0 2d       	mov	r31, r0
    1996:	b1 2c       	mov	r11, r1
    1998:	c1 2c       	mov	r12, r1
    199a:	d1 2c       	mov	r13, r1
    199c:	0e 94 a0 30 	call	0x6140	; 0x6140 <__udivdi3>
    19a0:	82 2f       	mov	r24, r18
    19a2:	93 2f       	mov	r25, r19
    19a4:	98 a7       	std	Y+40, r25	; 0x28
    19a6:	8f a3       	std	Y+39, r24	; 0x27
				*dlina = base - exLen;
    19a8:	89 a5       	ldd	r24, Y+41	; 0x29
    19aa:	9a a5       	ldd	r25, Y+42	; 0x2a
    19ac:	2f a1       	ldd	r18, Y+39	; 0x27
    19ae:	38 a5       	ldd	r19, Y+40	; 0x28
    19b0:	82 1b       	sub	r24, r18
    19b2:	93 0b       	sbc	r25, r19
    19b4:	d4 01       	movw	r26, r8
    19b6:	11 96       	adiw	r26, 0x01	; 1
    19b8:	9c 93       	st	X, r25
    19ba:	8e 93       	st	-X, r24
				*sqBas = -((0 * 10) + (n + 0));
    19bc:	8b a5       	ldd	r24, Y+43	; 0x2b
    19be:	81 95       	neg	r24
    19c0:	f3 01       	movw	r30, r6
    19c2:	80 83       	st	Z, r24
				ns_vg::lenTubuExl = -exLen;
    19c4:	8f a1       	ldd	r24, Y+39	; 0x27
    19c6:	98 a5       	ldd	r25, Y+40	; 0x28
    19c8:	91 95       	neg	r25
    19ca:	81 95       	neg	r24
    19cc:	91 09       	sbc	r25, r1
    19ce:	90 93 06 02 	sts	0x0206, r25	; 0x800206 <_ZN5ns_vg10lenTubuExlE+0x1>
    19d2:	80 93 05 02 	sts	0x0205, r24	; 0x800205 <_ZN5ns_vg10lenTubuExlE>
				sendTele(*dlina, (*sqBas), base, exLen );
    19d6:	2f a1       	ldd	r18, Y+39	; 0x27
    19d8:	38 a5       	ldd	r19, Y+40	; 0x28
    19da:	49 a5       	ldd	r20, Y+41	; 0x29
    19dc:	5a a5       	ldd	r21, Y+42	; 0x2a
    19de:	60 81       	ld	r22, Z
    19e0:	8d 91       	ld	r24, X+
    19e2:	9c 91       	ld	r25, X
    19e4:	58 db       	rcall	.-2384   	; 0x1096 <_ZN7ns_line8sendTeleEjajj>
				mode = 1;
    19e6:	81 e0       	ldi	r24, 0x01	; 1
    19e8:	80 93 10 01 	sts	0x0110, r24	; 0x800110 <_ZN7ns_line4modeE>
				return 1;
    19ec:	bb 24       	eor	r11, r11
    19ee:	b3 94       	inc	r11
    19f0:	df c5       	rjmp	.+3006   	; 0x25b0 <_ZN7ns_line6RenderEPjPa+0x135a>
			}
			if ( exN == 1 )
    19f2:	91 30       	cpi	r25, 0x01	; 1
    19f4:	09 f0       	breq	.+2      	; 0x19f8 <_ZN7ns_line6RenderEPjPa+0x7a2>
    19f6:	a1 c0       	rjmp	.+322    	; 0x1b3a <_ZN7ns_line6RenderEPjPa+0x8e4>
			{	// 2013 = +12	base[n-0]		+ ex	:	0-n
				base = distance[n] - distance[0];
    19f8:	eb a5       	ldd	r30, Y+43	; 0x2b
    19fa:	f0 e0       	ldi	r31, 0x00	; 0
    19fc:	ee 0f       	add	r30, r30
    19fe:	ff 1f       	adc	r31, r31
    1a00:	ea 5f       	subi	r30, 0xFA	; 250
    1a02:	fe 4f       	sbci	r31, 0xFE	; 254
    1a04:	80 81       	ld	r24, Z
    1a06:	91 81       	ldd	r25, Z+1	; 0x01
    1a08:	20 91 06 01 	lds	r18, 0x0106	; 0x800106 <_ZN7ns_line8distanceE>
    1a0c:	30 91 07 01 	lds	r19, 0x0107	; 0x800107 <_ZN7ns_line8distanceE+0x1>
    1a10:	82 1b       	sub	r24, r18
    1a12:	93 0b       	sbc	r25, r19
    1a14:	9a a7       	std	Y+42, r25	; 0x2a
    1a16:	89 a7       	std	Y+41, r24	; 0x29
				exLen = (uint16_t)( ( ( ((uint64_t)10) * ((uint64_t)extendT) * ((uint64_t)sampleD) / ((uint64_t)sampleT) ) + 5) / 10);
    1a18:	8d 8d       	ldd	r24, Y+29	; 0x1d
    1a1a:	9e 8d       	ldd	r25, Y+30	; 0x1e
    1a1c:	af 8d       	ldd	r26, Y+31	; 0x1f
    1a1e:	b8 a1       	ldd	r27, Y+32	; 0x20
    1a20:	ed a1       	ldd	r30, Y+37	; 0x25
    1a22:	fe a1       	ldd	r31, Y+38	; 0x26
    1a24:	29 a0       	ldd	r2, Y+33	; 0x21
    1a26:	3a a0       	ldd	r3, Y+34	; 0x22
    1a28:	4b a0       	ldd	r4, Y+35	; 0x23
    1a2a:	5c a0       	ldd	r5, Y+36	; 0x24
    1a2c:	5c 01       	movw	r10, r24
    1a2e:	6d 01       	movw	r12, r26
    1a30:	e1 2c       	mov	r14, r1
    1a32:	f1 2c       	mov	r15, r1
    1a34:	87 01       	movw	r16, r14
    1a36:	8c a7       	std	Y+44, r24	; 0x2c
    1a38:	bd a6       	std	Y+45, r11	; 0x2d
    1a3a:	ce a6       	std	Y+46, r12	; 0x2e
    1a3c:	df a6       	std	Y+47, r13	; 0x2f
    1a3e:	e8 aa       	std	Y+48, r14	; 0x30
    1a40:	f9 aa       	std	Y+49, r15	; 0x31
    1a42:	0a ab       	std	Y+50, r16	; 0x32
    1a44:	1b ab       	std	Y+51, r17	; 0x33
    1a46:	8f 01       	movw	r16, r30
    1a48:	ae 2e       	mov	r10, r30
    1a4a:	b1 2e       	mov	r11, r17
    1a4c:	c1 2c       	mov	r12, r1
    1a4e:	d1 2c       	mov	r13, r1
    1a50:	e1 2c       	mov	r14, r1
    1a52:	f1 2c       	mov	r15, r1
    1a54:	00 e0       	ldi	r16, 0x00	; 0
    1a56:	10 e0       	ldi	r17, 0x00	; 0
    1a58:	2c a5       	ldd	r18, Y+44	; 0x2c
    1a5a:	3d a5       	ldd	r19, Y+45	; 0x2d
    1a5c:	4e a5       	ldd	r20, Y+46	; 0x2e
    1a5e:	5f a5       	ldd	r21, Y+47	; 0x2f
    1a60:	60 e0       	ldi	r22, 0x00	; 0
    1a62:	70 e0       	ldi	r23, 0x00	; 0
    1a64:	80 e0       	ldi	r24, 0x00	; 0
    1a66:	90 e0       	ldi	r25, 0x00	; 0
    1a68:	0e 94 4d 30 	call	0x609a	; 0x609a <__muldi3>
    1a6c:	01 e0       	ldi	r16, 0x01	; 1
    1a6e:	0e 94 fc 30 	call	0x61f8	; 0x61f8 <__ashldi3>
    1a72:	2c a7       	std	Y+44, r18	; 0x2c
    1a74:	3c ab       	std	Y+52, r19	; 0x34
    1a76:	4d ab       	std	Y+53, r20	; 0x35
    1a78:	5e ab       	std	Y+54, r21	; 0x36
    1a7a:	b6 2f       	mov	r27, r22
    1a7c:	a7 2f       	mov	r26, r23
    1a7e:	f8 2f       	mov	r31, r24
    1a80:	e9 2f       	mov	r30, r25
    1a82:	7a 2f       	mov	r23, r26
    1a84:	8f 2f       	mov	r24, r31
    1a86:	9e 2f       	mov	r25, r30
    1a88:	02 e0       	ldi	r16, 0x02	; 2
    1a8a:	0e 94 fc 30 	call	0x61f8	; 0x61f8 <__ashldi3>
    1a8e:	a2 2e       	mov	r10, r18
    1a90:	b3 2e       	mov	r11, r19
    1a92:	c4 2e       	mov	r12, r20
    1a94:	d5 2e       	mov	r13, r21
    1a96:	e6 2e       	mov	r14, r22
    1a98:	f7 2e       	mov	r15, r23
    1a9a:	08 2f       	mov	r16, r24
    1a9c:	19 2f       	mov	r17, r25
    1a9e:	2c a5       	ldd	r18, Y+44	; 0x2c
    1aa0:	3c a9       	ldd	r19, Y+52	; 0x34
    1aa2:	4d a9       	ldd	r20, Y+53	; 0x35
    1aa4:	5e a9       	ldd	r21, Y+54	; 0x36
    1aa6:	6b 2f       	mov	r22, r27
    1aa8:	7a 2f       	mov	r23, r26
    1aaa:	8f 2f       	mov	r24, r31
    1aac:	9e 2f       	mov	r25, r30
    1aae:	0e 94 15 31 	call	0x622a	; 0x622a <__adddi3>
    1ab2:	62 01       	movw	r12, r4
    1ab4:	51 01       	movw	r10, r2
    1ab6:	e1 2c       	mov	r14, r1
    1ab8:	f1 2c       	mov	r15, r1
    1aba:	87 01       	movw	r16, r14
    1abc:	2c a6       	std	Y+44, r2	; 0x2c
    1abe:	bd a6       	std	Y+45, r11	; 0x2d
    1ac0:	ce a6       	std	Y+46, r12	; 0x2e
    1ac2:	df a6       	std	Y+47, r13	; 0x2f
    1ac4:	e8 aa       	std	Y+48, r14	; 0x30
    1ac6:	f9 aa       	std	Y+49, r15	; 0x31
    1ac8:	0a ab       	std	Y+50, r16	; 0x32
    1aca:	1b ab       	std	Y+51, r17	; 0x33
    1acc:	e1 2c       	mov	r14, r1
    1ace:	f1 2c       	mov	r15, r1
    1ad0:	00 e0       	ldi	r16, 0x00	; 0
    1ad2:	10 e0       	ldi	r17, 0x00	; 0
    1ad4:	0e 94 a0 30 	call	0x6140	; 0x6140 <__udivdi3>
    1ad8:	a5 e0       	ldi	r26, 0x05	; 5
    1ada:	0e 94 1e 31 	call	0x623c	; 0x623c <__adddi3_s8>
    1ade:	0f 2e       	mov	r0, r31
    1ae0:	fa e0       	ldi	r31, 0x0A	; 10
    1ae2:	af 2e       	mov	r10, r31
    1ae4:	f0 2d       	mov	r31, r0
    1ae6:	b1 2c       	mov	r11, r1
    1ae8:	c1 2c       	mov	r12, r1
    1aea:	d1 2c       	mov	r13, r1
    1aec:	0e 94 a0 30 	call	0x6140	; 0x6140 <__udivdi3>
    1af0:	82 2f       	mov	r24, r18
    1af2:	93 2f       	mov	r25, r19
    1af4:	98 a7       	std	Y+40, r25	; 0x28
    1af6:	8f a3       	std	Y+39, r24	; 0x27
				*dlina = base + exLen;
    1af8:	89 a5       	ldd	r24, Y+41	; 0x29
    1afa:	9a a5       	ldd	r25, Y+42	; 0x2a
    1afc:	2f a1       	ldd	r18, Y+39	; 0x27
    1afe:	38 a5       	ldd	r19, Y+40	; 0x28
    1b00:	82 0f       	add	r24, r18
    1b02:	93 1f       	adc	r25, r19
    1b04:	d4 01       	movw	r26, r8
    1b06:	11 96       	adiw	r26, 0x01	; 1
    1b08:	9c 93       	st	X, r25
    1b0a:	8e 93       	st	-X, r24
				*sqBas = ((0 * 10) + (n + 0));
    1b0c:	8b a5       	ldd	r24, Y+43	; 0x2b
    1b0e:	f3 01       	movw	r30, r6
    1b10:	80 83       	st	Z, r24
				ns_vg::lenTubuExl = exLen;
    1b12:	8f a1       	ldd	r24, Y+39	; 0x27
    1b14:	98 a5       	ldd	r25, Y+40	; 0x28
    1b16:	90 93 06 02 	sts	0x0206, r25	; 0x800206 <_ZN5ns_vg10lenTubuExlE+0x1>
    1b1a:	80 93 05 02 	sts	0x0205, r24	; 0x800205 <_ZN5ns_vg10lenTubuExlE>
				sendTele(*dlina, (*sqBas), base, exLen);
    1b1e:	2f a1       	ldd	r18, Y+39	; 0x27
    1b20:	38 a5       	ldd	r19, Y+40	; 0x28
    1b22:	49 a5       	ldd	r20, Y+41	; 0x29
    1b24:	5a a5       	ldd	r21, Y+42	; 0x2a
    1b26:	60 81       	ld	r22, Z
    1b28:	8d 91       	ld	r24, X+
    1b2a:	9c 91       	ld	r25, X
    1b2c:	b4 da       	rcall	.-2712   	; 0x1096 <_ZN7ns_line8sendTeleEjajj>
				mode = 1;
    1b2e:	81 e0       	ldi	r24, 0x01	; 1
    1b30:	80 93 10 01 	sts	0x0110, r24	; 0x800110 <_ZN7ns_line4modeE>
				return 1;
    1b34:	bb 24       	eor	r11, r11
    1b36:	b3 94       	inc	r11
    1b38:	3b c5       	rjmp	.+2678   	; 0x25b0 <_ZN7ns_line6RenderEPjPa+0x135a>
			}
			if ( exN == 5 )
    1b3a:	95 30       	cpi	r25, 0x05	; 5
    1b3c:	09 f0       	breq	.+2      	; 0x1b40 <_ZN7ns_line6RenderEPjPa+0x8ea>
    1b3e:	a2 c0       	rjmp	.+324    	; 0x1c84 <_ZN7ns_line6RenderEPjPa+0xa2e>
			{	// 2013 = +12	base[(n+1)-0]		+ ex	:	0-(n+1)
				base = distance[n+1] - distance[0];
    1b40:	eb a5       	ldd	r30, Y+43	; 0x2b
    1b42:	f0 e0       	ldi	r31, 0x00	; 0
    1b44:	ee 0f       	add	r30, r30
    1b46:	ff 1f       	adc	r31, r31
    1b48:	e8 5f       	subi	r30, 0xF8	; 248
    1b4a:	fe 4f       	sbci	r31, 0xFE	; 254
    1b4c:	80 81       	ld	r24, Z
    1b4e:	91 81       	ldd	r25, Z+1	; 0x01
    1b50:	20 91 06 01 	lds	r18, 0x0106	; 0x800106 <_ZN7ns_line8distanceE>
    1b54:	30 91 07 01 	lds	r19, 0x0107	; 0x800107 <_ZN7ns_line8distanceE+0x1>
    1b58:	82 1b       	sub	r24, r18
    1b5a:	93 0b       	sbc	r25, r19
    1b5c:	9a a7       	std	Y+42, r25	; 0x2a
    1b5e:	89 a7       	std	Y+41, r24	; 0x29
				exLen = (uint16_t)( ( ( ((uint64_t)10) * ((uint64_t)extendT) * ((uint64_t)sampleD) / ((uint64_t)sampleT) ) + 5) / 10);
    1b60:	8d 8d       	ldd	r24, Y+29	; 0x1d
    1b62:	9e 8d       	ldd	r25, Y+30	; 0x1e
    1b64:	af 8d       	ldd	r26, Y+31	; 0x1f
    1b66:	b8 a1       	ldd	r27, Y+32	; 0x20
    1b68:	ed a1       	ldd	r30, Y+37	; 0x25
    1b6a:	fe a1       	ldd	r31, Y+38	; 0x26
    1b6c:	29 a0       	ldd	r2, Y+33	; 0x21
    1b6e:	3a a0       	ldd	r3, Y+34	; 0x22
    1b70:	4b a0       	ldd	r4, Y+35	; 0x23
    1b72:	5c a0       	ldd	r5, Y+36	; 0x24
    1b74:	5c 01       	movw	r10, r24
    1b76:	6d 01       	movw	r12, r26
    1b78:	e1 2c       	mov	r14, r1
    1b7a:	f1 2c       	mov	r15, r1
    1b7c:	87 01       	movw	r16, r14
    1b7e:	8c a7       	std	Y+44, r24	; 0x2c
    1b80:	bd a6       	std	Y+45, r11	; 0x2d
    1b82:	ce a6       	std	Y+46, r12	; 0x2e
    1b84:	df a6       	std	Y+47, r13	; 0x2f
    1b86:	e8 aa       	std	Y+48, r14	; 0x30
    1b88:	f9 aa       	std	Y+49, r15	; 0x31
    1b8a:	0a ab       	std	Y+50, r16	; 0x32
    1b8c:	1b ab       	std	Y+51, r17	; 0x33
    1b8e:	8f 01       	movw	r16, r30
    1b90:	ae 2e       	mov	r10, r30
    1b92:	b1 2e       	mov	r11, r17
    1b94:	c1 2c       	mov	r12, r1
    1b96:	d1 2c       	mov	r13, r1
    1b98:	e1 2c       	mov	r14, r1
    1b9a:	f1 2c       	mov	r15, r1
    1b9c:	00 e0       	ldi	r16, 0x00	; 0
    1b9e:	10 e0       	ldi	r17, 0x00	; 0
    1ba0:	2c a5       	ldd	r18, Y+44	; 0x2c
    1ba2:	3d a5       	ldd	r19, Y+45	; 0x2d
    1ba4:	4e a5       	ldd	r20, Y+46	; 0x2e
    1ba6:	5f a5       	ldd	r21, Y+47	; 0x2f
    1ba8:	60 e0       	ldi	r22, 0x00	; 0
    1baa:	70 e0       	ldi	r23, 0x00	; 0
    1bac:	80 e0       	ldi	r24, 0x00	; 0
    1bae:	90 e0       	ldi	r25, 0x00	; 0
    1bb0:	0e 94 4d 30 	call	0x609a	; 0x609a <__muldi3>
    1bb4:	01 e0       	ldi	r16, 0x01	; 1
    1bb6:	0e 94 fc 30 	call	0x61f8	; 0x61f8 <__ashldi3>
    1bba:	2c a7       	std	Y+44, r18	; 0x2c
    1bbc:	3c ab       	std	Y+52, r19	; 0x34
    1bbe:	4d ab       	std	Y+53, r20	; 0x35
    1bc0:	5e ab       	std	Y+54, r21	; 0x36
    1bc2:	b6 2f       	mov	r27, r22
    1bc4:	a7 2f       	mov	r26, r23
    1bc6:	f8 2f       	mov	r31, r24
    1bc8:	e9 2f       	mov	r30, r25
    1bca:	7a 2f       	mov	r23, r26
    1bcc:	8f 2f       	mov	r24, r31
    1bce:	9e 2f       	mov	r25, r30
    1bd0:	02 e0       	ldi	r16, 0x02	; 2
    1bd2:	0e 94 fc 30 	call	0x61f8	; 0x61f8 <__ashldi3>
    1bd6:	a2 2e       	mov	r10, r18
    1bd8:	b3 2e       	mov	r11, r19
    1bda:	c4 2e       	mov	r12, r20
    1bdc:	d5 2e       	mov	r13, r21
    1bde:	e6 2e       	mov	r14, r22
    1be0:	f7 2e       	mov	r15, r23
    1be2:	08 2f       	mov	r16, r24
    1be4:	19 2f       	mov	r17, r25
    1be6:	2c a5       	ldd	r18, Y+44	; 0x2c
    1be8:	3c a9       	ldd	r19, Y+52	; 0x34
    1bea:	4d a9       	ldd	r20, Y+53	; 0x35
    1bec:	5e a9       	ldd	r21, Y+54	; 0x36
    1bee:	6b 2f       	mov	r22, r27
    1bf0:	7a 2f       	mov	r23, r26
    1bf2:	8f 2f       	mov	r24, r31
    1bf4:	9e 2f       	mov	r25, r30
    1bf6:	0e 94 15 31 	call	0x622a	; 0x622a <__adddi3>
    1bfa:	62 01       	movw	r12, r4
    1bfc:	51 01       	movw	r10, r2
    1bfe:	e1 2c       	mov	r14, r1
    1c00:	f1 2c       	mov	r15, r1
    1c02:	87 01       	movw	r16, r14
    1c04:	2c a6       	std	Y+44, r2	; 0x2c
    1c06:	bd a6       	std	Y+45, r11	; 0x2d
    1c08:	ce a6       	std	Y+46, r12	; 0x2e
    1c0a:	df a6       	std	Y+47, r13	; 0x2f
    1c0c:	e8 aa       	std	Y+48, r14	; 0x30
    1c0e:	f9 aa       	std	Y+49, r15	; 0x31
    1c10:	0a ab       	std	Y+50, r16	; 0x32
    1c12:	1b ab       	std	Y+51, r17	; 0x33
    1c14:	e1 2c       	mov	r14, r1
    1c16:	f1 2c       	mov	r15, r1
    1c18:	00 e0       	ldi	r16, 0x00	; 0
    1c1a:	10 e0       	ldi	r17, 0x00	; 0
    1c1c:	0e 94 a0 30 	call	0x6140	; 0x6140 <__udivdi3>
    1c20:	a5 e0       	ldi	r26, 0x05	; 5
    1c22:	0e 94 1e 31 	call	0x623c	; 0x623c <__adddi3_s8>
    1c26:	0f 2e       	mov	r0, r31
    1c28:	fa e0       	ldi	r31, 0x0A	; 10
    1c2a:	af 2e       	mov	r10, r31
    1c2c:	f0 2d       	mov	r31, r0
    1c2e:	b1 2c       	mov	r11, r1
    1c30:	c1 2c       	mov	r12, r1
    1c32:	d1 2c       	mov	r13, r1
    1c34:	0e 94 a0 30 	call	0x6140	; 0x6140 <__udivdi3>
    1c38:	82 2f       	mov	r24, r18
    1c3a:	93 2f       	mov	r25, r19
    1c3c:	98 a7       	std	Y+40, r25	; 0x28
    1c3e:	8f a3       	std	Y+39, r24	; 0x27
				*dlina = base + exLen;
    1c40:	89 a5       	ldd	r24, Y+41	; 0x29
    1c42:	9a a5       	ldd	r25, Y+42	; 0x2a
    1c44:	2f a1       	ldd	r18, Y+39	; 0x27
    1c46:	38 a5       	ldd	r19, Y+40	; 0x28
    1c48:	82 0f       	add	r24, r18
    1c4a:	93 1f       	adc	r25, r19
    1c4c:	d4 01       	movw	r26, r8
    1c4e:	11 96       	adiw	r26, 0x01	; 1
    1c50:	9c 93       	st	X, r25
    1c52:	8e 93       	st	-X, r24
				*sqBas = ((0 * 10) + (n + 1));
    1c54:	8b a5       	ldd	r24, Y+43	; 0x2b
    1c56:	8f 5f       	subi	r24, 0xFF	; 255
    1c58:	f3 01       	movw	r30, r6
    1c5a:	80 83       	st	Z, r24
				ns_vg::lenTubuExl = exLen;
    1c5c:	8f a1       	ldd	r24, Y+39	; 0x27
    1c5e:	98 a5       	ldd	r25, Y+40	; 0x28
    1c60:	90 93 06 02 	sts	0x0206, r25	; 0x800206 <_ZN5ns_vg10lenTubuExlE+0x1>
    1c64:	80 93 05 02 	sts	0x0205, r24	; 0x800205 <_ZN5ns_vg10lenTubuExlE>
				sendTele(*dlina, (*sqBas), base, exLen);
    1c68:	2f a1       	ldd	r18, Y+39	; 0x27
    1c6a:	38 a5       	ldd	r19, Y+40	; 0x28
    1c6c:	49 a5       	ldd	r20, Y+41	; 0x29
    1c6e:	5a a5       	ldd	r21, Y+42	; 0x2a
    1c70:	60 81       	ld	r22, Z
    1c72:	8d 91       	ld	r24, X+
    1c74:	9c 91       	ld	r25, X
    1c76:	0f da       	rcall	.-3042   	; 0x1096 <_ZN7ns_line8sendTeleEjajj>
				mode = 1;
    1c78:	81 e0       	ldi	r24, 0x01	; 1
    1c7a:	80 93 10 01 	sts	0x0110, r24	; 0x800110 <_ZN7ns_line4modeE>
				return 1;
    1c7e:	bb 24       	eor	r11, r11
    1c80:	b3 94       	inc	r11
    1c82:	96 c4       	rjmp	.+2348   	; 0x25b0 <_ZN7ns_line6RenderEPjPa+0x135a>
			}
			if ( exN == 2 )
    1c84:	92 30       	cpi	r25, 0x02	; 2
    1c86:	09 f0       	breq	.+2      	; 0x1c8a <_ZN7ns_line6RenderEPjPa+0xa34>
    1c88:	a2 c0       	rjmp	.+324    	; 0x1dce <_ZN7ns_line6RenderEPjPa+0xb78>
			{	// 2013 = +512	base[n-1]		+ ex	:	1-n
				base = distance[n] - distance[1];
    1c8a:	eb a5       	ldd	r30, Y+43	; 0x2b
    1c8c:	f0 e0       	ldi	r31, 0x00	; 0
    1c8e:	ee 0f       	add	r30, r30
    1c90:	ff 1f       	adc	r31, r31
    1c92:	ea 5f       	subi	r30, 0xFA	; 250
    1c94:	fe 4f       	sbci	r31, 0xFE	; 254
    1c96:	80 81       	ld	r24, Z
    1c98:	91 81       	ldd	r25, Z+1	; 0x01
    1c9a:	20 91 08 01 	lds	r18, 0x0108	; 0x800108 <_ZN7ns_line8distanceE+0x2>
    1c9e:	30 91 09 01 	lds	r19, 0x0109	; 0x800109 <_ZN7ns_line8distanceE+0x3>
    1ca2:	82 1b       	sub	r24, r18
    1ca4:	93 0b       	sbc	r25, r19
    1ca6:	9a a7       	std	Y+42, r25	; 0x2a
    1ca8:	89 a7       	std	Y+41, r24	; 0x29
				exLen = (uint16_t)( ( ( ((uint64_t)10) * ((uint64_t)extendT) * ((uint64_t)sampleD) / ((uint64_t)sampleT) ) + 5) / 10);
    1caa:	8d 8d       	ldd	r24, Y+29	; 0x1d
    1cac:	9e 8d       	ldd	r25, Y+30	; 0x1e
    1cae:	af 8d       	ldd	r26, Y+31	; 0x1f
    1cb0:	b8 a1       	ldd	r27, Y+32	; 0x20
    1cb2:	ed a1       	ldd	r30, Y+37	; 0x25
    1cb4:	fe a1       	ldd	r31, Y+38	; 0x26
    1cb6:	29 a0       	ldd	r2, Y+33	; 0x21
    1cb8:	3a a0       	ldd	r3, Y+34	; 0x22
    1cba:	4b a0       	ldd	r4, Y+35	; 0x23
    1cbc:	5c a0       	ldd	r5, Y+36	; 0x24
    1cbe:	5c 01       	movw	r10, r24
    1cc0:	6d 01       	movw	r12, r26
    1cc2:	e1 2c       	mov	r14, r1
    1cc4:	f1 2c       	mov	r15, r1
    1cc6:	87 01       	movw	r16, r14
    1cc8:	8c a7       	std	Y+44, r24	; 0x2c
    1cca:	bd a6       	std	Y+45, r11	; 0x2d
    1ccc:	ce a6       	std	Y+46, r12	; 0x2e
    1cce:	df a6       	std	Y+47, r13	; 0x2f
    1cd0:	e8 aa       	std	Y+48, r14	; 0x30
    1cd2:	f9 aa       	std	Y+49, r15	; 0x31
    1cd4:	0a ab       	std	Y+50, r16	; 0x32
    1cd6:	1b ab       	std	Y+51, r17	; 0x33
    1cd8:	8f 01       	movw	r16, r30
    1cda:	ae 2e       	mov	r10, r30
    1cdc:	b1 2e       	mov	r11, r17
    1cde:	c1 2c       	mov	r12, r1
    1ce0:	d1 2c       	mov	r13, r1
    1ce2:	e1 2c       	mov	r14, r1
    1ce4:	f1 2c       	mov	r15, r1
    1ce6:	00 e0       	ldi	r16, 0x00	; 0
    1ce8:	10 e0       	ldi	r17, 0x00	; 0
    1cea:	2c a5       	ldd	r18, Y+44	; 0x2c
    1cec:	3d a5       	ldd	r19, Y+45	; 0x2d
    1cee:	4e a5       	ldd	r20, Y+46	; 0x2e
    1cf0:	5f a5       	ldd	r21, Y+47	; 0x2f
    1cf2:	60 e0       	ldi	r22, 0x00	; 0
    1cf4:	70 e0       	ldi	r23, 0x00	; 0
    1cf6:	80 e0       	ldi	r24, 0x00	; 0
    1cf8:	90 e0       	ldi	r25, 0x00	; 0
    1cfa:	0e 94 4d 30 	call	0x609a	; 0x609a <__muldi3>
    1cfe:	01 e0       	ldi	r16, 0x01	; 1
    1d00:	0e 94 fc 30 	call	0x61f8	; 0x61f8 <__ashldi3>
    1d04:	2c a7       	std	Y+44, r18	; 0x2c
    1d06:	3c ab       	std	Y+52, r19	; 0x34
    1d08:	4d ab       	std	Y+53, r20	; 0x35
    1d0a:	5e ab       	std	Y+54, r21	; 0x36
    1d0c:	b6 2f       	mov	r27, r22
    1d0e:	a7 2f       	mov	r26, r23
    1d10:	f8 2f       	mov	r31, r24
    1d12:	e9 2f       	mov	r30, r25
    1d14:	7a 2f       	mov	r23, r26
    1d16:	8f 2f       	mov	r24, r31
    1d18:	9e 2f       	mov	r25, r30
    1d1a:	02 e0       	ldi	r16, 0x02	; 2
    1d1c:	0e 94 fc 30 	call	0x61f8	; 0x61f8 <__ashldi3>
    1d20:	a2 2e       	mov	r10, r18
    1d22:	b3 2e       	mov	r11, r19
    1d24:	c4 2e       	mov	r12, r20
    1d26:	d5 2e       	mov	r13, r21
    1d28:	e6 2e       	mov	r14, r22
    1d2a:	f7 2e       	mov	r15, r23
    1d2c:	08 2f       	mov	r16, r24
    1d2e:	19 2f       	mov	r17, r25
    1d30:	2c a5       	ldd	r18, Y+44	; 0x2c
    1d32:	3c a9       	ldd	r19, Y+52	; 0x34
    1d34:	4d a9       	ldd	r20, Y+53	; 0x35
    1d36:	5e a9       	ldd	r21, Y+54	; 0x36
    1d38:	6b 2f       	mov	r22, r27
    1d3a:	7a 2f       	mov	r23, r26
    1d3c:	8f 2f       	mov	r24, r31
    1d3e:	9e 2f       	mov	r25, r30
    1d40:	0e 94 15 31 	call	0x622a	; 0x622a <__adddi3>
    1d44:	62 01       	movw	r12, r4
    1d46:	51 01       	movw	r10, r2
    1d48:	e1 2c       	mov	r14, r1
    1d4a:	f1 2c       	mov	r15, r1
    1d4c:	87 01       	movw	r16, r14
    1d4e:	2c a6       	std	Y+44, r2	; 0x2c
    1d50:	bd a6       	std	Y+45, r11	; 0x2d
    1d52:	ce a6       	std	Y+46, r12	; 0x2e
    1d54:	df a6       	std	Y+47, r13	; 0x2f
    1d56:	e8 aa       	std	Y+48, r14	; 0x30
    1d58:	f9 aa       	std	Y+49, r15	; 0x31
    1d5a:	0a ab       	std	Y+50, r16	; 0x32
    1d5c:	1b ab       	std	Y+51, r17	; 0x33
    1d5e:	e1 2c       	mov	r14, r1
    1d60:	f1 2c       	mov	r15, r1
    1d62:	00 e0       	ldi	r16, 0x00	; 0
    1d64:	10 e0       	ldi	r17, 0x00	; 0
    1d66:	0e 94 a0 30 	call	0x6140	; 0x6140 <__udivdi3>
    1d6a:	a5 e0       	ldi	r26, 0x05	; 5
    1d6c:	0e 94 1e 31 	call	0x623c	; 0x623c <__adddi3_s8>
    1d70:	0f 2e       	mov	r0, r31
    1d72:	fa e0       	ldi	r31, 0x0A	; 10
    1d74:	af 2e       	mov	r10, r31
    1d76:	f0 2d       	mov	r31, r0
    1d78:	b1 2c       	mov	r11, r1
    1d7a:	c1 2c       	mov	r12, r1
    1d7c:	d1 2c       	mov	r13, r1
    1d7e:	0e 94 a0 30 	call	0x6140	; 0x6140 <__udivdi3>
    1d82:	82 2f       	mov	r24, r18
    1d84:	93 2f       	mov	r25, r19
    1d86:	98 a7       	std	Y+40, r25	; 0x28
    1d88:	8f a3       	std	Y+39, r24	; 0x27
				*dlina = base + exLen;
    1d8a:	89 a5       	ldd	r24, Y+41	; 0x29
    1d8c:	9a a5       	ldd	r25, Y+42	; 0x2a
    1d8e:	2f a1       	ldd	r18, Y+39	; 0x27
    1d90:	38 a5       	ldd	r19, Y+40	; 0x28
    1d92:	82 0f       	add	r24, r18
    1d94:	93 1f       	adc	r25, r19
    1d96:	d4 01       	movw	r26, r8
    1d98:	11 96       	adiw	r26, 0x01	; 1
    1d9a:	9c 93       	st	X, r25
    1d9c:	8e 93       	st	-X, r24
				*sqBas = ((1 * 10) + (n + 0));
    1d9e:	8b a5       	ldd	r24, Y+43	; 0x2b
    1da0:	86 5f       	subi	r24, 0xF6	; 246
    1da2:	f3 01       	movw	r30, r6
    1da4:	80 83       	st	Z, r24
				ns_vg::lenTubuExl = exLen;
    1da6:	8f a1       	ldd	r24, Y+39	; 0x27
    1da8:	98 a5       	ldd	r25, Y+40	; 0x28
    1daa:	90 93 06 02 	sts	0x0206, r25	; 0x800206 <_ZN5ns_vg10lenTubuExlE+0x1>
    1dae:	80 93 05 02 	sts	0x0205, r24	; 0x800205 <_ZN5ns_vg10lenTubuExlE>
				sendTele(*dlina, (*sqBas), base, exLen);
    1db2:	2f a1       	ldd	r18, Y+39	; 0x27
    1db4:	38 a5       	ldd	r19, Y+40	; 0x28
    1db6:	49 a5       	ldd	r20, Y+41	; 0x29
    1db8:	5a a5       	ldd	r21, Y+42	; 0x2a
    1dba:	60 81       	ld	r22, Z
    1dbc:	8d 91       	ld	r24, X+
    1dbe:	9c 91       	ld	r25, X
    1dc0:	6a d9       	rcall	.-3372   	; 0x1096 <_ZN7ns_line8sendTeleEjajj>
				mode = 1;
    1dc2:	81 e0       	ldi	r24, 0x01	; 1
    1dc4:	80 93 10 01 	sts	0x0110, r24	; 0x800110 <_ZN7ns_line4modeE>
				return 1;
    1dc8:	bb 24       	eor	r11, r11
    1dca:	b3 94       	inc	r11
    1dcc:	f1 c3       	rjmp	.+2018   	; 0x25b0 <_ZN7ns_line6RenderEPjPa+0x135a>
			}
			if ( exN == 6 )
    1dce:	96 30       	cpi	r25, 0x06	; 6
    1dd0:	09 f0       	breq	.+2      	; 0x1dd4 <_ZN7ns_line6RenderEPjPa+0xb7e>
    1dd2:	a2 c0       	rjmp	.+324    	; 0x1f18 <_ZN7ns_line6RenderEPjPa+0xcc2>
			{	// 2013 = +xx	base[(n+1)-1]		+ ex	:	1-(n+1)
				base = distance[n+1] - distance[1];
    1dd4:	eb a5       	ldd	r30, Y+43	; 0x2b
    1dd6:	f0 e0       	ldi	r31, 0x00	; 0
    1dd8:	ee 0f       	add	r30, r30
    1dda:	ff 1f       	adc	r31, r31
    1ddc:	e8 5f       	subi	r30, 0xF8	; 248
    1dde:	fe 4f       	sbci	r31, 0xFE	; 254
    1de0:	80 81       	ld	r24, Z
    1de2:	91 81       	ldd	r25, Z+1	; 0x01
    1de4:	20 91 08 01 	lds	r18, 0x0108	; 0x800108 <_ZN7ns_line8distanceE+0x2>
    1de8:	30 91 09 01 	lds	r19, 0x0109	; 0x800109 <_ZN7ns_line8distanceE+0x3>
    1dec:	82 1b       	sub	r24, r18
    1dee:	93 0b       	sbc	r25, r19
    1df0:	9a a7       	std	Y+42, r25	; 0x2a
    1df2:	89 a7       	std	Y+41, r24	; 0x29
				exLen = (uint16_t)( ( ( ((uint64_t)10) * ((uint64_t)extendT) * ((uint64_t)sampleD) / ((uint64_t)sampleT) ) + 5) / 10);
    1df4:	8d 8d       	ldd	r24, Y+29	; 0x1d
    1df6:	9e 8d       	ldd	r25, Y+30	; 0x1e
    1df8:	af 8d       	ldd	r26, Y+31	; 0x1f
    1dfa:	b8 a1       	ldd	r27, Y+32	; 0x20
    1dfc:	ed a1       	ldd	r30, Y+37	; 0x25
    1dfe:	fe a1       	ldd	r31, Y+38	; 0x26
    1e00:	29 a0       	ldd	r2, Y+33	; 0x21
    1e02:	3a a0       	ldd	r3, Y+34	; 0x22
    1e04:	4b a0       	ldd	r4, Y+35	; 0x23
    1e06:	5c a0       	ldd	r5, Y+36	; 0x24
    1e08:	5c 01       	movw	r10, r24
    1e0a:	6d 01       	movw	r12, r26
    1e0c:	e1 2c       	mov	r14, r1
    1e0e:	f1 2c       	mov	r15, r1
    1e10:	87 01       	movw	r16, r14
    1e12:	8c a7       	std	Y+44, r24	; 0x2c
    1e14:	bd a6       	std	Y+45, r11	; 0x2d
    1e16:	ce a6       	std	Y+46, r12	; 0x2e
    1e18:	df a6       	std	Y+47, r13	; 0x2f
    1e1a:	e8 aa       	std	Y+48, r14	; 0x30
    1e1c:	f9 aa       	std	Y+49, r15	; 0x31
    1e1e:	0a ab       	std	Y+50, r16	; 0x32
    1e20:	1b ab       	std	Y+51, r17	; 0x33
    1e22:	8f 01       	movw	r16, r30
    1e24:	ae 2e       	mov	r10, r30
    1e26:	b1 2e       	mov	r11, r17
    1e28:	c1 2c       	mov	r12, r1
    1e2a:	d1 2c       	mov	r13, r1
    1e2c:	e1 2c       	mov	r14, r1
    1e2e:	f1 2c       	mov	r15, r1
    1e30:	00 e0       	ldi	r16, 0x00	; 0
    1e32:	10 e0       	ldi	r17, 0x00	; 0
    1e34:	2c a5       	ldd	r18, Y+44	; 0x2c
    1e36:	3d a5       	ldd	r19, Y+45	; 0x2d
    1e38:	4e a5       	ldd	r20, Y+46	; 0x2e
    1e3a:	5f a5       	ldd	r21, Y+47	; 0x2f
    1e3c:	60 e0       	ldi	r22, 0x00	; 0
    1e3e:	70 e0       	ldi	r23, 0x00	; 0
    1e40:	80 e0       	ldi	r24, 0x00	; 0
    1e42:	90 e0       	ldi	r25, 0x00	; 0
    1e44:	0e 94 4d 30 	call	0x609a	; 0x609a <__muldi3>
    1e48:	01 e0       	ldi	r16, 0x01	; 1
    1e4a:	0e 94 fc 30 	call	0x61f8	; 0x61f8 <__ashldi3>
    1e4e:	2c a7       	std	Y+44, r18	; 0x2c
    1e50:	3c ab       	std	Y+52, r19	; 0x34
    1e52:	4d ab       	std	Y+53, r20	; 0x35
    1e54:	5e ab       	std	Y+54, r21	; 0x36
    1e56:	b6 2f       	mov	r27, r22
    1e58:	a7 2f       	mov	r26, r23
    1e5a:	f8 2f       	mov	r31, r24
    1e5c:	e9 2f       	mov	r30, r25
    1e5e:	7a 2f       	mov	r23, r26
    1e60:	8f 2f       	mov	r24, r31
    1e62:	9e 2f       	mov	r25, r30
    1e64:	02 e0       	ldi	r16, 0x02	; 2
    1e66:	0e 94 fc 30 	call	0x61f8	; 0x61f8 <__ashldi3>
    1e6a:	a2 2e       	mov	r10, r18
    1e6c:	b3 2e       	mov	r11, r19
    1e6e:	c4 2e       	mov	r12, r20
    1e70:	d5 2e       	mov	r13, r21
    1e72:	e6 2e       	mov	r14, r22
    1e74:	f7 2e       	mov	r15, r23
    1e76:	08 2f       	mov	r16, r24
    1e78:	19 2f       	mov	r17, r25
    1e7a:	2c a5       	ldd	r18, Y+44	; 0x2c
    1e7c:	3c a9       	ldd	r19, Y+52	; 0x34
    1e7e:	4d a9       	ldd	r20, Y+53	; 0x35
    1e80:	5e a9       	ldd	r21, Y+54	; 0x36
    1e82:	6b 2f       	mov	r22, r27
    1e84:	7a 2f       	mov	r23, r26
    1e86:	8f 2f       	mov	r24, r31
    1e88:	9e 2f       	mov	r25, r30
    1e8a:	0e 94 15 31 	call	0x622a	; 0x622a <__adddi3>
    1e8e:	62 01       	movw	r12, r4
    1e90:	51 01       	movw	r10, r2
    1e92:	e1 2c       	mov	r14, r1
    1e94:	f1 2c       	mov	r15, r1
    1e96:	87 01       	movw	r16, r14
    1e98:	2c a6       	std	Y+44, r2	; 0x2c
    1e9a:	bd a6       	std	Y+45, r11	; 0x2d
    1e9c:	ce a6       	std	Y+46, r12	; 0x2e
    1e9e:	df a6       	std	Y+47, r13	; 0x2f
    1ea0:	e8 aa       	std	Y+48, r14	; 0x30
    1ea2:	f9 aa       	std	Y+49, r15	; 0x31
    1ea4:	0a ab       	std	Y+50, r16	; 0x32
    1ea6:	1b ab       	std	Y+51, r17	; 0x33
    1ea8:	e1 2c       	mov	r14, r1
    1eaa:	f1 2c       	mov	r15, r1
    1eac:	00 e0       	ldi	r16, 0x00	; 0
    1eae:	10 e0       	ldi	r17, 0x00	; 0
    1eb0:	0e 94 a0 30 	call	0x6140	; 0x6140 <__udivdi3>
    1eb4:	a5 e0       	ldi	r26, 0x05	; 5
    1eb6:	0e 94 1e 31 	call	0x623c	; 0x623c <__adddi3_s8>
    1eba:	0f 2e       	mov	r0, r31
    1ebc:	fa e0       	ldi	r31, 0x0A	; 10
    1ebe:	af 2e       	mov	r10, r31
    1ec0:	f0 2d       	mov	r31, r0
    1ec2:	b1 2c       	mov	r11, r1
    1ec4:	c1 2c       	mov	r12, r1
    1ec6:	d1 2c       	mov	r13, r1
    1ec8:	0e 94 a0 30 	call	0x6140	; 0x6140 <__udivdi3>
    1ecc:	82 2f       	mov	r24, r18
    1ece:	93 2f       	mov	r25, r19
    1ed0:	98 a7       	std	Y+40, r25	; 0x28
    1ed2:	8f a3       	std	Y+39, r24	; 0x27
				*dlina = base + exLen;
    1ed4:	89 a5       	ldd	r24, Y+41	; 0x29
    1ed6:	9a a5       	ldd	r25, Y+42	; 0x2a
    1ed8:	2f a1       	ldd	r18, Y+39	; 0x27
    1eda:	38 a5       	ldd	r19, Y+40	; 0x28
    1edc:	82 0f       	add	r24, r18
    1ede:	93 1f       	adc	r25, r19
    1ee0:	d4 01       	movw	r26, r8
    1ee2:	11 96       	adiw	r26, 0x01	; 1
    1ee4:	9c 93       	st	X, r25
    1ee6:	8e 93       	st	-X, r24
				*sqBas = ((1 * 10) + (n + 1));
    1ee8:	8b a5       	ldd	r24, Y+43	; 0x2b
    1eea:	85 5f       	subi	r24, 0xF5	; 245
    1eec:	f3 01       	movw	r30, r6
    1eee:	80 83       	st	Z, r24
				ns_vg::lenTubuExl = exLen;
    1ef0:	8f a1       	ldd	r24, Y+39	; 0x27
    1ef2:	98 a5       	ldd	r25, Y+40	; 0x28
    1ef4:	90 93 06 02 	sts	0x0206, r25	; 0x800206 <_ZN5ns_vg10lenTubuExlE+0x1>
    1ef8:	80 93 05 02 	sts	0x0205, r24	; 0x800205 <_ZN5ns_vg10lenTubuExlE>
				sendTele(*dlina, (*sqBas), base, exLen);
    1efc:	2f a1       	ldd	r18, Y+39	; 0x27
    1efe:	38 a5       	ldd	r19, Y+40	; 0x28
    1f00:	49 a5       	ldd	r20, Y+41	; 0x29
    1f02:	5a a5       	ldd	r21, Y+42	; 0x2a
    1f04:	60 81       	ld	r22, Z
    1f06:	8d 91       	ld	r24, X+
    1f08:	9c 91       	ld	r25, X
    1f0a:	c5 d8       	rcall	.-3702   	; 0x1096 <_ZN7ns_line8sendTeleEjajj>
				mode = 1;
    1f0c:	81 e0       	ldi	r24, 0x01	; 1
    1f0e:	80 93 10 01 	sts	0x0110, r24	; 0x800110 <_ZN7ns_line4modeE>
				return 1;
    1f12:	bb 24       	eor	r11, r11
    1f14:	b3 94       	inc	r11
    1f16:	4c c3       	rjmp	.+1688   	; 0x25b0 <_ZN7ns_line6RenderEPjPa+0x135a>
			}
			if ( exN == 3 )
    1f18:	93 30       	cpi	r25, 0x03	; 3
    1f1a:	09 f0       	breq	.+2      	; 0x1f1e <_ZN7ns_line6RenderEPjPa+0xcc8>
    1f1c:	a6 c0       	rjmp	.+332    	; 0x206a <_ZN7ns_line6RenderEPjPa+0xe14>
			{	// 2013 = -488	base[(n+1)-1]	- ex	:	(n+1)-1
				base = distance[n+1] - distance[1];
    1f1e:	eb a5       	ldd	r30, Y+43	; 0x2b
    1f20:	f0 e0       	ldi	r31, 0x00	; 0
    1f22:	ee 0f       	add	r30, r30
    1f24:	ff 1f       	adc	r31, r31
    1f26:	e8 5f       	subi	r30, 0xF8	; 248
    1f28:	fe 4f       	sbci	r31, 0xFE	; 254
    1f2a:	80 81       	ld	r24, Z
    1f2c:	91 81       	ldd	r25, Z+1	; 0x01
    1f2e:	20 91 08 01 	lds	r18, 0x0108	; 0x800108 <_ZN7ns_line8distanceE+0x2>
    1f32:	30 91 09 01 	lds	r19, 0x0109	; 0x800109 <_ZN7ns_line8distanceE+0x3>
    1f36:	82 1b       	sub	r24, r18
    1f38:	93 0b       	sbc	r25, r19
    1f3a:	9a a7       	std	Y+42, r25	; 0x2a
    1f3c:	89 a7       	std	Y+41, r24	; 0x29
				exLen = (uint16_t)( ( ( ((uint64_t)10) * ((uint64_t)extendT) * ((uint64_t)sampleD)  / ((uint64_t)sampleT) ) + 5) / 10);
    1f3e:	8d 8d       	ldd	r24, Y+29	; 0x1d
    1f40:	9e 8d       	ldd	r25, Y+30	; 0x1e
    1f42:	af 8d       	ldd	r26, Y+31	; 0x1f
    1f44:	b8 a1       	ldd	r27, Y+32	; 0x20
    1f46:	ed a1       	ldd	r30, Y+37	; 0x25
    1f48:	fe a1       	ldd	r31, Y+38	; 0x26
    1f4a:	29 a0       	ldd	r2, Y+33	; 0x21
    1f4c:	3a a0       	ldd	r3, Y+34	; 0x22
    1f4e:	4b a0       	ldd	r4, Y+35	; 0x23
    1f50:	5c a0       	ldd	r5, Y+36	; 0x24
    1f52:	5c 01       	movw	r10, r24
    1f54:	6d 01       	movw	r12, r26
    1f56:	e1 2c       	mov	r14, r1
    1f58:	f1 2c       	mov	r15, r1
    1f5a:	87 01       	movw	r16, r14
    1f5c:	8c a7       	std	Y+44, r24	; 0x2c
    1f5e:	bd a6       	std	Y+45, r11	; 0x2d
    1f60:	ce a6       	std	Y+46, r12	; 0x2e
    1f62:	df a6       	std	Y+47, r13	; 0x2f
    1f64:	e8 aa       	std	Y+48, r14	; 0x30
    1f66:	f9 aa       	std	Y+49, r15	; 0x31
    1f68:	0a ab       	std	Y+50, r16	; 0x32
    1f6a:	1b ab       	std	Y+51, r17	; 0x33
    1f6c:	8f 01       	movw	r16, r30
    1f6e:	ae 2e       	mov	r10, r30
    1f70:	b1 2e       	mov	r11, r17
    1f72:	c1 2c       	mov	r12, r1
    1f74:	d1 2c       	mov	r13, r1
    1f76:	e1 2c       	mov	r14, r1
    1f78:	f1 2c       	mov	r15, r1
    1f7a:	00 e0       	ldi	r16, 0x00	; 0
    1f7c:	10 e0       	ldi	r17, 0x00	; 0
    1f7e:	2c a5       	ldd	r18, Y+44	; 0x2c
    1f80:	3d a5       	ldd	r19, Y+45	; 0x2d
    1f82:	4e a5       	ldd	r20, Y+46	; 0x2e
    1f84:	5f a5       	ldd	r21, Y+47	; 0x2f
    1f86:	60 e0       	ldi	r22, 0x00	; 0
    1f88:	70 e0       	ldi	r23, 0x00	; 0
    1f8a:	80 e0       	ldi	r24, 0x00	; 0
    1f8c:	90 e0       	ldi	r25, 0x00	; 0
    1f8e:	0e 94 4d 30 	call	0x609a	; 0x609a <__muldi3>
    1f92:	01 e0       	ldi	r16, 0x01	; 1
    1f94:	0e 94 fc 30 	call	0x61f8	; 0x61f8 <__ashldi3>
    1f98:	2c a7       	std	Y+44, r18	; 0x2c
    1f9a:	3c ab       	std	Y+52, r19	; 0x34
    1f9c:	4d ab       	std	Y+53, r20	; 0x35
    1f9e:	5e ab       	std	Y+54, r21	; 0x36
    1fa0:	b6 2f       	mov	r27, r22
    1fa2:	a7 2f       	mov	r26, r23
    1fa4:	f8 2f       	mov	r31, r24
    1fa6:	e9 2f       	mov	r30, r25
    1fa8:	7a 2f       	mov	r23, r26
    1faa:	8f 2f       	mov	r24, r31
    1fac:	9e 2f       	mov	r25, r30
    1fae:	02 e0       	ldi	r16, 0x02	; 2
    1fb0:	0e 94 fc 30 	call	0x61f8	; 0x61f8 <__ashldi3>
    1fb4:	a2 2e       	mov	r10, r18
    1fb6:	b3 2e       	mov	r11, r19
    1fb8:	c4 2e       	mov	r12, r20
    1fba:	d5 2e       	mov	r13, r21
    1fbc:	e6 2e       	mov	r14, r22
    1fbe:	f7 2e       	mov	r15, r23
    1fc0:	08 2f       	mov	r16, r24
    1fc2:	19 2f       	mov	r17, r25
    1fc4:	2c a5       	ldd	r18, Y+44	; 0x2c
    1fc6:	3c a9       	ldd	r19, Y+52	; 0x34
    1fc8:	4d a9       	ldd	r20, Y+53	; 0x35
    1fca:	5e a9       	ldd	r21, Y+54	; 0x36
    1fcc:	6b 2f       	mov	r22, r27
    1fce:	7a 2f       	mov	r23, r26
    1fd0:	8f 2f       	mov	r24, r31
    1fd2:	9e 2f       	mov	r25, r30
    1fd4:	0e 94 15 31 	call	0x622a	; 0x622a <__adddi3>
    1fd8:	62 01       	movw	r12, r4
    1fda:	51 01       	movw	r10, r2
    1fdc:	e1 2c       	mov	r14, r1
    1fde:	f1 2c       	mov	r15, r1
    1fe0:	87 01       	movw	r16, r14
    1fe2:	2c a6       	std	Y+44, r2	; 0x2c
    1fe4:	bd a6       	std	Y+45, r11	; 0x2d
    1fe6:	ce a6       	std	Y+46, r12	; 0x2e
    1fe8:	df a6       	std	Y+47, r13	; 0x2f
    1fea:	e8 aa       	std	Y+48, r14	; 0x30
    1fec:	f9 aa       	std	Y+49, r15	; 0x31
    1fee:	0a ab       	std	Y+50, r16	; 0x32
    1ff0:	1b ab       	std	Y+51, r17	; 0x33
    1ff2:	e1 2c       	mov	r14, r1
    1ff4:	f1 2c       	mov	r15, r1
    1ff6:	00 e0       	ldi	r16, 0x00	; 0
    1ff8:	10 e0       	ldi	r17, 0x00	; 0
    1ffa:	0e 94 a0 30 	call	0x6140	; 0x6140 <__udivdi3>
    1ffe:	a5 e0       	ldi	r26, 0x05	; 5
    2000:	0e 94 1e 31 	call	0x623c	; 0x623c <__adddi3_s8>
    2004:	0f 2e       	mov	r0, r31
    2006:	fa e0       	ldi	r31, 0x0A	; 10
    2008:	af 2e       	mov	r10, r31
    200a:	f0 2d       	mov	r31, r0
    200c:	b1 2c       	mov	r11, r1
    200e:	c1 2c       	mov	r12, r1
    2010:	d1 2c       	mov	r13, r1
    2012:	0e 94 a0 30 	call	0x6140	; 0x6140 <__udivdi3>
    2016:	82 2f       	mov	r24, r18
    2018:	93 2f       	mov	r25, r19
    201a:	98 a7       	std	Y+40, r25	; 0x28
    201c:	8f a3       	std	Y+39, r24	; 0x27
				*dlina = base - exLen;
    201e:	89 a5       	ldd	r24, Y+41	; 0x29
    2020:	9a a5       	ldd	r25, Y+42	; 0x2a
    2022:	2f a1       	ldd	r18, Y+39	; 0x27
    2024:	38 a5       	ldd	r19, Y+40	; 0x28
    2026:	82 1b       	sub	r24, r18
    2028:	93 0b       	sbc	r25, r19
    202a:	d4 01       	movw	r26, r8
    202c:	11 96       	adiw	r26, 0x01	; 1
    202e:	9c 93       	st	X, r25
    2030:	8e 93       	st	-X, r24
				*sqBas = -((1 * 10) + (n + 1));
    2032:	9b a5       	ldd	r25, Y+43	; 0x2b
    2034:	85 ef       	ldi	r24, 0xF5	; 245
    2036:	89 1b       	sub	r24, r25
    2038:	f3 01       	movw	r30, r6
    203a:	80 83       	st	Z, r24
				ns_vg::lenTubuExl = -exLen;
    203c:	8f a1       	ldd	r24, Y+39	; 0x27
    203e:	98 a5       	ldd	r25, Y+40	; 0x28
    2040:	91 95       	neg	r25
    2042:	81 95       	neg	r24
    2044:	91 09       	sbc	r25, r1
    2046:	90 93 06 02 	sts	0x0206, r25	; 0x800206 <_ZN5ns_vg10lenTubuExlE+0x1>
    204a:	80 93 05 02 	sts	0x0205, r24	; 0x800205 <_ZN5ns_vg10lenTubuExlE>
				sendTele(*dlina, (*sqBas), base, exLen);
    204e:	2f a1       	ldd	r18, Y+39	; 0x27
    2050:	38 a5       	ldd	r19, Y+40	; 0x28
    2052:	49 a5       	ldd	r20, Y+41	; 0x29
    2054:	5a a5       	ldd	r21, Y+42	; 0x2a
    2056:	60 81       	ld	r22, Z
    2058:	8d 91       	ld	r24, X+
    205a:	9c 91       	ld	r25, X
    205c:	1c d8       	rcall	.-4040   	; 0x1096 <_ZN7ns_line8sendTeleEjajj>
				mode = 1;
    205e:	81 e0       	ldi	r24, 0x01	; 1
    2060:	80 93 10 01 	sts	0x0110, r24	; 0x800110 <_ZN7ns_line4modeE>
				return 1;
    2064:	bb 24       	eor	r11, r11
    2066:	b3 94       	inc	r11
    2068:	a3 c2       	rjmp	.+1350   	; 0x25b0 <_ZN7ns_line6RenderEPjPa+0x135a>
			}
			if ( exN == 4 )
    206a:	94 30       	cpi	r25, 0x04	; 4
    206c:	09 f0       	breq	.+2      	; 0x2070 <_ZN7ns_line6RenderEPjPa+0xe1a>
    206e:	a6 c0       	rjmp	.+332    	; 0x21bc <_ZN7ns_line6RenderEPjPa+0xf66>
			{	// 2013 = -988	base[(n+1)-0]	- ex	:	(n+1)-0
				base = distance[n+1] - distance[0];
    2070:	eb a5       	ldd	r30, Y+43	; 0x2b
    2072:	f0 e0       	ldi	r31, 0x00	; 0
    2074:	ee 0f       	add	r30, r30
    2076:	ff 1f       	adc	r31, r31
    2078:	e8 5f       	subi	r30, 0xF8	; 248
    207a:	fe 4f       	sbci	r31, 0xFE	; 254
    207c:	80 81       	ld	r24, Z
    207e:	91 81       	ldd	r25, Z+1	; 0x01
    2080:	20 91 06 01 	lds	r18, 0x0106	; 0x800106 <_ZN7ns_line8distanceE>
    2084:	30 91 07 01 	lds	r19, 0x0107	; 0x800107 <_ZN7ns_line8distanceE+0x1>
    2088:	82 1b       	sub	r24, r18
    208a:	93 0b       	sbc	r25, r19
    208c:	9a a7       	std	Y+42, r25	; 0x2a
    208e:	89 a7       	std	Y+41, r24	; 0x29
				exLen = (uint16_t)( ( ( ((uint64_t)10) * ((uint64_t)extendT) * ((uint64_t)sampleD) / ((uint64_t)sampleT) ) + 5) / 10);
    2090:	8d 8d       	ldd	r24, Y+29	; 0x1d
    2092:	9e 8d       	ldd	r25, Y+30	; 0x1e
    2094:	af 8d       	ldd	r26, Y+31	; 0x1f
    2096:	b8 a1       	ldd	r27, Y+32	; 0x20
    2098:	ed a1       	ldd	r30, Y+37	; 0x25
    209a:	fe a1       	ldd	r31, Y+38	; 0x26
    209c:	29 a0       	ldd	r2, Y+33	; 0x21
    209e:	3a a0       	ldd	r3, Y+34	; 0x22
    20a0:	4b a0       	ldd	r4, Y+35	; 0x23
    20a2:	5c a0       	ldd	r5, Y+36	; 0x24
    20a4:	5c 01       	movw	r10, r24
    20a6:	6d 01       	movw	r12, r26
    20a8:	e1 2c       	mov	r14, r1
    20aa:	f1 2c       	mov	r15, r1
    20ac:	87 01       	movw	r16, r14
    20ae:	8c a7       	std	Y+44, r24	; 0x2c
    20b0:	bd a6       	std	Y+45, r11	; 0x2d
    20b2:	ce a6       	std	Y+46, r12	; 0x2e
    20b4:	df a6       	std	Y+47, r13	; 0x2f
    20b6:	e8 aa       	std	Y+48, r14	; 0x30
    20b8:	f9 aa       	std	Y+49, r15	; 0x31
    20ba:	0a ab       	std	Y+50, r16	; 0x32
    20bc:	1b ab       	std	Y+51, r17	; 0x33
    20be:	8f 01       	movw	r16, r30
    20c0:	ae 2e       	mov	r10, r30
    20c2:	b1 2e       	mov	r11, r17
    20c4:	c1 2c       	mov	r12, r1
    20c6:	d1 2c       	mov	r13, r1
    20c8:	e1 2c       	mov	r14, r1
    20ca:	f1 2c       	mov	r15, r1
    20cc:	00 e0       	ldi	r16, 0x00	; 0
    20ce:	10 e0       	ldi	r17, 0x00	; 0
    20d0:	2c a5       	ldd	r18, Y+44	; 0x2c
    20d2:	3d a5       	ldd	r19, Y+45	; 0x2d
    20d4:	4e a5       	ldd	r20, Y+46	; 0x2e
    20d6:	5f a5       	ldd	r21, Y+47	; 0x2f
    20d8:	60 e0       	ldi	r22, 0x00	; 0
    20da:	70 e0       	ldi	r23, 0x00	; 0
    20dc:	80 e0       	ldi	r24, 0x00	; 0
    20de:	90 e0       	ldi	r25, 0x00	; 0
    20e0:	0e 94 4d 30 	call	0x609a	; 0x609a <__muldi3>
    20e4:	01 e0       	ldi	r16, 0x01	; 1
    20e6:	0e 94 fc 30 	call	0x61f8	; 0x61f8 <__ashldi3>
    20ea:	2c a7       	std	Y+44, r18	; 0x2c
    20ec:	3c ab       	std	Y+52, r19	; 0x34
    20ee:	4d ab       	std	Y+53, r20	; 0x35
    20f0:	5e ab       	std	Y+54, r21	; 0x36
    20f2:	b6 2f       	mov	r27, r22
    20f4:	a7 2f       	mov	r26, r23
    20f6:	f8 2f       	mov	r31, r24
    20f8:	e9 2f       	mov	r30, r25
    20fa:	7a 2f       	mov	r23, r26
    20fc:	8f 2f       	mov	r24, r31
    20fe:	9e 2f       	mov	r25, r30
    2100:	02 e0       	ldi	r16, 0x02	; 2
    2102:	0e 94 fc 30 	call	0x61f8	; 0x61f8 <__ashldi3>
    2106:	a2 2e       	mov	r10, r18
    2108:	b3 2e       	mov	r11, r19
    210a:	c4 2e       	mov	r12, r20
    210c:	d5 2e       	mov	r13, r21
    210e:	e6 2e       	mov	r14, r22
    2110:	f7 2e       	mov	r15, r23
    2112:	08 2f       	mov	r16, r24
    2114:	19 2f       	mov	r17, r25
    2116:	2c a5       	ldd	r18, Y+44	; 0x2c
    2118:	3c a9       	ldd	r19, Y+52	; 0x34
    211a:	4d a9       	ldd	r20, Y+53	; 0x35
    211c:	5e a9       	ldd	r21, Y+54	; 0x36
    211e:	6b 2f       	mov	r22, r27
    2120:	7a 2f       	mov	r23, r26
    2122:	8f 2f       	mov	r24, r31
    2124:	9e 2f       	mov	r25, r30
    2126:	0e 94 15 31 	call	0x622a	; 0x622a <__adddi3>
    212a:	62 01       	movw	r12, r4
    212c:	51 01       	movw	r10, r2
    212e:	e1 2c       	mov	r14, r1
    2130:	f1 2c       	mov	r15, r1
    2132:	87 01       	movw	r16, r14
    2134:	2c a6       	std	Y+44, r2	; 0x2c
    2136:	bd a6       	std	Y+45, r11	; 0x2d
    2138:	ce a6       	std	Y+46, r12	; 0x2e
    213a:	df a6       	std	Y+47, r13	; 0x2f
    213c:	e8 aa       	std	Y+48, r14	; 0x30
    213e:	f9 aa       	std	Y+49, r15	; 0x31
    2140:	0a ab       	std	Y+50, r16	; 0x32
    2142:	1b ab       	std	Y+51, r17	; 0x33
    2144:	e1 2c       	mov	r14, r1
    2146:	f1 2c       	mov	r15, r1
    2148:	00 e0       	ldi	r16, 0x00	; 0
    214a:	10 e0       	ldi	r17, 0x00	; 0
    214c:	0e 94 a0 30 	call	0x6140	; 0x6140 <__udivdi3>
    2150:	a5 e0       	ldi	r26, 0x05	; 5
    2152:	0e 94 1e 31 	call	0x623c	; 0x623c <__adddi3_s8>
    2156:	0f 2e       	mov	r0, r31
    2158:	fa e0       	ldi	r31, 0x0A	; 10
    215a:	af 2e       	mov	r10, r31
    215c:	f0 2d       	mov	r31, r0
    215e:	b1 2c       	mov	r11, r1
    2160:	c1 2c       	mov	r12, r1
    2162:	d1 2c       	mov	r13, r1
    2164:	0e 94 a0 30 	call	0x6140	; 0x6140 <__udivdi3>
    2168:	82 2f       	mov	r24, r18
    216a:	93 2f       	mov	r25, r19
    216c:	98 a7       	std	Y+40, r25	; 0x28
    216e:	8f a3       	std	Y+39, r24	; 0x27
				*dlina = base - exLen;
    2170:	89 a5       	ldd	r24, Y+41	; 0x29
    2172:	9a a5       	ldd	r25, Y+42	; 0x2a
    2174:	2f a1       	ldd	r18, Y+39	; 0x27
    2176:	38 a5       	ldd	r19, Y+40	; 0x28
    2178:	82 1b       	sub	r24, r18
    217a:	93 0b       	sbc	r25, r19
    217c:	d4 01       	movw	r26, r8
    217e:	11 96       	adiw	r26, 0x01	; 1
    2180:	9c 93       	st	X, r25
    2182:	8e 93       	st	-X, r24
				*sqBas = -((0 * 10) + (n + 1));
    2184:	8b a5       	ldd	r24, Y+43	; 0x2b
    2186:	80 95       	com	r24
    2188:	f3 01       	movw	r30, r6
    218a:	80 83       	st	Z, r24
				ns_vg::lenTubuExl = -exLen;
    218c:	8f a1       	ldd	r24, Y+39	; 0x27
    218e:	98 a5       	ldd	r25, Y+40	; 0x28
    2190:	91 95       	neg	r25
    2192:	81 95       	neg	r24
    2194:	91 09       	sbc	r25, r1
    2196:	90 93 06 02 	sts	0x0206, r25	; 0x800206 <_ZN5ns_vg10lenTubuExlE+0x1>
    219a:	80 93 05 02 	sts	0x0205, r24	; 0x800205 <_ZN5ns_vg10lenTubuExlE>
				sendTele(*dlina, (*sqBas), base, exLen);
    219e:	2f a1       	ldd	r18, Y+39	; 0x27
    21a0:	38 a5       	ldd	r19, Y+40	; 0x28
    21a2:	49 a5       	ldd	r20, Y+41	; 0x29
    21a4:	5a a5       	ldd	r21, Y+42	; 0x2a
    21a6:	60 81       	ld	r22, Z
    21a8:	8d 91       	ld	r24, X+
    21aa:	9c 91       	ld	r25, X
    21ac:	0e 94 4b 08 	call	0x1096	; 0x1096 <_ZN7ns_line8sendTeleEjajj>
				mode = 1;
    21b0:	81 e0       	ldi	r24, 0x01	; 1
    21b2:	80 93 10 01 	sts	0x0110, r24	; 0x800110 <_ZN7ns_line4modeE>
				return 1;
    21b6:	bb 24       	eor	r11, r11
    21b8:	b3 94       	inc	r11
    21ba:	fa c1       	rjmp	.+1012   	; 0x25b0 <_ZN7ns_line6RenderEPjPa+0x135a>
			}
		}
			ns_rs232::String_P(PSTR("unknow error\r\n\r\n"));
    21bc:	8c e8       	ldi	r24, 0x8C	; 140
    21be:	90 e0       	ldi	r25, 0x00	; 0
    21c0:	0e 94 2b 2f 	call	0x5e56	; 0x5e56 <_ZN8ns_rs2328String_PEPKc>
			mode = 1;
    21c4:	81 e0       	ldi	r24, 0x01	; 1
    21c6:	80 93 10 01 	sts	0x0110, r24	; 0x800110 <_ZN7ns_line4modeE>
			return 0;
    21ca:	f2 c1       	rjmp	.+996    	; 0x25b0 <_ZN7ns_line6RenderEPjPa+0x135a>
		ns_rs232::String_P(PSTR("\r\n") );
	}
	//
	uint8_t Render(uint16_t* dlina, int8_t* sqBas)
	{
		if (mode != 0) return 0; // no render mode
    21cc:	b1 2c       	mov	r11, r1
    21ce:	f0 c1       	rjmp	.+992    	; 0x25b0 <_ZN7ns_line6RenderEPjPa+0x135a>
			return 1;
		}
		else
		if ( (times[0][1] >= times[4][0]) && (times[4][0] != 0) )
		{	// tube long d1-d5
			base = distance[4] - distance[0];
    21d0:	80 91 0e 01 	lds	r24, 0x010E	; 0x80010e <_ZN7ns_line8distanceE+0x8>
    21d4:	90 91 0f 01 	lds	r25, 0x010F	; 0x80010f <_ZN7ns_line8distanceE+0x9>
    21d8:	8c 19       	sub	r24, r12
    21da:	9d 09       	sbc	r25, r13
    21dc:	9a a7       	std	Y+42, r25	; 0x2a
    21de:	89 a7       	std	Y+41, r24	; 0x29
			extendT = times[0][1] - times[4][0];
    21e0:	e3 e5       	ldi	r30, 0x53	; 83
    21e2:	f1 e0       	ldi	r31, 0x01	; 1
    21e4:	84 81       	ldd	r24, Z+4	; 0x04
    21e6:	95 81       	ldd	r25, Z+5	; 0x05
    21e8:	a6 81       	ldd	r26, Z+6	; 0x06
    21ea:	b7 81       	ldd	r27, Z+7	; 0x07
    21ec:	40 a1       	ldd	r20, Z+32	; 0x20
    21ee:	51 a1       	ldd	r21, Z+33	; 0x21
    21f0:	62 a1       	ldd	r22, Z+34	; 0x22
    21f2:	73 a1       	ldd	r23, Z+35	; 0x23
    21f4:	84 1b       	sub	r24, r20
    21f6:	95 0b       	sbc	r25, r21
    21f8:	a6 0b       	sbc	r26, r22
    21fa:	b7 0b       	sbc	r27, r23
    21fc:	8d 8f       	std	Y+29, r24	; 0x1d
    21fe:	9e 8f       	std	Y+30, r25	; 0x1e
    2200:	af 8f       	std	Y+31, r26	; 0x1f
    2202:	b8 a3       	std	Y+32, r27	; 0x20
			exLen = (uint16_t)( ((uint64_t)extendT) * ((uint64_t)sampleD) / ((uint64_t)sampleT) );
    2204:	0d 8d       	ldd	r16, Y+29	; 0x1d
    2206:	1e 8d       	ldd	r17, Y+30	; 0x1e
    2208:	2f 8d       	ldd	r18, Y+31	; 0x1f
    220a:	38 a1       	ldd	r19, Y+32	; 0x20
    220c:	ed a1       	ldd	r30, Y+37	; 0x25
    220e:	fe a1       	ldd	r31, Y+38	; 0x26
    2210:	29 a0       	ldd	r2, Y+33	; 0x21
    2212:	3a a0       	ldd	r3, Y+34	; 0x22
    2214:	4b a0       	ldd	r4, Y+35	; 0x23
    2216:	5c a0       	ldd	r5, Y+36	; 0x24
    2218:	af 01       	movw	r20, r30
    221a:	60 e0       	ldi	r22, 0x00	; 0
    221c:	70 e0       	ldi	r23, 0x00	; 0
    221e:	80 e0       	ldi	r24, 0x00	; 0
    2220:	90 e0       	ldi	r25, 0x00	; 0
    2222:	dc 01       	movw	r26, r24
    2224:	ec a7       	std	Y+44, r30	; 0x2c
    2226:	5d a7       	std	Y+45, r21	; 0x2d
    2228:	6e a7       	std	Y+46, r22	; 0x2e
    222a:	7f a7       	std	Y+47, r23	; 0x2f
    222c:	88 ab       	std	Y+48, r24	; 0x30
    222e:	99 ab       	std	Y+49, r25	; 0x31
    2230:	aa ab       	std	Y+50, r26	; 0x32
    2232:	bb ab       	std	Y+51, r27	; 0x33
    2234:	a0 2e       	mov	r10, r16
    2236:	b1 2e       	mov	r11, r17
    2238:	c2 2e       	mov	r12, r18
    223a:	d3 2e       	mov	r13, r19
    223c:	e1 2c       	mov	r14, r1
    223e:	f1 2c       	mov	r15, r1
    2240:	00 e0       	ldi	r16, 0x00	; 0
    2242:	10 e0       	ldi	r17, 0x00	; 0
    2244:	2c a5       	ldd	r18, Y+44	; 0x2c
    2246:	3d a5       	ldd	r19, Y+45	; 0x2d
    2248:	40 e0       	ldi	r20, 0x00	; 0
    224a:	50 e0       	ldi	r21, 0x00	; 0
    224c:	60 e0       	ldi	r22, 0x00	; 0
    224e:	70 e0       	ldi	r23, 0x00	; 0
    2250:	80 e0       	ldi	r24, 0x00	; 0
    2252:	90 e0       	ldi	r25, 0x00	; 0
    2254:	0e 94 4d 30 	call	0x609a	; 0x609a <__muldi3>
    2258:	62 01       	movw	r12, r4
    225a:	51 01       	movw	r10, r2
    225c:	e1 2c       	mov	r14, r1
    225e:	f1 2c       	mov	r15, r1
    2260:	87 01       	movw	r16, r14
    2262:	2c a6       	std	Y+44, r2	; 0x2c
    2264:	bd a6       	std	Y+45, r11	; 0x2d
    2266:	ce a6       	std	Y+46, r12	; 0x2e
    2268:	df a6       	std	Y+47, r13	; 0x2f
    226a:	e8 aa       	std	Y+48, r14	; 0x30
    226c:	f9 aa       	std	Y+49, r15	; 0x31
    226e:	0a ab       	std	Y+50, r16	; 0x32
    2270:	1b ab       	std	Y+51, r17	; 0x33
    2272:	e1 2c       	mov	r14, r1
    2274:	f1 2c       	mov	r15, r1
    2276:	00 e0       	ldi	r16, 0x00	; 0
    2278:	10 e0       	ldi	r17, 0x00	; 0
    227a:	0e 94 a0 30 	call	0x6140	; 0x6140 <__udivdi3>
    227e:	82 2f       	mov	r24, r18
    2280:	93 2f       	mov	r25, r19
    2282:	98 a7       	std	Y+40, r25	; 0x28
    2284:	8f a3       	std	Y+39, r24	; 0x27
			*dlina = base + exLen;
    2286:	89 a5       	ldd	r24, Y+41	; 0x29
    2288:	9a a5       	ldd	r25, Y+42	; 0x2a
    228a:	2f a1       	ldd	r18, Y+39	; 0x27
    228c:	38 a5       	ldd	r19, Y+40	; 0x28
    228e:	82 0f       	add	r24, r18
    2290:	93 1f       	adc	r25, r19
    2292:	d4 01       	movw	r26, r8
    2294:	11 96       	adiw	r26, 0x01	; 1
    2296:	9c 93       	st	X, r25
    2298:	8e 93       	st	-X, r24
			ns_vg::lenTubuStat = 1;
    229a:	11 e0       	ldi	r17, 0x01	; 1
    229c:	10 93 03 02 	sts	0x0203, r17	; 0x800203 <_ZN5ns_vg11lenTubuStatE>
			ns_vg::exN = 9;
    22a0:	89 e0       	ldi	r24, 0x09	; 9
    22a2:	80 93 01 02 	sts	0x0201, r24	; 0x800201 <_ZN5ns_vg3exNE>
			ns_vg::lenTubuExl = exLen;
    22a6:	8f a1       	ldd	r24, Y+39	; 0x27
    22a8:	98 a5       	ldd	r25, Y+40	; 0x28
    22aa:	90 93 06 02 	sts	0x0206, r25	; 0x800206 <_ZN5ns_vg10lenTubuExlE+0x1>
    22ae:	80 93 05 02 	sts	0x0205, r24	; 0x800205 <_ZN5ns_vg10lenTubuExlE>
			*sqBas = 04;
    22b2:	84 e0       	ldi	r24, 0x04	; 4
    22b4:	f3 01       	movw	r30, r6
    22b6:	80 83       	st	Z, r24
			sendTele(*dlina, *sqBas, base, exLen);
    22b8:	2f a1       	ldd	r18, Y+39	; 0x27
    22ba:	38 a5       	ldd	r19, Y+40	; 0x28
    22bc:	49 a5       	ldd	r20, Y+41	; 0x29
    22be:	5a a5       	ldd	r21, Y+42	; 0x2a
    22c0:	64 e0       	ldi	r22, 0x04	; 4
    22c2:	8d 91       	ld	r24, X+
    22c4:	9c 91       	ld	r25, X
    22c6:	0e 94 4b 08 	call	0x1096	; 0x1096 <_ZN7ns_line8sendTeleEjajj>
			ns_vg::sqBas = *sqBas;
    22ca:	d3 01       	movw	r26, r6
    22cc:	8c 91       	ld	r24, X
    22ce:	80 93 02 02 	sts	0x0202, r24	; 0x800202 <_ZN5ns_vg5sqBasE>
			mode = 1;
    22d2:	10 93 10 01 	sts	0x0110, r17	; 0x800110 <_ZN7ns_line4modeE>
			return 1;
    22d6:	bb 24       	eor	r11, r11
    22d8:	b3 94       	inc	r11
    22da:	6a c1       	rjmp	.+724    	; 0x25b0 <_ZN7ns_line6RenderEPjPa+0x135a>
		}
		else
		{
			// find right sensor
			for (n = 2; n < 4; n++)
    22dc:	82 e0       	ldi	r24, 0x02	; 2
    22de:	8b a7       	std	Y+43, r24	; 0x2b
    22e0:	8b a5       	ldd	r24, Y+43	; 0x2b
    22e2:	84 30       	cpi	r24, 0x04	; 4
    22e4:	08 f4       	brcc	.+2      	; 0x22e8 <_ZN7ns_line6RenderEPjPa+0x1092>
    22e6:	c6 c8       	rjmp	.-3700   	; 0x1474 <_ZN7ns_line6RenderEPjPa+0x21e>
    22e8:	8e 01       	movw	r16, r28
    22ea:	0f 5f       	subi	r16, 0xFF	; 255
    22ec:	1f 4f       	sbci	r17, 0xFF	; 255
    22ee:	9e 01       	movw	r18, r28
    22f0:	23 5e       	subi	r18, 0xE3	; 227
    22f2:	3f 4f       	sbci	r19, 0xFF	; 255
		ns_rs232::String_P(PSTR("\r\n") );
		ns_rs232::String_P(PSTR("\r\n") );
	}
	//
	uint8_t Render(uint16_t* dlina, int8_t* sqBas)
	{
    22f4:	f8 01       	movw	r30, r16
				if ( (times[1][1] >= times[n][0]) && (times[1][1] < times[n+1][0]) )
					break;
			}
			
			uint32_t ex[7];
			for (uint8_t i=0; i<7; i++) ex[i] = 99999;
    22f6:	8f e9       	ldi	r24, 0x9F	; 159
    22f8:	96 e8       	ldi	r25, 0x86	; 134
    22fa:	a1 e0       	ldi	r26, 0x01	; 1
    22fc:	b0 e0       	ldi	r27, 0x00	; 0
    22fe:	1a c9       	rjmp	.-3532   	; 0x1534 <_ZN7ns_line6RenderEPjPa+0x2de>
			return 1;
		}
		else
		{
			// find right sensor
			for (n = 2; n < 4; n++)
    2300:	8b a5       	ldd	r24, Y+43	; 0x2b
    2302:	8f 5f       	subi	r24, 0xFF	; 255
    2304:	8b a7       	std	Y+43, r24	; 0x2b
    2306:	8b a5       	ldd	r24, Y+43	; 0x2b
    2308:	84 30       	cpi	r24, 0x04	; 4
    230a:	08 f4       	brcc	.+2      	; 0x230e <_ZN7ns_line6RenderEPjPa+0x10b8>
    230c:	c8 c8       	rjmp	.-3696   	; 0x149e <_ZN7ns_line6RenderEPjPa+0x248>
    230e:	ec cf       	rjmp	.-40     	; 0x22e8 <_ZN7ns_line6RenderEPjPa+0x1092>
			
			// render all metod
			
			if ( (times[n][0] > times[0][1]) && (times[n][0] != 0) && (n < 5) )
					{
						extendT = times[n][0] - times[0][1];		// 1920 = -20	base[n-0]		- ex	:	n-0
    2310:	eb a5       	ldd	r30, Y+43	; 0x2b
    2312:	f0 e0       	ldi	r31, 0x00	; 0
    2314:	ee 0f       	add	r30, r30
    2316:	ff 1f       	adc	r31, r31
    2318:	ee 0f       	add	r30, r30
    231a:	ff 1f       	adc	r31, r31
    231c:	ee 0f       	add	r30, r30
    231e:	ff 1f       	adc	r31, r31
    2320:	ed 5a       	subi	r30, 0xAD	; 173
    2322:	fe 4f       	sbci	r31, 0xFE	; 254
    2324:	80 81       	ld	r24, Z
    2326:	91 81       	ldd	r25, Z+1	; 0x01
    2328:	a2 81       	ldd	r26, Z+2	; 0x02
    232a:	b3 81       	ldd	r27, Z+3	; 0x03
    232c:	40 91 57 01 	lds	r20, 0x0157	; 0x800157 <_ZN7ns_line5timesE+0x4>
    2330:	50 91 58 01 	lds	r21, 0x0158	; 0x800158 <_ZN7ns_line5timesE+0x5>
    2334:	60 91 59 01 	lds	r22, 0x0159	; 0x800159 <_ZN7ns_line5timesE+0x6>
    2338:	70 91 5a 01 	lds	r23, 0x015A	; 0x80015a <_ZN7ns_line5timesE+0x7>
    233c:	84 1b       	sub	r24, r20
    233e:	95 0b       	sbc	r25, r21
    2340:	a6 0b       	sbc	r26, r22
    2342:	b7 0b       	sbc	r27, r23
    2344:	8d 8f       	std	Y+29, r24	; 0x1d
    2346:	9e 8f       	std	Y+30, r25	; 0x1e
    2348:	af 8f       	std	Y+31, r26	; 0x1f
    234a:	b8 a3       	std	Y+32, r27	; 0x20
						ex[0] = extendT;
    234c:	8d 8d       	ldd	r24, Y+29	; 0x1d
    234e:	9e 8d       	ldd	r25, Y+30	; 0x1e
    2350:	af 8d       	ldd	r26, Y+31	; 0x1f
    2352:	b8 a1       	ldd	r27, Y+32	; 0x20
    2354:	89 83       	std	Y+1, r24	; 0x01
    2356:	9a 83       	std	Y+2, r25	; 0x02
    2358:	ab 83       	std	Y+3, r26	; 0x03
    235a:	bc 83       	std	Y+4, r27	; 0x04
    235c:	26 c9       	rjmp	.-3508   	; 0x15aa <_ZN7ns_line6RenderEPjPa+0x354>
					}
			else    ex[0] = 99999;
    235e:	8f e9       	ldi	r24, 0x9F	; 159
    2360:	96 e8       	ldi	r25, 0x86	; 134
    2362:	a1 e0       	ldi	r26, 0x01	; 1
    2364:	b0 e0       	ldi	r27, 0x00	; 0
    2366:	89 83       	std	Y+1, r24	; 0x01
    2368:	9a 83       	std	Y+2, r25	; 0x02
    236a:	ab 83       	std	Y+3, r26	; 0x03
    236c:	bc 83       	std	Y+4, r27	; 0x04
    236e:	1d c9       	rjmp	.-3526   	; 0x15aa <_ZN7ns_line6RenderEPjPa+0x354>
			
			if ( (times[0][1] >= times[n][0]) && (times[n][0] != 0) && (n < 5) )
					{
						extendT = times[0][1] - times[n][0];		// 2013 = +12	base[n-0]		+ ex	:	0-n
    2370:	80 91 57 01 	lds	r24, 0x0157	; 0x800157 <_ZN7ns_line5timesE+0x4>
    2374:	90 91 58 01 	lds	r25, 0x0158	; 0x800158 <_ZN7ns_line5timesE+0x5>
    2378:	a0 91 59 01 	lds	r26, 0x0159	; 0x800159 <_ZN7ns_line5timesE+0x6>
    237c:	b0 91 5a 01 	lds	r27, 0x015A	; 0x80015a <_ZN7ns_line5timesE+0x7>
    2380:	eb a5       	ldd	r30, Y+43	; 0x2b
    2382:	f0 e0       	ldi	r31, 0x00	; 0
    2384:	ee 0f       	add	r30, r30
    2386:	ff 1f       	adc	r31, r31
    2388:	ee 0f       	add	r30, r30
    238a:	ff 1f       	adc	r31, r31
    238c:	ee 0f       	add	r30, r30
    238e:	ff 1f       	adc	r31, r31
    2390:	ed 5a       	subi	r30, 0xAD	; 173
    2392:	fe 4f       	sbci	r31, 0xFE	; 254
    2394:	40 81       	ld	r20, Z
    2396:	51 81       	ldd	r21, Z+1	; 0x01
    2398:	62 81       	ldd	r22, Z+2	; 0x02
    239a:	73 81       	ldd	r23, Z+3	; 0x03
    239c:	84 1b       	sub	r24, r20
    239e:	95 0b       	sbc	r25, r21
    23a0:	a6 0b       	sbc	r26, r22
    23a2:	b7 0b       	sbc	r27, r23
    23a4:	8d 8f       	std	Y+29, r24	; 0x1d
    23a6:	9e 8f       	std	Y+30, r25	; 0x1e
    23a8:	af 8f       	std	Y+31, r26	; 0x1f
    23aa:	b8 a3       	std	Y+32, r27	; 0x20
						ex[1] = extendT;
    23ac:	8d 8d       	ldd	r24, Y+29	; 0x1d
    23ae:	9e 8d       	ldd	r25, Y+30	; 0x1e
    23b0:	af 8d       	ldd	r26, Y+31	; 0x1f
    23b2:	b8 a1       	ldd	r27, Y+32	; 0x20
    23b4:	8d 83       	std	Y+5, r24	; 0x05
    23b6:	9e 83       	std	Y+6, r25	; 0x06
    23b8:	af 83       	std	Y+7, r26	; 0x07
    23ba:	b8 87       	std	Y+8, r27	; 0x08
    23bc:	2a c9       	rjmp	.-3500   	; 0x1612 <_ZN7ns_line6RenderEPjPa+0x3bc>
					}
			else	ex[1] = 99999;
    23be:	8f e9       	ldi	r24, 0x9F	; 159
    23c0:	96 e8       	ldi	r25, 0x86	; 134
    23c2:	a1 e0       	ldi	r26, 0x01	; 1
    23c4:	b0 e0       	ldi	r27, 0x00	; 0
    23c6:	8d 83       	std	Y+5, r24	; 0x05
    23c8:	9e 83       	std	Y+6, r25	; 0x06
    23ca:	af 83       	std	Y+7, r26	; 0x07
    23cc:	b8 87       	std	Y+8, r27	; 0x08
    23ce:	21 c9       	rjmp	.-3518   	; 0x1612 <_ZN7ns_line6RenderEPjPa+0x3bc>
			
			if ( (times[0][1] >= times[n+1][0]) && (times[n+1][0] != 0) && ((n + 1) < 5) )
					{
						extendT = times[0][1] - times[n+1][0];		// 2013 = +xx	base[(n+1)-0]	+ ex	:	0-(n+1)
    23d0:	80 91 57 01 	lds	r24, 0x0157	; 0x800157 <_ZN7ns_line5timesE+0x4>
    23d4:	90 91 58 01 	lds	r25, 0x0158	; 0x800158 <_ZN7ns_line5timesE+0x5>
    23d8:	a0 91 59 01 	lds	r26, 0x0159	; 0x800159 <_ZN7ns_line5timesE+0x6>
    23dc:	b0 91 5a 01 	lds	r27, 0x015A	; 0x80015a <_ZN7ns_line5timesE+0x7>
    23e0:	eb a5       	ldd	r30, Y+43	; 0x2b
    23e2:	f0 e0       	ldi	r31, 0x00	; 0
    23e4:	ee 0f       	add	r30, r30
    23e6:	ff 1f       	adc	r31, r31
    23e8:	ee 0f       	add	r30, r30
    23ea:	ff 1f       	adc	r31, r31
    23ec:	ee 0f       	add	r30, r30
    23ee:	ff 1f       	adc	r31, r31
    23f0:	e5 5a       	subi	r30, 0xA5	; 165
    23f2:	fe 4f       	sbci	r31, 0xFE	; 254
    23f4:	40 81       	ld	r20, Z
    23f6:	51 81       	ldd	r21, Z+1	; 0x01
    23f8:	62 81       	ldd	r22, Z+2	; 0x02
    23fa:	73 81       	ldd	r23, Z+3	; 0x03
    23fc:	84 1b       	sub	r24, r20
    23fe:	95 0b       	sbc	r25, r21
    2400:	a6 0b       	sbc	r26, r22
    2402:	b7 0b       	sbc	r27, r23
    2404:	8d 8f       	std	Y+29, r24	; 0x1d
    2406:	9e 8f       	std	Y+30, r25	; 0x1e
    2408:	af 8f       	std	Y+31, r26	; 0x1f
    240a:	b8 a3       	std	Y+32, r27	; 0x20
						ex[5] = extendT;
    240c:	8d 8d       	ldd	r24, Y+29	; 0x1d
    240e:	9e 8d       	ldd	r25, Y+30	; 0x1e
    2410:	af 8d       	ldd	r26, Y+31	; 0x1f
    2412:	b8 a1       	ldd	r27, Y+32	; 0x20
    2414:	8d 8b       	std	Y+21, r24	; 0x15
    2416:	9e 8b       	std	Y+22, r25	; 0x16
    2418:	af 8b       	std	Y+23, r26	; 0x17
    241a:	b8 8f       	std	Y+24, r27	; 0x18
    241c:	30 c9       	rjmp	.-3488   	; 0x167e <_ZN7ns_line6RenderEPjPa+0x428>
					}
			else	ex[5] = 99999;
    241e:	8f e9       	ldi	r24, 0x9F	; 159
    2420:	96 e8       	ldi	r25, 0x86	; 134
    2422:	a1 e0       	ldi	r26, 0x01	; 1
    2424:	b0 e0       	ldi	r27, 0x00	; 0
    2426:	8d 8b       	std	Y+21, r24	; 0x15
    2428:	9e 8b       	std	Y+22, r25	; 0x16
    242a:	af 8b       	std	Y+23, r26	; 0x17
    242c:	b8 8f       	std	Y+24, r27	; 0x18
    242e:	27 c9       	rjmp	.-3506   	; 0x167e <_ZN7ns_line6RenderEPjPa+0x428>

			if (eeprom_read_byte(&ns_vg::eeFlSq2))
			{
				if ( (times[1][1] >= times[n][0]) && (times[n][0] != 0) && (n < 5) )
						{
							extendT = times[1][1] - times[n][0];		// 2013 = +512	base[n-1]		+ ex	:	1-n
    2430:	80 91 5f 01 	lds	r24, 0x015F	; 0x80015f <_ZN7ns_line5timesE+0xc>
    2434:	90 91 60 01 	lds	r25, 0x0160	; 0x800160 <_ZN7ns_line5timesE+0xd>
    2438:	a0 91 61 01 	lds	r26, 0x0161	; 0x800161 <_ZN7ns_line5timesE+0xe>
    243c:	b0 91 62 01 	lds	r27, 0x0162	; 0x800162 <_ZN7ns_line5timesE+0xf>
    2440:	eb a5       	ldd	r30, Y+43	; 0x2b
    2442:	f0 e0       	ldi	r31, 0x00	; 0
    2444:	ee 0f       	add	r30, r30
    2446:	ff 1f       	adc	r31, r31
    2448:	ee 0f       	add	r30, r30
    244a:	ff 1f       	adc	r31, r31
    244c:	ee 0f       	add	r30, r30
    244e:	ff 1f       	adc	r31, r31
    2450:	ed 5a       	subi	r30, 0xAD	; 173
    2452:	fe 4f       	sbci	r31, 0xFE	; 254
    2454:	40 81       	ld	r20, Z
    2456:	51 81       	ldd	r21, Z+1	; 0x01
    2458:	62 81       	ldd	r22, Z+2	; 0x02
    245a:	73 81       	ldd	r23, Z+3	; 0x03
    245c:	84 1b       	sub	r24, r20
    245e:	95 0b       	sbc	r25, r21
    2460:	a6 0b       	sbc	r26, r22
    2462:	b7 0b       	sbc	r27, r23
    2464:	8d 8f       	std	Y+29, r24	; 0x1d
    2466:	9e 8f       	std	Y+30, r25	; 0x1e
    2468:	af 8f       	std	Y+31, r26	; 0x1f
    246a:	b8 a3       	std	Y+32, r27	; 0x20
							ex[2] = extendT;
    246c:	8d 8d       	ldd	r24, Y+29	; 0x1d
    246e:	9e 8d       	ldd	r25, Y+30	; 0x1e
    2470:	af 8d       	ldd	r26, Y+31	; 0x1f
    2472:	b8 a1       	ldd	r27, Y+32	; 0x20
    2474:	89 87       	std	Y+9, r24	; 0x09
    2476:	9a 87       	std	Y+10, r25	; 0x0a
    2478:	ab 87       	std	Y+11, r26	; 0x0b
    247a:	bc 87       	std	Y+12, r27	; 0x0c
    247c:	3b c9       	rjmp	.-3466   	; 0x16f4 <_ZN7ns_line6RenderEPjPa+0x49e>
						}
				else	ex[2] = 99999;
    247e:	8f e9       	ldi	r24, 0x9F	; 159
    2480:	96 e8       	ldi	r25, 0x86	; 134
    2482:	a1 e0       	ldi	r26, 0x01	; 1
    2484:	b0 e0       	ldi	r27, 0x00	; 0
    2486:	89 87       	std	Y+9, r24	; 0x09
    2488:	9a 87       	std	Y+10, r25	; 0x0a
    248a:	ab 87       	std	Y+11, r26	; 0x0b
    248c:	bc 87       	std	Y+12, r27	; 0x0c
    248e:	32 c9       	rjmp	.-3484   	; 0x16f4 <_ZN7ns_line6RenderEPjPa+0x49e>

				if ( (times[1][1] >= times[n+1][0]) && (times[n+1][0] != 0) && ((n + 1) < 5) )
						{
							extendT = times[1][1] - times[n+1][0];		// 2013 = +xx	base[(n+1)-1]		+ ex	:	1-(n+1)
    2490:	80 91 5f 01 	lds	r24, 0x015F	; 0x80015f <_ZN7ns_line5timesE+0xc>
    2494:	90 91 60 01 	lds	r25, 0x0160	; 0x800160 <_ZN7ns_line5timesE+0xd>
    2498:	a0 91 61 01 	lds	r26, 0x0161	; 0x800161 <_ZN7ns_line5timesE+0xe>
    249c:	b0 91 62 01 	lds	r27, 0x0162	; 0x800162 <_ZN7ns_line5timesE+0xf>
    24a0:	eb a5       	ldd	r30, Y+43	; 0x2b
    24a2:	f0 e0       	ldi	r31, 0x00	; 0
    24a4:	ee 0f       	add	r30, r30
    24a6:	ff 1f       	adc	r31, r31
    24a8:	ee 0f       	add	r30, r30
    24aa:	ff 1f       	adc	r31, r31
    24ac:	ee 0f       	add	r30, r30
    24ae:	ff 1f       	adc	r31, r31
    24b0:	e5 5a       	subi	r30, 0xA5	; 165
    24b2:	fe 4f       	sbci	r31, 0xFE	; 254
    24b4:	40 81       	ld	r20, Z
    24b6:	51 81       	ldd	r21, Z+1	; 0x01
    24b8:	62 81       	ldd	r22, Z+2	; 0x02
    24ba:	73 81       	ldd	r23, Z+3	; 0x03
    24bc:	84 1b       	sub	r24, r20
    24be:	95 0b       	sbc	r25, r21
    24c0:	a6 0b       	sbc	r26, r22
    24c2:	b7 0b       	sbc	r27, r23
    24c4:	8d 8f       	std	Y+29, r24	; 0x1d
    24c6:	9e 8f       	std	Y+30, r25	; 0x1e
    24c8:	af 8f       	std	Y+31, r26	; 0x1f
    24ca:	b8 a3       	std	Y+32, r27	; 0x20
							ex[6] = extendT;
    24cc:	8d 8d       	ldd	r24, Y+29	; 0x1d
    24ce:	9e 8d       	ldd	r25, Y+30	; 0x1e
    24d0:	af 8d       	ldd	r26, Y+31	; 0x1f
    24d2:	b8 a1       	ldd	r27, Y+32	; 0x20
    24d4:	89 8f       	std	Y+25, r24	; 0x19
    24d6:	9a 8f       	std	Y+26, r25	; 0x1a
    24d8:	ab 8f       	std	Y+27, r26	; 0x1b
    24da:	bc 8f       	std	Y+28, r27	; 0x1c
    24dc:	41 c9       	rjmp	.-3454   	; 0x1760 <_ZN7ns_line6RenderEPjPa+0x50a>
						}
				else	ex[6] = 99999;
    24de:	8f e9       	ldi	r24, 0x9F	; 159
    24e0:	96 e8       	ldi	r25, 0x86	; 134
    24e2:	a1 e0       	ldi	r26, 0x01	; 1
    24e4:	b0 e0       	ldi	r27, 0x00	; 0
    24e6:	89 8f       	std	Y+25, r24	; 0x19
    24e8:	9a 8f       	std	Y+26, r25	; 0x1a
    24ea:	ab 8f       	std	Y+27, r26	; 0x1b
    24ec:	bc 8f       	std	Y+28, r27	; 0x1c
    24ee:	38 c9       	rjmp	.-3472   	; 0x1760 <_ZN7ns_line6RenderEPjPa+0x50a>

				if ( (times[n+1][0] > times[1][1]) && (times[n+1][0] != 0) && ((n + 1) < 5) )
						{
							extendT = times[n+1][0] - times[1][1];	// 2013 = -488	base[(n+1)-1]	- ex	:	(n+1)-1
    24f0:	eb a5       	ldd	r30, Y+43	; 0x2b
    24f2:	f0 e0       	ldi	r31, 0x00	; 0
    24f4:	ee 0f       	add	r30, r30
    24f6:	ff 1f       	adc	r31, r31
    24f8:	ee 0f       	add	r30, r30
    24fa:	ff 1f       	adc	r31, r31
    24fc:	ee 0f       	add	r30, r30
    24fe:	ff 1f       	adc	r31, r31
    2500:	e5 5a       	subi	r30, 0xA5	; 165
    2502:	fe 4f       	sbci	r31, 0xFE	; 254
    2504:	80 81       	ld	r24, Z
    2506:	91 81       	ldd	r25, Z+1	; 0x01
    2508:	a2 81       	ldd	r26, Z+2	; 0x02
    250a:	b3 81       	ldd	r27, Z+3	; 0x03
    250c:	40 91 5f 01 	lds	r20, 0x015F	; 0x80015f <_ZN7ns_line5timesE+0xc>
    2510:	50 91 60 01 	lds	r21, 0x0160	; 0x800160 <_ZN7ns_line5timesE+0xd>
    2514:	60 91 61 01 	lds	r22, 0x0161	; 0x800161 <_ZN7ns_line5timesE+0xe>
    2518:	70 91 62 01 	lds	r23, 0x0162	; 0x800162 <_ZN7ns_line5timesE+0xf>
    251c:	84 1b       	sub	r24, r20
    251e:	95 0b       	sbc	r25, r21
    2520:	a6 0b       	sbc	r26, r22
    2522:	b7 0b       	sbc	r27, r23
    2524:	8d 8f       	std	Y+29, r24	; 0x1d
    2526:	9e 8f       	std	Y+30, r25	; 0x1e
    2528:	af 8f       	std	Y+31, r26	; 0x1f
    252a:	b8 a3       	std	Y+32, r27	; 0x20
							ex[3] = extendT;
    252c:	8d 8d       	ldd	r24, Y+29	; 0x1d
    252e:	9e 8d       	ldd	r25, Y+30	; 0x1e
    2530:	af 8d       	ldd	r26, Y+31	; 0x1f
    2532:	b8 a1       	ldd	r27, Y+32	; 0x20
    2534:	8d 87       	std	Y+13, r24	; 0x0d
    2536:	9e 87       	std	Y+14, r25	; 0x0e
    2538:	af 87       	std	Y+15, r26	; 0x0f
    253a:	b8 8b       	std	Y+16, r27	; 0x10
    253c:	47 c9       	rjmp	.-3442   	; 0x17cc <_ZN7ns_line6RenderEPjPa+0x576>
						}
				else	ex[3] = 99999;
    253e:	8f e9       	ldi	r24, 0x9F	; 159
    2540:	96 e8       	ldi	r25, 0x86	; 134
    2542:	a1 e0       	ldi	r26, 0x01	; 1
    2544:	b0 e0       	ldi	r27, 0x00	; 0
    2546:	8d 87       	std	Y+13, r24	; 0x0d
    2548:	9e 87       	std	Y+14, r25	; 0x0e
    254a:	af 87       	std	Y+15, r26	; 0x0f
    254c:	b8 8b       	std	Y+16, r27	; 0x10
    254e:	3e c9       	rjmp	.-3460   	; 0x17cc <_ZN7ns_line6RenderEPjPa+0x576>
			}

			if ( (times[n+1][0] > times[0][1]) && (times[n+1][0] != 0) && ((n + 1) < 5) )
					{
						extendT = times[n+1][0] - times[0][1];	// 2013 = -988	base[(n+1)-0]	- ex	:	(n+1)-0
    2550:	eb a5       	ldd	r30, Y+43	; 0x2b
    2552:	f0 e0       	ldi	r31, 0x00	; 0
    2554:	ee 0f       	add	r30, r30
    2556:	ff 1f       	adc	r31, r31
    2558:	ee 0f       	add	r30, r30
    255a:	ff 1f       	adc	r31, r31
    255c:	ee 0f       	add	r30, r30
    255e:	ff 1f       	adc	r31, r31
    2560:	e5 5a       	subi	r30, 0xA5	; 165
    2562:	fe 4f       	sbci	r31, 0xFE	; 254
    2564:	80 81       	ld	r24, Z
    2566:	91 81       	ldd	r25, Z+1	; 0x01
    2568:	a2 81       	ldd	r26, Z+2	; 0x02
    256a:	b3 81       	ldd	r27, Z+3	; 0x03
    256c:	40 91 57 01 	lds	r20, 0x0157	; 0x800157 <_ZN7ns_line5timesE+0x4>
    2570:	50 91 58 01 	lds	r21, 0x0158	; 0x800158 <_ZN7ns_line5timesE+0x5>
    2574:	60 91 59 01 	lds	r22, 0x0159	; 0x800159 <_ZN7ns_line5timesE+0x6>
    2578:	70 91 5a 01 	lds	r23, 0x015A	; 0x80015a <_ZN7ns_line5timesE+0x7>
    257c:	84 1b       	sub	r24, r20
    257e:	95 0b       	sbc	r25, r21
    2580:	a6 0b       	sbc	r26, r22
    2582:	b7 0b       	sbc	r27, r23
    2584:	8d 8f       	std	Y+29, r24	; 0x1d
    2586:	9e 8f       	std	Y+30, r25	; 0x1e
    2588:	af 8f       	std	Y+31, r26	; 0x1f
    258a:	b8 a3       	std	Y+32, r27	; 0x20
						ex[4] = extendT;
    258c:	8d 8d       	ldd	r24, Y+29	; 0x1d
    258e:	9e 8d       	ldd	r25, Y+30	; 0x1e
    2590:	af 8d       	ldd	r26, Y+31	; 0x1f
    2592:	b8 a1       	ldd	r27, Y+32	; 0x20
    2594:	89 8b       	std	Y+17, r24	; 0x11
    2596:	9a 8b       	std	Y+18, r25	; 0x12
    2598:	ab 8b       	std	Y+19, r26	; 0x13
    259a:	bc 8b       	std	Y+20, r27	; 0x14
    259c:	4d c9       	rjmp	.-3430   	; 0x1838 <_ZN7ns_line6RenderEPjPa+0x5e2>
					}
			else	ex[4] = (uint32_t)99999;
    259e:	8f e9       	ldi	r24, 0x9F	; 159
    25a0:	96 e8       	ldi	r25, 0x86	; 134
    25a2:	a1 e0       	ldi	r26, 0x01	; 1
    25a4:	b0 e0       	ldi	r27, 0x00	; 0
    25a6:	89 8b       	std	Y+17, r24	; 0x11
    25a8:	9a 8b       	std	Y+18, r25	; 0x12
    25aa:	ab 8b       	std	Y+19, r26	; 0x13
    25ac:	bc 8b       	std	Y+20, r27	; 0x14
    25ae:	44 c9       	rjmp	.-3448   	; 0x1838 <_ZN7ns_line6RenderEPjPa+0x5e2>
			}
		}
			ns_rs232::String_P(PSTR("unknow error\r\n\r\n"));
			mode = 1;
			return 0;
	}
    25b0:	8b 2d       	mov	r24, r11
    25b2:	e6 96       	adiw	r28, 0x36	; 54
    25b4:	0f b6       	in	r0, 0x3f	; 63
    25b6:	f8 94       	cli
    25b8:	de bf       	out	0x3e, r29	; 62
    25ba:	0f be       	out	0x3f, r0	; 63
    25bc:	cd bf       	out	0x3d, r28	; 61
    25be:	df 91       	pop	r29
    25c0:	cf 91       	pop	r28
    25c2:	1f 91       	pop	r17
    25c4:	0f 91       	pop	r16
    25c6:	ff 90       	pop	r15
    25c8:	ef 90       	pop	r14
    25ca:	df 90       	pop	r13
    25cc:	cf 90       	pop	r12
    25ce:	bf 90       	pop	r11
    25d0:	af 90       	pop	r10
    25d2:	9f 90       	pop	r9
    25d4:	8f 90       	pop	r8
    25d6:	7f 90       	pop	r7
    25d8:	6f 90       	pop	r6
    25da:	5f 90       	pop	r5
    25dc:	4f 90       	pop	r4
    25de:	3f 90       	pop	r3
    25e0:	2f 90       	pop	r2
    25e2:	08 95       	ret

000025e4 <main>:
#include <avr/interrupt.h>

	//uint16_t bb[2] = {795, 10433};

int main(void)
{
    25e4:	cf 93       	push	r28
    25e6:	df 93       	push	r29
    25e8:	00 d0       	rcall	.+0      	; 0x25ea <main+0x6>
    25ea:	1f 92       	push	r1
    25ec:	cd b7       	in	r28, 0x3d	; 61
    25ee:	de b7       	in	r29, 0x3e	; 62
	ns_line::times[2][1] = 0;
	ns_line::times[3][1] = 0;
	ns_line::times[4][1] = 0;
	ns_line::Render(&dlinaDe, &sqBasDe);
*/
	ns_device::Init();
    25f0:	0e 94 f1 26 	call	0x4de2	; 0x4de2 <_ZN9ns_device4InitEv>
	ns_module::Init();
    25f4:	0e 94 0c 25 	call	0x4a18	; 0x4a18 <_ZN9ns_module4InitEv>
	// ===========
	sei();
    25f8:	78 94       	sei
    /* Replace with your application code */
	uint16_t dlina;
	int8_t sqBas;
	scr::Clear();
    25fa:	0e 94 b1 29 	call	0x5362	; 0x5362 <_ZN6ns_lcd5ClearEv>
	scr::String(scr::SetPosition(0, 0), "Doctor_4");
    25fe:	60 e0       	ldi	r22, 0x00	; 0
    2600:	80 e0       	ldi	r24, 0x00	; 0
    2602:	0e 94 dd 2a 	call	0x55ba	; 0x55ba <_ZN6ns_lcd11SetPositionEhh>
    2606:	61 e3       	ldi	r22, 0x31	; 49
    2608:	71 e0       	ldi	r23, 0x01	; 1
    260a:	0e 94 a5 2b 	call	0x574a	; 0x574a <_ZN6ns_lcd6StringEhPKc>
	ns_rs232::String_P(PSTR("Restart system\r\n\r\n") );
    260e:	82 ee       	ldi	r24, 0xE2	; 226
    2610:	90 e0       	ldi	r25, 0x00	; 0
    2612:	0e 94 2b 2f 	call	0x5e56	; 0x5e56 <_ZN8ns_rs2328String_PEPKc>
	__delay_ms(1000);
    2616:	2f ef       	ldi	r18, 0xFF	; 255
    2618:	43 ed       	ldi	r20, 0xD3	; 211
    261a:	80 e3       	ldi	r24, 0x30	; 48
    261c:	21 50       	subi	r18, 0x01	; 1
    261e:	40 40       	sbci	r20, 0x00	; 0
    2620:	80 40       	sbci	r24, 0x00	; 0
    2622:	e1 f7       	brne	.-8      	; 0x261c <main+0x38>
    2624:	00 c0       	rjmp	.+0      	; 0x2626 <main+0x42>
    2626:	00 00       	nop
	ns_menu::Init();
    2628:	e5 d4       	rcall	.+2506   	; 0x2ff4 <_ZN7ns_menu4InitEv>
	ns_watchdog::enabled();
    262a:	0e 94 e9 2f 	call	0x5fd2	; 0x5fd2 <_ZN11ns_watchdog7enabledEv>
				ns_vg::lenTubeNew = 1;
			}
			else
			{
				ns_vg::lenTube = dlina;
				ns_vg::lenTubeNew = 1;
    262e:	11 e0       	ldi	r17, 0x01	; 1
						ns_clock::time[CT_HOUR],
						ns_clock::time[CT_MINUTE],
						ns_archive::idx+1, // !!!!!!!!!!!!!!!!!!!!!!!!!!!!!!!!!!!!!!
						dlina,
						sqBas
					);
    2630:	0f 2e       	mov	r0, r31
    2632:	fe ec       	ldi	r31, 0xCE	; 206
    2634:	8f 2e       	mov	r8, r31
    2636:	f1 e0       	ldi	r31, 0x01	; 1
    2638:	9f 2e       	mov	r9, r31
    263a:	f0 2d       	mov	r31, r0
		ns_watchdog::reset();
		if (ns_line::Render(&dlina, &sqBas))
		{
			if ((dlina > 13000) || (dlina < 7500))
			{
				ns_vg::lenTubuStat = 10;
    263c:	0f 2e       	mov	r0, r31
    263e:	fa e0       	ldi	r31, 0x0A	; 10
    2640:	bf 2e       	mov	r11, r31
    2642:	f0 2d       	mov	r31, r0
	__delay_ms(1000);
	ns_menu::Init();
	ns_watchdog::enabled();
    while (1) 
    {
		ns_watchdog::reset();
    2644:	0e 94 f2 2f 	call	0x5fe4	; 0x5fe4 <_ZN11ns_watchdog5resetEv>
		if (ns_line::Render(&dlina, &sqBas))
    2648:	be 01       	movw	r22, r28
    264a:	6d 5f       	subi	r22, 0xFD	; 253
    264c:	7f 4f       	sbci	r23, 0xFF	; 255
    264e:	ce 01       	movw	r24, r28
    2650:	01 96       	adiw	r24, 0x01	; 1
    2652:	0e 94 2b 09 	call	0x1256	; 0x1256 <_ZN7ns_line6RenderEPjPa>
    2656:	88 23       	and	r24, r24
    2658:	a1 f1       	breq	.+104    	; 0x26c2 <main+0xde>
		{
			if ((dlina > 13000) || (dlina < 7500))
    265a:	89 81       	ldd	r24, Y+1	; 0x01
    265c:	9a 81       	ldd	r25, Y+2	; 0x02
    265e:	9c 01       	movw	r18, r24
    2660:	2c 54       	subi	r18, 0x4C	; 76
    2662:	3d 41       	sbci	r19, 0x1D	; 29
    2664:	2d 37       	cpi	r18, 0x7D	; 125
    2666:	35 41       	sbci	r19, 0x15	; 21
    2668:	28 f0       	brcs	.+10     	; 0x2674 <main+0x90>
			{
				ns_vg::lenTubuStat = 10;
    266a:	b0 92 03 02 	sts	0x0203, r11	; 0x800203 <_ZN5ns_vg11lenTubuStatE>
				ns_vg::lenTubeNew = 1;
    266e:	10 93 04 02 	sts	0x0204, r17	; 0x800204 <_ZN5ns_vg10lenTubeNewE>
    2672:	27 c0       	rjmp	.+78     	; 0x26c2 <main+0xde>
			}
			else
			{
				ns_vg::lenTube = dlina;
    2674:	90 93 30 01 	sts	0x0130, r25	; 0x800130 <_ZN5ns_vg7lenTubeE+0x1>
    2678:	80 93 2f 01 	sts	0x012F, r24	; 0x80012f <_ZN5ns_vg7lenTubeE>
				ns_vg::lenTubeNew = 1;
    267c:	10 93 04 02 	sts	0x0204, r17	; 0x800204 <_ZN5ns_vg10lenTubeNewE>
				ns_vg::nTube = ns_archive::idx + 1;
    2680:	80 91 3f 01 	lds	r24, 0x013F	; 0x80013f <_ZN10ns_archive3idxE>
    2684:	90 91 40 01 	lds	r25, 0x0140	; 0x800140 <_ZN10ns_archive3idxE+0x1>
    2688:	01 96       	adiw	r24, 0x01	; 1
    268a:	90 93 08 02 	sts	0x0208, r25	; 0x800208 <_ZN5ns_vg5nTubeE+0x1>
    268e:	80 93 07 02 	sts	0x0207, r24	; 0x800207 <_ZN5ns_vg5nTubeE>
				ns_vg::sqBas = sqBas;
    2692:	8b 81       	ldd	r24, Y+3	; 0x03
    2694:	80 93 02 02 	sts	0x0202, r24	; 0x800202 <_ZN5ns_vg5sqBasE>
				CRITICAL_SECTION
    2698:	7f b6       	in	r7, 0x3f	; 63
    return 1;
}

static __inline__ uint8_t __iCliRetVal(void)
{
    cli();
    269a:	f8 94       	cli
						ns_clock::time[CT_HOUR],
						ns_clock::time[CT_MINUTE],
						ns_archive::idx+1, // !!!!!!!!!!!!!!!!!!!!!!!!!!!!!!!!!!!!!!
						dlina,
						sqBas
					);
    269c:	c9 80       	ldd	r12, Y+1	; 0x01
    269e:	da 80       	ldd	r13, Y+2	; 0x02
    26a0:	e0 90 3f 01 	lds	r14, 0x013F	; 0x80013f <_ZN10ns_archive3idxE>
    26a4:	f0 90 40 01 	lds	r15, 0x0140	; 0x800140 <_ZN10ns_archive3idxE+0x1>
    26a8:	ff ef       	ldi	r31, 0xFF	; 255
    26aa:	ef 1a       	sub	r14, r31
    26ac:	ff 0a       	sbc	r15, r31
    26ae:	ab 80       	ldd	r10, Y+3	; 0x03
    26b0:	f4 01       	movw	r30, r8
    26b2:	01 81       	ldd	r16, Z+1	; 0x01
    26b4:	22 81       	ldd	r18, Z+2	; 0x02
    26b6:	44 81       	ldd	r20, Z+4	; 0x04
    26b8:	65 81       	ldd	r22, Z+5	; 0x05
    26ba:	86 81       	ldd	r24, Z+6	; 0x06
    26bc:	0e 94 da 02 	call	0x5b4	; 0x5b4 <_ZN10ns_archive4PushEhhhhhjja>
    (void)__s;
}

static __inline__ void __iRestore(const  uint8_t *__s)
{
    SREG = *__s;
    26c0:	7f be       	out	0x3f, r7	; 63
				}
				//ns_watchdog::reset();
			}
		}
		ns_archive::Main();
    26c2:	0e 94 f4 03 	call	0x7e8	; 0x7e8 <_ZN10ns_archive4MainEv>
		ns_menu::Main();
    26c6:	99 d4       	rcall	.+2354   	; 0x2ffa <_ZN7ns_menu4MainEv>
    }
    26c8:	bd cf       	rjmp	.-134    	; 0x2644 <main+0x60>

000026ca <_ZN7ns_menu4DupmEh>:
			uint16_t idx = viewarc_idx + viewarc_n;
			while (idx >= ARCHIVE_LEN) idx -= ARCHIVE_LEN;
			key4->autoRepeat = false;
			if (k == 3) eeprom_update_byte(&ns_archive::archive[idx].ok, 0);
			if (k == 5) eeprom_update_byte(&ns_archive::archive[idx].ok, 1);
			view_arcSh();
    26ca:	08 95       	ret

000026cc <_ZN7ns_menu11Main_ViewExEh>:
    26cc:	0f 93       	push	r16
    26ce:	1f 93       	push	r17
    26d0:	cf 93       	push	r28
    26d2:	df 93       	push	r29
    26d4:	1f 92       	push	r1
    26d6:	cd b7       	in	r28, 0x3d	; 61
    26d8:	de b7       	in	r29, 0x3e	; 62
    26da:	85 30       	cpi	r24, 0x05	; 5
    26dc:	b1 f5       	brne	.+108    	; 0x274a <_ZN7ns_menu11Main_ViewExEh+0x7e>
    26de:	61 e0       	ldi	r22, 0x01	; 1
    26e0:	87 e0       	ldi	r24, 0x07	; 7
    26e2:	0e 94 dd 2a 	call	0x55ba	; 0x55ba <_ZN6ns_lcd11SetPositionEhh>
    26e6:	89 83       	std	Y+1, r24	; 0x01
    26e8:	20 91 02 02 	lds	r18, 0x0202	; 0x800202 <_ZN5ns_vg5sqBasE>
    26ec:	27 fd       	sbrc	r18, 7
    26ee:	21 95       	neg	r18
    26f0:	02 2e       	mov	r0, r18
    26f2:	00 0c       	add	r0, r0
    26f4:	33 0b       	sbc	r19, r19
    26f6:	44 0b       	sbc	r20, r20
    26f8:	55 0b       	sbc	r21, r21
    26fa:	62 e0       	ldi	r22, 0x02	; 2
    26fc:	ce 01       	movw	r24, r28
    26fe:	01 96       	adiw	r24, 0x01	; 1
    2700:	0e 94 f4 2b 	call	0x57e8	; 0x57e8 <_ZN6ns_lcd6DigitZEPhhl>
    2704:	69 e3       	ldi	r22, 0x39	; 57
    2706:	72 e0       	ldi	r23, 0x02	; 2
    2708:	ce 01       	movw	r24, r28
    270a:	01 96       	adiw	r24, 0x01	; 1
    270c:	0e 94 b2 2b 	call	0x5764	; 0x5764 <_ZN6ns_lcd8String_PEPhPKc>
    2710:	00 91 05 02 	lds	r16, 0x0205	; 0x800205 <_ZN5ns_vg10lenTubuExlE>
    2714:	10 91 06 02 	lds	r17, 0x0206	; 0x800206 <_ZN5ns_vg10lenTubuExlE+0x1>
    2718:	11 23       	and	r17, r17
    271a:	4c f4       	brge	.+18     	; 0x272e <_ZN7ns_menu11Main_ViewExEh+0x62>
    271c:	6d e2       	ldi	r22, 0x2D	; 45
    271e:	ce 01       	movw	r24, r28
    2720:	01 96       	adiw	r24, 0x01	; 1
    2722:	0e 94 44 2b 	call	0x5688	; 0x5688 <_ZN6ns_lcd7PutCharEPhc>
    2726:	11 95       	neg	r17
    2728:	01 95       	neg	r16
    272a:	11 09       	sbc	r17, r1
    272c:	05 c0       	rjmp	.+10     	; 0x2738 <_ZN7ns_menu11Main_ViewExEh+0x6c>
    272e:	6b e2       	ldi	r22, 0x2B	; 43
    2730:	ce 01       	movw	r24, r28
    2732:	01 96       	adiw	r24, 0x01	; 1
    2734:	0e 94 44 2b 	call	0x5688	; 0x5688 <_ZN6ns_lcd7PutCharEPhc>
    2738:	98 01       	movw	r18, r16
    273a:	11 0f       	add	r17, r17
    273c:	44 0b       	sbc	r20, r20
    273e:	55 0b       	sbc	r21, r21
    2740:	64 e0       	ldi	r22, 0x04	; 4
    2742:	ce 01       	movw	r24, r28
    2744:	01 96       	adiw	r24, 0x01	; 1
    2746:	0e 94 f4 2b 	call	0x57e8	; 0x57e8 <_ZN6ns_lcd6DigitZEPhhl>
    274a:	0f 90       	pop	r0
    274c:	df 91       	pop	r29
    274e:	cf 91       	pop	r28
    2750:	1f 91       	pop	r17
    2752:	0f 91       	pop	r16
    2754:	08 95       	ret

00002756 <_ZN7ns_menu18Menu_CheckPassViewEh>:
    2756:	ef 92       	push	r14
    2758:	ff 92       	push	r15
    275a:	1f 93       	push	r17
    275c:	cf 93       	push	r28
    275e:	df 93       	push	r29
    2760:	1f 92       	push	r1
    2762:	cd b7       	in	r28, 0x3d	; 61
    2764:	de b7       	in	r29, 0x3e	; 62
    2766:	61 e0       	ldi	r22, 0x01	; 1
    2768:	85 e0       	ldi	r24, 0x05	; 5
    276a:	0e 94 dd 2a 	call	0x55ba	; 0x55ba <_ZN6ns_lcd11SetPositionEhh>
    276e:	89 83       	std	Y+1, r24	; 0x01
    2770:	0f 2e       	mov	r0, r31
    2772:	f8 eb       	ldi	r31, 0xB8	; 184
    2774:	ef 2e       	mov	r14, r31
    2776:	f1 e0       	ldi	r31, 0x01	; 1
    2778:	ff 2e       	mov	r15, r31
    277a:	f0 2d       	mov	r31, r0
    277c:	10 e0       	ldi	r17, 0x00	; 0
    277e:	80 91 bd 01 	lds	r24, 0x01BD	; 0x8001bd <_ZN7ns_menu10curPosPassE>
    2782:	18 17       	cp	r17, r24
    2784:	40 f4       	brcc	.+16     	; 0x2796 <_ZN7ns_menu18Menu_CheckPassViewEh+0x40>
    2786:	10 92 e4 01 	sts	0x01E4, r1	; 0x8001e4 <_ZN6ns_lcd7flickerE>
    278a:	6a e2       	ldi	r22, 0x2A	; 42
    278c:	ce 01       	movw	r24, r28
    278e:	01 96       	adiw	r24, 0x01	; 1
    2790:	0e 94 44 2b 	call	0x5688	; 0x5688 <_ZN6ns_lcd7PutCharEPhc>
    2794:	13 c0       	rjmp	.+38     	; 0x27bc <_ZN7ns_menu18Menu_CheckPassViewEh+0x66>
    2796:	18 13       	cpse	r17, r24
    2798:	0a c0       	rjmp	.+20     	; 0x27ae <_ZN7ns_menu18Menu_CheckPassViewEh+0x58>
    279a:	f7 01       	movw	r30, r14
    279c:	60 81       	ld	r22, Z
    279e:	60 5d       	subi	r22, 0xD0	; 208
    27a0:	ce 01       	movw	r24, r28
    27a2:	01 96       	adiw	r24, 0x01	; 1
    27a4:	0e 94 44 2b 	call	0x5688	; 0x5688 <_ZN6ns_lcd7PutCharEPhc>
    27a8:	10 92 e4 01 	sts	0x01E4, r1	; 0x8001e4 <_ZN6ns_lcd7flickerE>
    27ac:	07 c0       	rjmp	.+14     	; 0x27bc <_ZN7ns_menu18Menu_CheckPassViewEh+0x66>
    27ae:	10 92 e4 01 	sts	0x01E4, r1	; 0x8001e4 <_ZN6ns_lcd7flickerE>
    27b2:	6d e2       	ldi	r22, 0x2D	; 45
    27b4:	ce 01       	movw	r24, r28
    27b6:	01 96       	adiw	r24, 0x01	; 1
    27b8:	0e 94 44 2b 	call	0x5688	; 0x5688 <_ZN6ns_lcd7PutCharEPhc>
    27bc:	1f 5f       	subi	r17, 0xFF	; 255
    27be:	ff ef       	ldi	r31, 0xFF	; 255
    27c0:	ef 1a       	sub	r14, r31
    27c2:	ff 0a       	sbc	r15, r31
    27c4:	15 30       	cpi	r17, 0x05	; 5
    27c6:	d9 f6       	brne	.-74     	; 0x277e <_ZN7ns_menu18Menu_CheckPassViewEh+0x28>
    27c8:	0f 90       	pop	r0
    27ca:	df 91       	pop	r29
    27cc:	cf 91       	pop	r28
    27ce:	1f 91       	pop	r17
    27d0:	ff 90       	pop	r15
    27d2:	ef 90       	pop	r14
    27d4:	08 95       	ret

000027d6 <_ZN7ns_menu19Menu_CheckPassMinusEh>:
    27d6:	e0 91 de 01 	lds	r30, 0x01DE	; 0x8001de <key4>
    27da:	f0 91 df 01 	lds	r31, 0x01DF	; 0x8001df <key4+0x1>
    27de:	91 e0       	ldi	r25, 0x01	; 1
    27e0:	90 83       	st	Z, r25
    27e2:	20 91 bd 01 	lds	r18, 0x01BD	; 0x8001bd <_ZN7ns_menu10curPosPassE>
    27e6:	30 e0       	ldi	r19, 0x00	; 0
    27e8:	f9 01       	movw	r30, r18
    27ea:	e8 54       	subi	r30, 0x48	; 72
    27ec:	fe 4f       	sbci	r31, 0xFE	; 254
    27ee:	90 81       	ld	r25, Z
    27f0:	99 23       	and	r25, r25
    27f2:	29 f0       	breq	.+10     	; 0x27fe <_ZN7ns_menu19Menu_CheckPassMinusEh+0x28>
    27f4:	f9 01       	movw	r30, r18
    27f6:	e8 54       	subi	r30, 0x48	; 72
    27f8:	fe 4f       	sbci	r31, 0xFE	; 254
    27fa:	91 50       	subi	r25, 0x01	; 1
    27fc:	90 83       	st	Z, r25
    27fe:	ab df       	rcall	.-170    	; 0x2756 <_ZN7ns_menu18Menu_CheckPassViewEh>
    2800:	8f b7       	in	r24, 0x3f	; 63
    2802:	f8 94       	cli
    2804:	40 e9       	ldi	r20, 0x90	; 144
    2806:	5f e5       	ldi	r21, 0x5F	; 95
    2808:	61 e0       	ldi	r22, 0x01	; 1
    280a:	70 e0       	ldi	r23, 0x00	; 0
    280c:	40 93 bf 01 	sts	0x01BF, r20	; 0x8001bf <_ZN7ns_menu7timeOutE>
    2810:	50 93 c0 01 	sts	0x01C0, r21	; 0x8001c0 <_ZN7ns_menu7timeOutE+0x1>
    2814:	60 93 c1 01 	sts	0x01C1, r22	; 0x8001c1 <_ZN7ns_menu7timeOutE+0x2>
    2818:	70 93 c2 01 	sts	0x01C2, r23	; 0x8001c2 <_ZN7ns_menu7timeOutE+0x3>
    281c:	8f bf       	out	0x3f, r24	; 63
    281e:	08 95       	ret

00002820 <_ZN7ns_menu18Menu_CheckPassPlusEh>:
    2820:	e0 91 de 01 	lds	r30, 0x01DE	; 0x8001de <key4>
    2824:	f0 91 df 01 	lds	r31, 0x01DF	; 0x8001df <key4+0x1>
    2828:	91 e0       	ldi	r25, 0x01	; 1
    282a:	90 83       	st	Z, r25
    282c:	20 91 bd 01 	lds	r18, 0x01BD	; 0x8001bd <_ZN7ns_menu10curPosPassE>
    2830:	30 e0       	ldi	r19, 0x00	; 0
    2832:	f9 01       	movw	r30, r18
    2834:	e8 54       	subi	r30, 0x48	; 72
    2836:	fe 4f       	sbci	r31, 0xFE	; 254
    2838:	90 81       	ld	r25, Z
    283a:	99 30       	cpi	r25, 0x09	; 9
    283c:	28 f4       	brcc	.+10     	; 0x2848 <_ZN7ns_menu18Menu_CheckPassPlusEh+0x28>
    283e:	f9 01       	movw	r30, r18
    2840:	e8 54       	subi	r30, 0x48	; 72
    2842:	fe 4f       	sbci	r31, 0xFE	; 254
    2844:	9f 5f       	subi	r25, 0xFF	; 255
    2846:	90 83       	st	Z, r25
    2848:	86 df       	rcall	.-244    	; 0x2756 <_ZN7ns_menu18Menu_CheckPassViewEh>
    284a:	8f b7       	in	r24, 0x3f	; 63
    284c:	f8 94       	cli
    284e:	40 e9       	ldi	r20, 0x90	; 144
    2850:	5f e5       	ldi	r21, 0x5F	; 95
    2852:	61 e0       	ldi	r22, 0x01	; 1
    2854:	70 e0       	ldi	r23, 0x00	; 0
    2856:	40 93 bf 01 	sts	0x01BF, r20	; 0x8001bf <_ZN7ns_menu7timeOutE>
    285a:	50 93 c0 01 	sts	0x01C0, r21	; 0x8001c0 <_ZN7ns_menu7timeOutE+0x1>
    285e:	60 93 c1 01 	sts	0x01C1, r22	; 0x8001c1 <_ZN7ns_menu7timeOutE+0x2>
    2862:	70 93 c2 01 	sts	0x01C2, r23	; 0x8001c2 <_ZN7ns_menu7timeOutE+0x3>
    2866:	8f bf       	out	0x3f, r24	; 63
    2868:	08 95       	ret

0000286a <_ZN7ns_menu14Menu_CheckPassEh>:
    286a:	8f b7       	in	r24, 0x3f	; 63
    286c:	f8 94       	cli
    286e:	10 92 bf 01 	sts	0x01BF, r1	; 0x8001bf <_ZN7ns_menu7timeOutE>
    2872:	10 92 c0 01 	sts	0x01C0, r1	; 0x8001c0 <_ZN7ns_menu7timeOutE+0x1>
    2876:	10 92 c1 01 	sts	0x01C1, r1	; 0x8001c1 <_ZN7ns_menu7timeOutE+0x2>
    287a:	10 92 c2 01 	sts	0x01C2, r1	; 0x8001c2 <_ZN7ns_menu7timeOutE+0x3>
    287e:	8f bf       	out	0x3f, r24	; 63
    2880:	e0 91 de 01 	lds	r30, 0x01DE	; 0x8001de <key4>
    2884:	f0 91 df 01 	lds	r31, 0x01DF	; 0x8001df <key4+0x1>
    2888:	10 82       	st	Z, r1
    288a:	0e 94 b1 29 	call	0x5362	; 0x5362 <_ZN6ns_lcd5ClearEv>
    288e:	60 e0       	ldi	r22, 0x00	; 0
    2890:	80 e0       	ldi	r24, 0x00	; 0
    2892:	0e 94 dd 2a 	call	0x55ba	; 0x55ba <_ZN6ns_lcd11SetPositionEhh>
    2896:	60 e2       	ldi	r22, 0x20	; 32
    2898:	72 e0       	ldi	r23, 0x02	; 2
    289a:	0e 94 e7 2b 	call	0x57ce	; 0x57ce <_ZN6ns_lcd8String_PEhPKc>
    289e:	10 92 bd 01 	sts	0x01BD, r1	; 0x8001bd <_ZN7ns_menu10curPosPassE>
    28a2:	e8 eb       	ldi	r30, 0xB8	; 184
    28a4:	f1 e0       	ldi	r31, 0x01	; 1
    28a6:	10 82       	st	Z, r1
    28a8:	11 82       	std	Z+1, r1	; 0x01
    28aa:	12 82       	std	Z+2, r1	; 0x02
    28ac:	13 82       	std	Z+3, r1	; 0x03
    28ae:	14 82       	std	Z+4, r1	; 0x04
    28b0:	8f b7       	in	r24, 0x3f	; 63
    28b2:	f8 94       	cli
    28b4:	40 e9       	ldi	r20, 0x90	; 144
    28b6:	5f e5       	ldi	r21, 0x5F	; 95
    28b8:	61 e0       	ldi	r22, 0x01	; 1
    28ba:	70 e0       	ldi	r23, 0x00	; 0
    28bc:	40 93 bf 01 	sts	0x01BF, r20	; 0x8001bf <_ZN7ns_menu7timeOutE>
    28c0:	50 93 c0 01 	sts	0x01C0, r21	; 0x8001c0 <_ZN7ns_menu7timeOutE+0x1>
    28c4:	60 93 c1 01 	sts	0x01C1, r22	; 0x8001c1 <_ZN7ns_menu7timeOutE+0x2>
    28c8:	70 93 c2 01 	sts	0x01C2, r23	; 0x8001c2 <_ZN7ns_menu7timeOutE+0x3>
    28cc:	8f bf       	out	0x3f, r24	; 63
    28ce:	08 95       	ret

000028d0 <_ZN7ns_menu7ZeroArcEh>:
    28d0:	e0 91 de 01 	lds	r30, 0x01DE	; 0x8001de <key4>
    28d4:	f0 91 df 01 	lds	r31, 0x01DF	; 0x8001df <key4+0x1>
    28d8:	10 82       	st	Z, r1
    28da:	0e 94 b1 29 	call	0x5362	; 0x5362 <_ZN6ns_lcd5ClearEv>
    28de:	60 e0       	ldi	r22, 0x00	; 0
    28e0:	80 e0       	ldi	r24, 0x00	; 0
    28e2:	0e 94 dd 2a 	call	0x55ba	; 0x55ba <_ZN6ns_lcd11SetPositionEhh>
    28e6:	6f e7       	ldi	r22, 0x7F	; 127
    28e8:	71 e0       	ldi	r23, 0x01	; 1
    28ea:	0e 94 e7 2b 	call	0x57ce	; 0x57ce <_ZN6ns_lcd8String_PEhPKc>
    28ee:	61 e0       	ldi	r22, 0x01	; 1
    28f0:	80 e0       	ldi	r24, 0x00	; 0
    28f2:	0e 94 dd 2a 	call	0x55ba	; 0x55ba <_ZN6ns_lcd11SetPositionEhh>
    28f6:	63 e7       	ldi	r22, 0x73	; 115
    28f8:	71 e0       	ldi	r23, 0x01	; 1
    28fa:	0e 94 e7 2b 	call	0x57ce	; 0x57ce <_ZN6ns_lcd8String_PEhPKc>
    28fe:	8f b7       	in	r24, 0x3f	; 63
    2900:	f8 94       	cli
    2902:	40 e9       	ldi	r20, 0x90	; 144
    2904:	5f e5       	ldi	r21, 0x5F	; 95
    2906:	61 e0       	ldi	r22, 0x01	; 1
    2908:	70 e0       	ldi	r23, 0x00	; 0
    290a:	40 93 bf 01 	sts	0x01BF, r20	; 0x8001bf <_ZN7ns_menu7timeOutE>
    290e:	50 93 c0 01 	sts	0x01C0, r21	; 0x8001c0 <_ZN7ns_menu7timeOutE+0x1>
    2912:	60 93 c1 01 	sts	0x01C1, r22	; 0x8001c1 <_ZN7ns_menu7timeOutE+0x2>
    2916:	70 93 c2 01 	sts	0x01C2, r23	; 0x8001c2 <_ZN7ns_menu7timeOutE+0x3>
    291a:	8f bf       	out	0x3f, r24	; 63
    291c:	08 95       	ret

0000291e <_ZN7ns_menu7SetModeEh>:
    291e:	80 93 c3 01 	sts	0x01C3, r24	; 0x8001c3 <_ZN7ns_menu4modeE>
    2922:	90 e1       	ldi	r25, 0x10	; 16
    2924:	89 9f       	mul	r24, r25
    2926:	f0 01       	movw	r30, r0
    2928:	11 24       	eor	r1, r1
    292a:	e4 5e       	subi	r30, 0xE4	; 228
    292c:	fc 4f       	sbci	r31, 0xFC	; 252
    292e:	25 91       	lpm	r18, Z+
    2930:	34 91       	lpm	r19, Z
    2932:	80 e0       	ldi	r24, 0x00	; 0
    2934:	f9 01       	movw	r30, r18
    2936:	09 95       	icall
    2938:	08 95       	ret

0000293a <_ZN7ns_menu9Main_menuEh>:
    293a:	81 e0       	ldi	r24, 0x01	; 1
    293c:	f0 cf       	rjmp	.-32     	; 0x291e <_ZN7ns_menu7SetModeEh>
    293e:	08 95       	ret

00002940 <_ZN7ns_menu18Menu_CheckPassBackEh>:
    2940:	90 91 bd 01 	lds	r25, 0x01BD	; 0x8001bd <_ZN7ns_menu10curPosPassE>
    2944:	99 23       	and	r25, r25
    2946:	99 f0       	breq	.+38     	; 0x296e <_ZN7ns_menu18Menu_CheckPassBackEh+0x2e>
    2948:	91 50       	subi	r25, 0x01	; 1
    294a:	90 93 bd 01 	sts	0x01BD, r25	; 0x8001bd <_ZN7ns_menu10curPosPassE>
    294e:	03 df       	rcall	.-506    	; 0x2756 <_ZN7ns_menu18Menu_CheckPassViewEh>
    2950:	8f b7       	in	r24, 0x3f	; 63
    2952:	f8 94       	cli
    2954:	40 e9       	ldi	r20, 0x90	; 144
    2956:	5f e5       	ldi	r21, 0x5F	; 95
    2958:	61 e0       	ldi	r22, 0x01	; 1
    295a:	70 e0       	ldi	r23, 0x00	; 0
    295c:	40 93 bf 01 	sts	0x01BF, r20	; 0x8001bf <_ZN7ns_menu7timeOutE>
    2960:	50 93 c0 01 	sts	0x01C0, r21	; 0x8001c0 <_ZN7ns_menu7timeOutE+0x1>
    2964:	60 93 c1 01 	sts	0x01C1, r22	; 0x8001c1 <_ZN7ns_menu7timeOutE+0x2>
    2968:	70 93 c2 01 	sts	0x01C2, r23	; 0x8001c2 <_ZN7ns_menu7timeOutE+0x3>
    296c:	8f bf       	out	0x3f, r24	; 63
    296e:	8f b7       	in	r24, 0x3f	; 63
    2970:	f8 94       	cli
    2972:	10 92 bf 01 	sts	0x01BF, r1	; 0x8001bf <_ZN7ns_menu7timeOutE>
    2976:	10 92 c0 01 	sts	0x01C0, r1	; 0x8001c0 <_ZN7ns_menu7timeOutE+0x1>
    297a:	10 92 c1 01 	sts	0x01C1, r1	; 0x8001c1 <_ZN7ns_menu7timeOutE+0x2>
    297e:	10 92 c2 01 	sts	0x01C2, r1	; 0x8001c2 <_ZN7ns_menu7timeOutE+0x3>
    2982:	8f bf       	out	0x3f, r24	; 63
    2984:	80 e0       	ldi	r24, 0x00	; 0
    2986:	cb cf       	rjmp	.-106    	; 0x291e <_ZN7ns_menu7SetModeEh>
    2988:	08 95       	ret

0000298a <_ZN7ns_menu16Menu_CheckPassVvEh>:
    298a:	cf 92       	push	r12
    298c:	df 92       	push	r13
    298e:	ef 92       	push	r14
    2990:	ff 92       	push	r15
    2992:	0f 93       	push	r16
    2994:	1f 93       	push	r17
    2996:	cf 93       	push	r28
    2998:	df 93       	push	r29
    299a:	9f b7       	in	r25, 0x3f	; 63
    299c:	f8 94       	cli
    299e:	40 e9       	ldi	r20, 0x90	; 144
    29a0:	5f e5       	ldi	r21, 0x5F	; 95
    29a2:	61 e0       	ldi	r22, 0x01	; 1
    29a4:	70 e0       	ldi	r23, 0x00	; 0
    29a6:	40 93 bf 01 	sts	0x01BF, r20	; 0x8001bf <_ZN7ns_menu7timeOutE>
    29aa:	50 93 c0 01 	sts	0x01C0, r21	; 0x8001c0 <_ZN7ns_menu7timeOutE+0x1>
    29ae:	60 93 c1 01 	sts	0x01C1, r22	; 0x8001c1 <_ZN7ns_menu7timeOutE+0x2>
    29b2:	70 93 c2 01 	sts	0x01C2, r23	; 0x8001c2 <_ZN7ns_menu7timeOutE+0x3>
    29b6:	9f bf       	out	0x3f, r25	; 63
    29b8:	e0 91 de 01 	lds	r30, 0x01DE	; 0x8001de <key4>
    29bc:	f0 91 df 01 	lds	r31, 0x01DF	; 0x8001df <key4+0x1>
    29c0:	10 82       	st	Z, r1
    29c2:	e0 91 bd 01 	lds	r30, 0x01BD	; 0x8001bd <_ZN7ns_menu10curPosPassE>
    29c6:	e4 30       	cpi	r30, 0x04	; 4
    29c8:	48 f4       	brcc	.+18     	; 0x29dc <_ZN7ns_menu16Menu_CheckPassVvEh+0x52>
    29ca:	ef 5f       	subi	r30, 0xFF	; 255
    29cc:	e0 93 bd 01 	sts	0x01BD, r30	; 0x8001bd <_ZN7ns_menu10curPosPassE>
    29d0:	f0 e0       	ldi	r31, 0x00	; 0
    29d2:	e8 54       	subi	r30, 0x48	; 72
    29d4:	fe 4f       	sbci	r31, 0xFE	; 254
    29d6:	10 82       	st	Z, r1
    29d8:	be de       	rcall	.-644    	; 0x2756 <_ZN7ns_menu18Menu_CheckPassViewEh>
    29da:	4b c0       	rjmp	.+150    	; 0x2a72 <_ZN7ns_menu16Menu_CheckPassVvEh+0xe8>
    29dc:	0f 2e       	mov	r0, r31
    29de:	f8 eb       	ldi	r31, 0xB8	; 184
    29e0:	ef 2e       	mov	r14, r31
    29e2:	f1 e0       	ldi	r31, 0x01	; 1
    29e4:	ff 2e       	mov	r15, r31
    29e6:	f0 2d       	mov	r31, r0
    29e8:	c0 e0       	ldi	r28, 0x00	; 0
    29ea:	d0 e0       	ldi	r29, 0x00	; 0
    29ec:	cc 24       	eor	r12, r12
    29ee:	c3 94       	inc	r12
    29f0:	dd 24       	eor	r13, r13
    29f2:	d3 94       	inc	r13
    29f4:	00 e0       	ldi	r16, 0x00	; 0
    29f6:	f7 01       	movw	r30, r14
    29f8:	11 91       	ld	r17, Z+
    29fa:	7f 01       	movw	r14, r30
    29fc:	ce 01       	movw	r24, r28
    29fe:	88 51       	subi	r24, 0x18	; 24
    2a00:	93 4f       	sbci	r25, 0xF3	; 243
    2a02:	0e 94 db 32 	call	0x65b6	; 0x65b6 <eeprom_read_byte>
    2a06:	18 13       	cpse	r17, r24
    2a08:	d0 2e       	mov	r13, r16
    2a0a:	fe 01       	movw	r30, r28
    2a0c:	e5 5f       	subi	r30, 0xF5	; 245
    2a0e:	fc 4f       	sbci	r31, 0xFC	; 252
    2a10:	e4 91       	lpm	r30, Z
    2a12:	1e 13       	cpse	r17, r30
    2a14:	c0 2e       	mov	r12, r16
    2a16:	21 96       	adiw	r28, 0x01	; 1
    2a18:	c5 30       	cpi	r28, 0x05	; 5
    2a1a:	d1 05       	cpc	r29, r1
    2a1c:	61 f7       	brne	.-40     	; 0x29f6 <_ZN7ns_menu16Menu_CheckPassVvEh+0x6c>
    2a1e:	d1 10       	cpse	r13, r1
    2a20:	02 c0       	rjmp	.+4      	; 0x2a26 <_ZN7ns_menu16Menu_CheckPassVvEh+0x9c>
    2a22:	cc 20       	and	r12, r12
    2a24:	19 f0       	breq	.+6      	; 0x2a2c <_ZN7ns_menu16Menu_CheckPassVvEh+0xa2>
    2a26:	82 e0       	ldi	r24, 0x02	; 2
    2a28:	7a df       	rcall	.-268    	; 0x291e <_ZN7ns_menu7SetModeEh>
    2a2a:	23 c0       	rjmp	.+70     	; 0x2a72 <_ZN7ns_menu16Menu_CheckPassVvEh+0xe8>
    2a2c:	0e 94 b1 29 	call	0x5362	; 0x5362 <_ZN6ns_lcd5ClearEv>
    2a30:	60 e0       	ldi	r22, 0x00	; 0
    2a32:	80 e0       	ldi	r24, 0x00	; 0
    2a34:	0e 94 dd 2a 	call	0x55ba	; 0x55ba <_ZN6ns_lcd11SetPositionEhh>
    2a38:	6f e0       	ldi	r22, 0x0F	; 15
    2a3a:	72 e0       	ldi	r23, 0x02	; 2
    2a3c:	0e 94 e7 2b 	call	0x57ce	; 0x57ce <_ZN6ns_lcd8String_PEhPKc>
    2a40:	61 e0       	ldi	r22, 0x01	; 1
    2a42:	80 e0       	ldi	r24, 0x00	; 0
    2a44:	0e 94 dd 2a 	call	0x55ba	; 0x55ba <_ZN6ns_lcd11SetPositionEhh>
    2a48:	6e ef       	ldi	r22, 0xFE	; 254
    2a4a:	71 e0       	ldi	r23, 0x01	; 1
    2a4c:	0e 94 e7 2b 	call	0x57ce	; 0x57ce <_ZN6ns_lcd8String_PEhPKc>
    2a50:	8f b7       	in	r24, 0x3f	; 63
    2a52:	f8 94       	cli
    2a54:	48 e8       	ldi	r20, 0x88	; 136
    2a56:	53 e1       	ldi	r21, 0x13	; 19
    2a58:	60 e0       	ldi	r22, 0x00	; 0
    2a5a:	70 e0       	ldi	r23, 0x00	; 0
    2a5c:	40 93 bf 01 	sts	0x01BF, r20	; 0x8001bf <_ZN7ns_menu7timeOutE>
    2a60:	50 93 c0 01 	sts	0x01C0, r21	; 0x8001c0 <_ZN7ns_menu7timeOutE+0x1>
    2a64:	60 93 c1 01 	sts	0x01C1, r22	; 0x8001c1 <_ZN7ns_menu7timeOutE+0x2>
    2a68:	70 93 c2 01 	sts	0x01C2, r23	; 0x8001c2 <_ZN7ns_menu7timeOutE+0x3>
    2a6c:	8f bf       	out	0x3f, r24	; 63
    2a6e:	84 e0       	ldi	r24, 0x04	; 4
    2a70:	56 df       	rcall	.-340    	; 0x291e <_ZN7ns_menu7SetModeEh>
    2a72:	df 91       	pop	r29
    2a74:	cf 91       	pop	r28
    2a76:	1f 91       	pop	r17
    2a78:	0f 91       	pop	r16
    2a7a:	ff 90       	pop	r15
    2a7c:	ef 90       	pop	r14
    2a7e:	df 90       	pop	r13
    2a80:	cf 90       	pop	r12
    2a82:	08 95       	ret

00002a84 <_ZN7ns_menu18Menu_CheckPassToutEh>:
    2a84:	8f b7       	in	r24, 0x3f	; 63
    2a86:	f8 94       	cli
    2a88:	10 92 bf 01 	sts	0x01BF, r1	; 0x8001bf <_ZN7ns_menu7timeOutE>
    2a8c:	10 92 c0 01 	sts	0x01C0, r1	; 0x8001c0 <_ZN7ns_menu7timeOutE+0x1>
    2a90:	10 92 c1 01 	sts	0x01C1, r1	; 0x8001c1 <_ZN7ns_menu7timeOutE+0x2>
    2a94:	10 92 c2 01 	sts	0x01C2, r1	; 0x8001c2 <_ZN7ns_menu7timeOutE+0x3>
    2a98:	8f bf       	out	0x3f, r24	; 63
    2a9a:	80 e0       	ldi	r24, 0x00	; 0
    2a9c:	40 cf       	rjmp	.-384    	; 0x291e <_ZN7ns_menu7SetModeEh>
    2a9e:	08 95       	ret

00002aa0 <_ZN7ns_menu15Menu_SelectBackEh>:
    2aa0:	8f b7       	in	r24, 0x3f	; 63
    2aa2:	f8 94       	cli
    2aa4:	10 92 bf 01 	sts	0x01BF, r1	; 0x8001bf <_ZN7ns_menu7timeOutE>
    2aa8:	10 92 c0 01 	sts	0x01C0, r1	; 0x8001c0 <_ZN7ns_menu7timeOutE+0x1>
    2aac:	10 92 c1 01 	sts	0x01C1, r1	; 0x8001c1 <_ZN7ns_menu7timeOutE+0x2>
    2ab0:	10 92 c2 01 	sts	0x01C2, r1	; 0x8001c2 <_ZN7ns_menu7timeOutE+0x3>
    2ab4:	8f bf       	out	0x3f, r24	; 63
    2ab6:	80 e0       	ldi	r24, 0x00	; 0
    2ab8:	32 cf       	rjmp	.-412    	; 0x291e <_ZN7ns_menu7SetModeEh>
    2aba:	08 95       	ret

00002abc <_ZN7ns_menu13Menu_SelectMMEh>:
    2abc:	e0 91 de 01 	lds	r30, 0x01DE	; 0x8001de <key4>
    2ac0:	f0 91 df 01 	lds	r31, 0x01DF	; 0x8001df <key4+0x1>
    2ac4:	10 82       	st	Z, r1
    2ac6:	86 30       	cpi	r24, 0x06	; 6
    2ac8:	69 f4       	brne	.+26     	; 0x2ae4 <_ZN7ns_menu13Menu_SelectMMEh+0x28>
    2aca:	8f b7       	in	r24, 0x3f	; 63
    2acc:	f8 94       	cli
    2ace:	10 92 bf 01 	sts	0x01BF, r1	; 0x8001bf <_ZN7ns_menu7timeOutE>
    2ad2:	10 92 c0 01 	sts	0x01C0, r1	; 0x8001c0 <_ZN7ns_menu7timeOutE+0x1>
    2ad6:	10 92 c1 01 	sts	0x01C1, r1	; 0x8001c1 <_ZN7ns_menu7timeOutE+0x2>
    2ada:	10 92 c2 01 	sts	0x01C2, r1	; 0x8001c2 <_ZN7ns_menu7timeOutE+0x3>
    2ade:	8f bf       	out	0x3f, r24	; 63
    2ae0:	8e e0       	ldi	r24, 0x0E	; 14
    2ae2:	1d cf       	rjmp	.-454    	; 0x291e <_ZN7ns_menu7SetModeEh>
    2ae4:	08 95       	ret

00002ae6 <_ZN7ns_menu13Menu_SelectVVEh>:
    2ae6:	8f b7       	in	r24, 0x3f	; 63
    2ae8:	f8 94       	cli
    2aea:	10 92 bf 01 	sts	0x01BF, r1	; 0x8001bf <_ZN7ns_menu7timeOutE>
    2aee:	10 92 c0 01 	sts	0x01C0, r1	; 0x8001c0 <_ZN7ns_menu7timeOutE+0x1>
    2af2:	10 92 c1 01 	sts	0x01C1, r1	; 0x8001c1 <_ZN7ns_menu7timeOutE+0x2>
    2af6:	10 92 c2 01 	sts	0x01C2, r1	; 0x8001c2 <_ZN7ns_menu7timeOutE+0x3>
    2afa:	8f bf       	out	0x3f, r24	; 63
    2afc:	e0 91 de 01 	lds	r30, 0x01DE	; 0x8001de <key4>
    2b00:	f0 91 df 01 	lds	r31, 0x01DF	; 0x8001df <key4+0x1>
    2b04:	10 82       	st	Z, r1
    2b06:	80 91 bd 01 	lds	r24, 0x01BD	; 0x8001bd <_ZN7ns_menu10curPosPassE>
    2b0a:	81 11       	cpse	r24, r1
    2b0c:	03 c0       	rjmp	.+6      	; 0x2b14 <_ZN7ns_menu13Menu_SelectVVEh+0x2e>
    2b0e:	88 e0       	ldi	r24, 0x08	; 8
    2b10:	06 cf       	rjmp	.-500    	; 0x291e <_ZN7ns_menu7SetModeEh>
    2b12:	08 95       	ret
    2b14:	81 30       	cpi	r24, 0x01	; 1
    2b16:	19 f4       	brne	.+6      	; 0x2b1e <_ZN7ns_menu13Menu_SelectVVEh+0x38>
    2b18:	89 e0       	ldi	r24, 0x09	; 9
    2b1a:	01 cf       	rjmp	.-510    	; 0x291e <_ZN7ns_menu7SetModeEh>
    2b1c:	08 95       	ret
    2b1e:	82 30       	cpi	r24, 0x02	; 2
    2b20:	19 f4       	brne	.+6      	; 0x2b28 <_ZN7ns_menu13Menu_SelectVVEh+0x42>
    2b22:	8f e0       	ldi	r24, 0x0F	; 15
    2b24:	fc ce       	rjmp	.-520    	; 0x291e <_ZN7ns_menu7SetModeEh>
    2b26:	08 95       	ret
    2b28:	83 30       	cpi	r24, 0x03	; 3
    2b2a:	19 f4       	brne	.+6      	; 0x2b32 <_ZN7ns_menu13Menu_SelectVVEh+0x4c>
    2b2c:	8a e0       	ldi	r24, 0x0A	; 10
    2b2e:	f7 ce       	rjmp	.-530    	; 0x291e <_ZN7ns_menu7SetModeEh>
    2b30:	08 95       	ret
    2b32:	84 30       	cpi	r24, 0x04	; 4
    2b34:	49 f4       	brne	.+18     	; 0x2b48 <_ZN7ns_menu13Menu_SelectVVEh+0x62>
    2b36:	81 e0       	ldi	r24, 0x01	; 1
    2b38:	80 93 b6 01 	sts	0x01B6, r24	; 0x8001b6 <_ZN7ns_menu10curSensIdxE>
    2b3c:	82 e0       	ldi	r24, 0x02	; 2
    2b3e:	80 93 b7 01 	sts	0x01B7, r24	; 0x8001b7 <_ZN7ns_menu9curSensorE>
    2b42:	83 e0       	ldi	r24, 0x03	; 3
    2b44:	ec ce       	rjmp	.-552    	; 0x291e <_ZN7ns_menu7SetModeEh>
    2b46:	08 95       	ret
    2b48:	85 30       	cpi	r24, 0x05	; 5
    2b4a:	41 f4       	brne	.+16     	; 0x2b5c <_ZN7ns_menu13Menu_SelectVVEh+0x76>
    2b4c:	82 e0       	ldi	r24, 0x02	; 2
    2b4e:	80 93 b6 01 	sts	0x01B6, r24	; 0x8001b6 <_ZN7ns_menu10curSensIdxE>
    2b52:	83 e0       	ldi	r24, 0x03	; 3
    2b54:	80 93 b7 01 	sts	0x01B7, r24	; 0x8001b7 <_ZN7ns_menu9curSensorE>
    2b58:	e2 ce       	rjmp	.-572    	; 0x291e <_ZN7ns_menu7SetModeEh>
    2b5a:	08 95       	ret
    2b5c:	86 30       	cpi	r24, 0x06	; 6
    2b5e:	49 f4       	brne	.+18     	; 0x2b72 <_ZN7ns_menu13Menu_SelectVVEh+0x8c>
    2b60:	83 e0       	ldi	r24, 0x03	; 3
    2b62:	80 93 b6 01 	sts	0x01B6, r24	; 0x8001b6 <_ZN7ns_menu10curSensIdxE>
    2b66:	84 e0       	ldi	r24, 0x04	; 4
    2b68:	80 93 b7 01 	sts	0x01B7, r24	; 0x8001b7 <_ZN7ns_menu9curSensorE>
    2b6c:	83 e0       	ldi	r24, 0x03	; 3
    2b6e:	d7 ce       	rjmp	.-594    	; 0x291e <_ZN7ns_menu7SetModeEh>
    2b70:	08 95       	ret
    2b72:	87 30       	cpi	r24, 0x07	; 7
    2b74:	49 f4       	brne	.+18     	; 0x2b88 <_ZN7ns_menu13Menu_SelectVVEh+0xa2>
    2b76:	84 e0       	ldi	r24, 0x04	; 4
    2b78:	80 93 b6 01 	sts	0x01B6, r24	; 0x8001b6 <_ZN7ns_menu10curSensIdxE>
    2b7c:	85 e0       	ldi	r24, 0x05	; 5
    2b7e:	80 93 b7 01 	sts	0x01B7, r24	; 0x8001b7 <_ZN7ns_menu9curSensorE>
    2b82:	83 e0       	ldi	r24, 0x03	; 3
    2b84:	cc ce       	rjmp	.-616    	; 0x291e <_ZN7ns_menu7SetModeEh>
    2b86:	08 95       	ret
    2b88:	88 30       	cpi	r24, 0x08	; 8
    2b8a:	19 f4       	brne	.+6      	; 0x2b92 <_ZN7ns_menu13Menu_SelectVVEh+0xac>
    2b8c:	8b e0       	ldi	r24, 0x0B	; 11
    2b8e:	c7 ce       	rjmp	.-626    	; 0x291e <_ZN7ns_menu7SetModeEh>
    2b90:	08 95       	ret
    2b92:	89 30       	cpi	r24, 0x09	; 9
    2b94:	19 f4       	brne	.+6      	; 0x2b9c <_ZN7ns_menu13Menu_SelectVVEh+0xb6>
    2b96:	8c e0       	ldi	r24, 0x0C	; 12
    2b98:	c2 ce       	rjmp	.-636    	; 0x291e <_ZN7ns_menu7SetModeEh>
    2b9a:	08 95       	ret
    2b9c:	8a 30       	cpi	r24, 0x0A	; 10
    2b9e:	19 f4       	brne	.+6      	; 0x2ba6 <_ZN7ns_menu13Menu_SelectVVEh+0xc0>
    2ba0:	87 e0       	ldi	r24, 0x07	; 7
    2ba2:	bd ce       	rjmp	.-646    	; 0x291e <_ZN7ns_menu7SetModeEh>
    2ba4:	08 95       	ret
    2ba6:	8b 30       	cpi	r24, 0x0B	; 11
    2ba8:	11 f4       	brne	.+4      	; 0x2bae <_ZN7ns_menu13Menu_SelectVVEh+0xc8>
    2baa:	85 e0       	ldi	r24, 0x05	; 5
    2bac:	b8 ce       	rjmp	.-656    	; 0x291e <_ZN7ns_menu7SetModeEh>
    2bae:	08 95       	ret

00002bb0 <_ZN7ns_menu15Menu_SelectToutEh>:
    2bb0:	8f b7       	in	r24, 0x3f	; 63
    2bb2:	f8 94       	cli
    2bb4:	10 92 bf 01 	sts	0x01BF, r1	; 0x8001bf <_ZN7ns_menu7timeOutE>
    2bb8:	10 92 c0 01 	sts	0x01C0, r1	; 0x8001c0 <_ZN7ns_menu7timeOutE+0x1>
    2bbc:	10 92 c1 01 	sts	0x01C1, r1	; 0x8001c1 <_ZN7ns_menu7timeOutE+0x2>
    2bc0:	10 92 c2 01 	sts	0x01C2, r1	; 0x8001c2 <_ZN7ns_menu7timeOutE+0x3>
    2bc4:	8f bf       	out	0x3f, r24	; 63
    2bc6:	80 e0       	ldi	r24, 0x00	; 0
    2bc8:	aa ce       	rjmp	.-684    	; 0x291e <_ZN7ns_menu7SetModeEh>
    2bca:	08 95       	ret

00002bcc <_ZN7ns_menu15Edit_SensorBackEh>:
    2bcc:	8f b7       	in	r24, 0x3f	; 63
    2bce:	f8 94       	cli
    2bd0:	10 92 bf 01 	sts	0x01BF, r1	; 0x8001bf <_ZN7ns_menu7timeOutE>
    2bd4:	10 92 c0 01 	sts	0x01C0, r1	; 0x8001c0 <_ZN7ns_menu7timeOutE+0x1>
    2bd8:	10 92 c1 01 	sts	0x01C1, r1	; 0x8001c1 <_ZN7ns_menu7timeOutE+0x2>
    2bdc:	10 92 c2 01 	sts	0x01C2, r1	; 0x8001c2 <_ZN7ns_menu7timeOutE+0x3>
    2be0:	8f bf       	out	0x3f, r24	; 63
    2be2:	e0 91 de 01 	lds	r30, 0x01DE	; 0x8001de <key4>
    2be6:	f0 91 df 01 	lds	r31, 0x01DF	; 0x8001df <key4+0x1>
    2bea:	10 82       	st	Z, r1
    2bec:	82 e0       	ldi	r24, 0x02	; 2
    2bee:	97 ce       	rjmp	.-722    	; 0x291e <_ZN7ns_menu7SetModeEh>
    2bf0:	08 95       	ret

00002bf2 <_ZN7ns_menu13Edit_SensorVVEh>:
    2bf2:	8f b7       	in	r24, 0x3f	; 63
    2bf4:	f8 94       	cli
    2bf6:	10 92 bf 01 	sts	0x01BF, r1	; 0x8001bf <_ZN7ns_menu7timeOutE>
    2bfa:	10 92 c0 01 	sts	0x01C0, r1	; 0x8001c0 <_ZN7ns_menu7timeOutE+0x1>
    2bfe:	10 92 c1 01 	sts	0x01C1, r1	; 0x8001c1 <_ZN7ns_menu7timeOutE+0x2>
    2c02:	10 92 c2 01 	sts	0x01C2, r1	; 0x8001c2 <_ZN7ns_menu7timeOutE+0x3>
    2c06:	8f bf       	out	0x3f, r24	; 63
    2c08:	e0 91 de 01 	lds	r30, 0x01DE	; 0x8001de <key4>
    2c0c:	f0 91 df 01 	lds	r31, 0x01DF	; 0x8001df <key4+0x1>
    2c10:	10 82       	st	Z, r1
    2c12:	60 91 b4 01 	lds	r22, 0x01B4	; 0x8001b4 <_ZN7ns_menu11tmpDistanceE>
    2c16:	70 91 b5 01 	lds	r23, 0x01B5	; 0x8001b5 <_ZN7ns_menu11tmpDistanceE+0x1>
    2c1a:	80 91 b6 01 	lds	r24, 0x01B6	; 0x8001b6 <_ZN7ns_menu10curSensIdxE>
    2c1e:	90 e0       	ldi	r25, 0x00	; 0
    2c20:	88 0f       	add	r24, r24
    2c22:	99 1f       	adc	r25, r25
    2c24:	8d 50       	subi	r24, 0x0D	; 13
    2c26:	93 4f       	sbci	r25, 0xF3	; 243
    2c28:	0e 94 13 33 	call	0x6626	; 0x6626 <eeprom_write_word>
    2c2c:	61 e0       	ldi	r22, 0x01	; 1
    2c2e:	80 e0       	ldi	r24, 0x00	; 0
    2c30:	0e 94 dd 2a 	call	0x55ba	; 0x55ba <_ZN6ns_lcd11SetPositionEhh>
    2c34:	68 ed       	ldi	r22, 0xD8	; 216
    2c36:	71 e0       	ldi	r23, 0x01	; 1
    2c38:	0e 94 e7 2b 	call	0x57ce	; 0x57ce <_ZN6ns_lcd8String_PEhPKc>
    2c3c:	8f b7       	in	r24, 0x3f	; 63
    2c3e:	f8 94       	cli
    2c40:	48 e8       	ldi	r20, 0x88	; 136
    2c42:	53 e1       	ldi	r21, 0x13	; 19
    2c44:	60 e0       	ldi	r22, 0x00	; 0
    2c46:	70 e0       	ldi	r23, 0x00	; 0
    2c48:	40 93 bf 01 	sts	0x01BF, r20	; 0x8001bf <_ZN7ns_menu7timeOutE>
    2c4c:	50 93 c0 01 	sts	0x01C0, r21	; 0x8001c0 <_ZN7ns_menu7timeOutE+0x1>
    2c50:	60 93 c1 01 	sts	0x01C1, r22	; 0x8001c1 <_ZN7ns_menu7timeOutE+0x2>
    2c54:	70 93 c2 01 	sts	0x01C2, r23	; 0x8001c2 <_ZN7ns_menu7timeOutE+0x3>
    2c58:	8f bf       	out	0x3f, r24	; 63
    2c5a:	86 e0       	ldi	r24, 0x06	; 6
    2c5c:	60 ce       	rjmp	.-832    	; 0x291e <_ZN7ns_menu7SetModeEh>
    2c5e:	08 95       	ret

00002c60 <_ZN7ns_menu15Edit_SensorToutEh>:
    2c60:	8f b7       	in	r24, 0x3f	; 63
    2c62:	f8 94       	cli
    2c64:	10 92 bf 01 	sts	0x01BF, r1	; 0x8001bf <_ZN7ns_menu7timeOutE>
    2c68:	10 92 c0 01 	sts	0x01C0, r1	; 0x8001c0 <_ZN7ns_menu7timeOutE+0x1>
    2c6c:	10 92 c1 01 	sts	0x01C1, r1	; 0x8001c1 <_ZN7ns_menu7timeOutE+0x2>
    2c70:	10 92 c2 01 	sts	0x01C2, r1	; 0x8001c2 <_ZN7ns_menu7timeOutE+0x3>
    2c74:	8f bf       	out	0x3f, r24	; 63
    2c76:	82 e0       	ldi	r24, 0x02	; 2
    2c78:	52 ce       	rjmp	.-860    	; 0x291e <_ZN7ns_menu7SetModeEh>
    2c7a:	08 95       	ret

00002c7c <_ZN7ns_menu14TimeoutToMainEEh>:
    2c7c:	80 e0       	ldi	r24, 0x00	; 0
    2c7e:	4f ce       	rjmp	.-866    	; 0x291e <_ZN7ns_menu7SetModeEh>
    2c80:	08 95       	ret

00002c82 <_ZN7ns_menu12Set_PassBackEh>:
    2c82:	8f b7       	in	r24, 0x3f	; 63
    2c84:	f8 94       	cli
    2c86:	10 92 bf 01 	sts	0x01BF, r1	; 0x8001bf <_ZN7ns_menu7timeOutE>
    2c8a:	10 92 c0 01 	sts	0x01C0, r1	; 0x8001c0 <_ZN7ns_menu7timeOutE+0x1>
    2c8e:	10 92 c1 01 	sts	0x01C1, r1	; 0x8001c1 <_ZN7ns_menu7timeOutE+0x2>
    2c92:	10 92 c2 01 	sts	0x01C2, r1	; 0x8001c2 <_ZN7ns_menu7timeOutE+0x3>
    2c96:	8f bf       	out	0x3f, r24	; 63
    2c98:	e0 91 de 01 	lds	r30, 0x01DE	; 0x8001de <key4>
    2c9c:	f0 91 df 01 	lds	r31, 0x01DF	; 0x8001df <key4+0x1>
    2ca0:	10 82       	st	Z, r1
    2ca2:	10 92 bf 01 	sts	0x01BF, r1	; 0x8001bf <_ZN7ns_menu7timeOutE>
    2ca6:	10 92 c0 01 	sts	0x01C0, r1	; 0x8001c0 <_ZN7ns_menu7timeOutE+0x1>
    2caa:	10 92 c1 01 	sts	0x01C1, r1	; 0x8001c1 <_ZN7ns_menu7timeOutE+0x2>
    2cae:	10 92 c2 01 	sts	0x01C2, r1	; 0x8001c2 <_ZN7ns_menu7timeOutE+0x3>
    2cb2:	82 e0       	ldi	r24, 0x02	; 2
    2cb4:	34 ce       	rjmp	.-920    	; 0x291e <_ZN7ns_menu7SetModeEh>
    2cb6:	08 95       	ret

00002cb8 <_ZN7ns_menu12Set_PassToutEh>:
    2cb8:	8f b7       	in	r24, 0x3f	; 63
    2cba:	f8 94       	cli
    2cbc:	10 92 bf 01 	sts	0x01BF, r1	; 0x8001bf <_ZN7ns_menu7timeOutE>
    2cc0:	10 92 c0 01 	sts	0x01C0, r1	; 0x8001c0 <_ZN7ns_menu7timeOutE+0x1>
    2cc4:	10 92 c1 01 	sts	0x01C1, r1	; 0x8001c1 <_ZN7ns_menu7timeOutE+0x2>
    2cc8:	10 92 c2 01 	sts	0x01C2, r1	; 0x8001c2 <_ZN7ns_menu7timeOutE+0x3>
    2ccc:	8f bf       	out	0x3f, r24	; 63
    2cce:	82 e0       	ldi	r24, 0x02	; 2
    2cd0:	26 ce       	rjmp	.-948    	; 0x291e <_ZN7ns_menu7SetModeEh>
    2cd2:	08 95       	ret

00002cd4 <_ZN7ns_menu14TimeoutToMnSelEh>:
    2cd4:	8f b7       	in	r24, 0x3f	; 63
    2cd6:	f8 94       	cli
    2cd8:	10 92 bf 01 	sts	0x01BF, r1	; 0x8001bf <_ZN7ns_menu7timeOutE>
    2cdc:	10 92 c0 01 	sts	0x01C0, r1	; 0x8001c0 <_ZN7ns_menu7timeOutE+0x1>
    2ce0:	10 92 c1 01 	sts	0x01C1, r1	; 0x8001c1 <_ZN7ns_menu7timeOutE+0x2>
    2ce4:	10 92 c2 01 	sts	0x01C2, r1	; 0x8001c2 <_ZN7ns_menu7timeOutE+0x3>
    2ce8:	8f bf       	out	0x3f, r24	; 63
    2cea:	82 e0       	ldi	r24, 0x02	; 2
    2cec:	18 ce       	rjmp	.-976    	; 0x291e <_ZN7ns_menu7SetModeEh>
    2cee:	08 95       	ret

00002cf0 <_ZN7ns_menu12Set_TimeToutEh>:
    2cf0:	8f b7       	in	r24, 0x3f	; 63
    2cf2:	f8 94       	cli
    2cf4:	10 92 bf 01 	sts	0x01BF, r1	; 0x8001bf <_ZN7ns_menu7timeOutE>
    2cf8:	10 92 c0 01 	sts	0x01C0, r1	; 0x8001c0 <_ZN7ns_menu7timeOutE+0x1>
    2cfc:	10 92 c1 01 	sts	0x01C1, r1	; 0x8001c1 <_ZN7ns_menu7timeOutE+0x2>
    2d00:	10 92 c2 01 	sts	0x01C2, r1	; 0x8001c2 <_ZN7ns_menu7timeOutE+0x3>
    2d04:	8f bf       	out	0x3f, r24	; 63
    2d06:	80 e0       	ldi	r24, 0x00	; 0
    2d08:	0a ce       	rjmp	.-1004   	; 0x291e <_ZN7ns_menu7SetModeEh>
    2d0a:	08 95       	ret

00002d0c <_ZN7ns_menu12view_arcBackEh>:
    2d0c:	e0 91 de 01 	lds	r30, 0x01DE	; 0x8001de <key4>
    2d10:	f0 91 df 01 	lds	r31, 0x01DF	; 0x8001df <key4+0x1>
    2d14:	10 82       	st	Z, r1
    2d16:	80 e0       	ldi	r24, 0x00	; 0
    2d18:	02 ce       	rjmp	.-1020   	; 0x291e <_ZN7ns_menu7SetModeEh>
    2d1a:	08 95       	ret

00002d1c <_ZN7ns_menu14CorCurTubeBackEh>:
    2d1c:	8f b7       	in	r24, 0x3f	; 63
    2d1e:	f8 94       	cli
    2d20:	10 92 bf 01 	sts	0x01BF, r1	; 0x8001bf <_ZN7ns_menu7timeOutE>
    2d24:	10 92 c0 01 	sts	0x01C0, r1	; 0x8001c0 <_ZN7ns_menu7timeOutE+0x1>
    2d28:	10 92 c1 01 	sts	0x01C1, r1	; 0x8001c1 <_ZN7ns_menu7timeOutE+0x2>
    2d2c:	10 92 c2 01 	sts	0x01C2, r1	; 0x8001c2 <_ZN7ns_menu7timeOutE+0x3>
    2d30:	8f bf       	out	0x3f, r24	; 63
    2d32:	e0 91 de 01 	lds	r30, 0x01DE	; 0x8001de <key4>
    2d36:	f0 91 df 01 	lds	r31, 0x01DF	; 0x8001df <key4+0x1>
    2d3a:	10 82       	st	Z, r1
    2d3c:	80 e0       	ldi	r24, 0x00	; 0
    2d3e:	ef cd       	rjmp	.-1058   	; 0x291e <_ZN7ns_menu7SetModeEh>
    2d40:	08 95       	ret

00002d42 <_ZN7ns_menu12CorCurTubeEnEh>:
    2d42:	8f b7       	in	r24, 0x3f	; 63
    2d44:	f8 94       	cli
    2d46:	10 92 bf 01 	sts	0x01BF, r1	; 0x8001bf <_ZN7ns_menu7timeOutE>
    2d4a:	10 92 c0 01 	sts	0x01C0, r1	; 0x8001c0 <_ZN7ns_menu7timeOutE+0x1>
    2d4e:	10 92 c1 01 	sts	0x01C1, r1	; 0x8001c1 <_ZN7ns_menu7timeOutE+0x2>
    2d52:	10 92 c2 01 	sts	0x01C2, r1	; 0x8001c2 <_ZN7ns_menu7timeOutE+0x3>
    2d56:	8f bf       	out	0x3f, r24	; 63
    2d58:	e0 91 de 01 	lds	r30, 0x01DE	; 0x8001de <key4>
    2d5c:	f0 91 df 01 	lds	r31, 0x01DF	; 0x8001df <key4+0x1>
    2d60:	10 82       	st	Z, r1
    2d62:	60 91 96 01 	lds	r22, 0x0196	; 0x800196 <_ZN7ns_menu15corCurTube_baseE>
    2d66:	70 91 97 01 	lds	r23, 0x0197	; 0x800197 <_ZN7ns_menu15corCurTube_baseE+0x1>
    2d6a:	80 91 9a 01 	lds	r24, 0x019A	; 0x80019a <_ZN7ns_menu12corCurTube_lE>
    2d6e:	90 e0       	ldi	r25, 0x00	; 0
    2d70:	88 0f       	add	r24, r24
    2d72:	99 1f       	adc	r25, r25
    2d74:	8d 50       	subi	r24, 0x0D	; 13
    2d76:	93 4f       	sbci	r25, 0xF3	; 243
    2d78:	0e 94 f9 32 	call	0x65f2	; 0x65f2 <eeprom_update_word>
    2d7c:	80 e0       	ldi	r24, 0x00	; 0
    2d7e:	cf cd       	rjmp	.-1122   	; 0x291e <_ZN7ns_menu7SetModeEh>
    2d80:	08 95       	ret

00002d82 <_ZN7ns_menu11ZeroArc_YesEh>:
    2d82:	8f b7       	in	r24, 0x3f	; 63
    2d84:	f8 94       	cli
    2d86:	10 92 bf 01 	sts	0x01BF, r1	; 0x8001bf <_ZN7ns_menu7timeOutE>
    2d8a:	10 92 c0 01 	sts	0x01C0, r1	; 0x8001c0 <_ZN7ns_menu7timeOutE+0x1>
    2d8e:	10 92 c1 01 	sts	0x01C1, r1	; 0x8001c1 <_ZN7ns_menu7timeOutE+0x2>
    2d92:	10 92 c2 01 	sts	0x01C2, r1	; 0x8001c2 <_ZN7ns_menu7timeOutE+0x3>
    2d96:	8f bf       	out	0x3f, r24	; 63
    2d98:	0e 94 b9 03 	call	0x772	; 0x772 <_ZN10ns_archive8SummZeroEv>
    2d9c:	80 e0       	ldi	r24, 0x00	; 0
    2d9e:	bf cd       	rjmp	.-1154   	; 0x291e <_ZN7ns_menu7SetModeEh>
    2da0:	08 95       	ret

00002da2 <_ZN7ns_menu12ZeroArc_MenuEh>:
    2da2:	8f b7       	in	r24, 0x3f	; 63
    2da4:	f8 94       	cli
    2da6:	10 92 bf 01 	sts	0x01BF, r1	; 0x8001bf <_ZN7ns_menu7timeOutE>
    2daa:	10 92 c0 01 	sts	0x01C0, r1	; 0x8001c0 <_ZN7ns_menu7timeOutE+0x1>
    2dae:	10 92 c1 01 	sts	0x01C1, r1	; 0x8001c1 <_ZN7ns_menu7timeOutE+0x2>
    2db2:	10 92 c2 01 	sts	0x01C2, r1	; 0x8001c2 <_ZN7ns_menu7timeOutE+0x3>
    2db6:	8f bf       	out	0x3f, r24	; 63
    2db8:	82 e0       	ldi	r24, 0x02	; 2
    2dba:	b1 cd       	rjmp	.-1182   	; 0x291e <_ZN7ns_menu7SetModeEh>
    2dbc:	08 95       	ret

00002dbe <_ZN7ns_menu15ZeroArc_TimeOutEh>:
    2dbe:	8f b7       	in	r24, 0x3f	; 63
    2dc0:	f8 94       	cli
    2dc2:	10 92 bf 01 	sts	0x01BF, r1	; 0x8001bf <_ZN7ns_menu7timeOutE>
    2dc6:	10 92 c0 01 	sts	0x01C0, r1	; 0x8001c0 <_ZN7ns_menu7timeOutE+0x1>
    2dca:	10 92 c1 01 	sts	0x01C1, r1	; 0x8001c1 <_ZN7ns_menu7timeOutE+0x2>
    2dce:	10 92 c2 01 	sts	0x01C2, r1	; 0x8001c2 <_ZN7ns_menu7timeOutE+0x3>
    2dd2:	8f bf       	out	0x3f, r24	; 63
    2dd4:	80 e0       	ldi	r24, 0x00	; 0
    2dd6:	a3 cd       	rjmp	.-1210   	; 0x291e <_ZN7ns_menu7SetModeEh>
    2dd8:	08 95       	ret

00002dda <_ZN7ns_menu19ProtectIntervalBackEh>:
    2dda:	8f b7       	in	r24, 0x3f	; 63
    2ddc:	f8 94       	cli
    2dde:	10 92 bf 01 	sts	0x01BF, r1	; 0x8001bf <_ZN7ns_menu7timeOutE>
    2de2:	10 92 c0 01 	sts	0x01C0, r1	; 0x8001c0 <_ZN7ns_menu7timeOutE+0x1>
    2de6:	10 92 c1 01 	sts	0x01C1, r1	; 0x8001c1 <_ZN7ns_menu7timeOutE+0x2>
    2dea:	10 92 c2 01 	sts	0x01C2, r1	; 0x8001c2 <_ZN7ns_menu7timeOutE+0x3>
    2dee:	8f bf       	out	0x3f, r24	; 63
    2df0:	82 e0       	ldi	r24, 0x02	; 2
    2df2:	95 cd       	rjmp	.-1238   	; 0x291e <_ZN7ns_menu7SetModeEh>
    2df4:	08 95       	ret

00002df6 <_ZN7ns_menu17ProtectIntervalEnEh>:
    2df6:	8f b7       	in	r24, 0x3f	; 63
    2df8:	f8 94       	cli
    2dfa:	10 92 bf 01 	sts	0x01BF, r1	; 0x8001bf <_ZN7ns_menu7timeOutE>
    2dfe:	10 92 c0 01 	sts	0x01C0, r1	; 0x8001c0 <_ZN7ns_menu7timeOutE+0x1>
    2e02:	10 92 c1 01 	sts	0x01C1, r1	; 0x8001c1 <_ZN7ns_menu7timeOutE+0x2>
    2e06:	10 92 c2 01 	sts	0x01C2, r1	; 0x8001c2 <_ZN7ns_menu7timeOutE+0x3>
    2e0a:	8f bf       	out	0x3f, r24	; 63
    2e0c:	e0 91 de 01 	lds	r30, 0x01DE	; 0x8001de <key4>
    2e10:	f0 91 df 01 	lds	r31, 0x01DF	; 0x8001df <key4+0x1>
    2e14:	10 82       	st	Z, r1
    2e16:	20 91 94 01 	lds	r18, 0x0194	; 0x800194 <_ZN7ns_menu11tmpIntervalE>
    2e1a:	30 91 95 01 	lds	r19, 0x0195	; 0x800195 <_ZN7ns_menu11tmpIntervalE+0x1>
    2e1e:	a0 ed       	ldi	r26, 0xD0	; 208
    2e20:	b7 e0       	ldi	r27, 0x07	; 7
    2e22:	0e 94 3e 30 	call	0x607c	; 0x607c <__umulhisi3>
    2e26:	28 ee       	ldi	r18, 0xE8	; 232
    2e28:	33 e0       	ldi	r19, 0x03	; 3
    2e2a:	40 e0       	ldi	r20, 0x00	; 0
    2e2c:	50 e0       	ldi	r21, 0x00	; 0
    2e2e:	0e 94 00 30 	call	0x6000	; 0x6000 <__udivmodsi4>
    2e32:	b9 01       	movw	r22, r18
    2e34:	81 ef       	ldi	r24, 0xF1	; 241
    2e36:	9c e0       	ldi	r25, 0x0C	; 12
    2e38:	0e 94 f9 32 	call	0x65f2	; 0x65f2 <eeprom_update_word>
    2e3c:	82 e0       	ldi	r24, 0x02	; 2
    2e3e:	6f cd       	rjmp	.-1314   	; 0x291e <_ZN7ns_menu7SetModeEh>
    2e40:	08 95       	ret

00002e42 <_ZN7ns_menu12TmIntegralBcEh>:
    2e42:	8f b7       	in	r24, 0x3f	; 63
    2e44:	f8 94       	cli
    2e46:	10 92 bf 01 	sts	0x01BF, r1	; 0x8001bf <_ZN7ns_menu7timeOutE>
    2e4a:	10 92 c0 01 	sts	0x01C0, r1	; 0x8001c0 <_ZN7ns_menu7timeOutE+0x1>
    2e4e:	10 92 c1 01 	sts	0x01C1, r1	; 0x8001c1 <_ZN7ns_menu7timeOutE+0x2>
    2e52:	10 92 c2 01 	sts	0x01C2, r1	; 0x8001c2 <_ZN7ns_menu7timeOutE+0x3>
    2e56:	8f bf       	out	0x3f, r24	; 63
    2e58:	e0 91 de 01 	lds	r30, 0x01DE	; 0x8001de <key4>
    2e5c:	f0 91 df 01 	lds	r31, 0x01DF	; 0x8001df <key4+0x1>
    2e60:	10 82       	st	Z, r1
    2e62:	82 e0       	ldi	r24, 0x02	; 2
    2e64:	5c cd       	rjmp	.-1352   	; 0x291e <_ZN7ns_menu7SetModeEh>
    2e66:	08 95       	ret

00002e68 <_ZN7ns_menu12TmIntegralEnEh>:
    2e68:	cf 92       	push	r12
    2e6a:	df 92       	push	r13
    2e6c:	ef 92       	push	r14
    2e6e:	ff 92       	push	r15
    2e70:	8f b7       	in	r24, 0x3f	; 63
    2e72:	f8 94       	cli
    2e74:	10 92 bf 01 	sts	0x01BF, r1	; 0x8001bf <_ZN7ns_menu7timeOutE>
    2e78:	10 92 c0 01 	sts	0x01C0, r1	; 0x8001c0 <_ZN7ns_menu7timeOutE+0x1>
    2e7c:	10 92 c1 01 	sts	0x01C1, r1	; 0x8001c1 <_ZN7ns_menu7timeOutE+0x2>
    2e80:	10 92 c2 01 	sts	0x01C2, r1	; 0x8001c2 <_ZN7ns_menu7timeOutE+0x3>
    2e84:	8f bf       	out	0x3f, r24	; 63
    2e86:	e0 91 de 01 	lds	r30, 0x01DE	; 0x8001de <key4>
    2e8a:	f0 91 df 01 	lds	r31, 0x01DF	; 0x8001df <key4+0x1>
    2e8e:	10 82       	st	Z, r1
    2e90:	20 91 92 01 	lds	r18, 0x0192	; 0x800192 <_ZN7ns_menu10tmIntegralE>
    2e94:	30 91 93 01 	lds	r19, 0x0193	; 0x800193 <_ZN7ns_menu10tmIntegralE+0x1>
    2e98:	a0 ed       	ldi	r26, 0xD0	; 208
    2e9a:	b7 e0       	ldi	r27, 0x07	; 7
    2e9c:	0e 94 3e 30 	call	0x607c	; 0x607c <__umulhisi3>
    2ea0:	28 ee       	ldi	r18, 0xE8	; 232
    2ea2:	33 e0       	ldi	r19, 0x03	; 3
    2ea4:	40 e0       	ldi	r20, 0x00	; 0
    2ea6:	50 e0       	ldi	r21, 0x00	; 0
    2ea8:	0e 94 00 30 	call	0x6000	; 0x6000 <__udivmodsi4>
    2eac:	69 01       	movw	r12, r18
    2eae:	7a 01       	movw	r14, r20
    2eb0:	b9 01       	movw	r22, r18
    2eb2:	8f ee       	ldi	r24, 0xEF	; 239
    2eb4:	9c e0       	ldi	r25, 0x0C	; 12
    2eb6:	0e 94 f9 32 	call	0x65f2	; 0x65f2 <eeprom_update_word>
    2eba:	ef e7       	ldi	r30, 0x7F	; 127
    2ebc:	f1 e0       	ldi	r31, 0x01	; 1
    2ebe:	a0 81       	ld	r26, Z
    2ec0:	b1 81       	ldd	r27, Z+1	; 0x01
    2ec2:	12 96       	adiw	r26, 0x02	; 2
    2ec4:	dc 92       	st	X, r13
    2ec6:	ce 92       	st	-X, r12
    2ec8:	11 97       	sbiw	r26, 0x01	; 1
    2eca:	a2 81       	ldd	r26, Z+2	; 0x02
    2ecc:	b3 81       	ldd	r27, Z+3	; 0x03
    2ece:	12 96       	adiw	r26, 0x02	; 2
    2ed0:	dc 92       	st	X, r13
    2ed2:	ce 92       	st	-X, r12
    2ed4:	11 97       	sbiw	r26, 0x01	; 1
    2ed6:	a4 81       	ldd	r26, Z+4	; 0x04
    2ed8:	b5 81       	ldd	r27, Z+5	; 0x05
    2eda:	12 96       	adiw	r26, 0x02	; 2
    2edc:	dc 92       	st	X, r13
    2ede:	ce 92       	st	-X, r12
    2ee0:	11 97       	sbiw	r26, 0x01	; 1
    2ee2:	a6 81       	ldd	r26, Z+6	; 0x06
    2ee4:	b7 81       	ldd	r27, Z+7	; 0x07
    2ee6:	12 96       	adiw	r26, 0x02	; 2
    2ee8:	dc 92       	st	X, r13
    2eea:	ce 92       	st	-X, r12
    2eec:	11 97       	sbiw	r26, 0x01	; 1
    2eee:	00 84       	ldd	r0, Z+8	; 0x08
    2ef0:	f1 85       	ldd	r31, Z+9	; 0x09
    2ef2:	e0 2d       	mov	r30, r0
    2ef4:	d2 82       	std	Z+2, r13	; 0x02
    2ef6:	c1 82       	std	Z+1, r12	; 0x01
    2ef8:	82 e0       	ldi	r24, 0x02	; 2
    2efa:	11 dd       	rcall	.-1502   	; 0x291e <_ZN7ns_menu7SetModeEh>
    2efc:	ff 90       	pop	r15
    2efe:	ef 90       	pop	r14
    2f00:	df 90       	pop	r13
    2f02:	cf 90       	pop	r12
    2f04:	08 95       	ret

00002f06 <_ZN7ns_menu10CorSpeedEnEh>:
    2f06:	8f b7       	in	r24, 0x3f	; 63
    2f08:	f8 94       	cli
    2f0a:	10 92 bf 01 	sts	0x01BF, r1	; 0x8001bf <_ZN7ns_menu7timeOutE>
    2f0e:	10 92 c0 01 	sts	0x01C0, r1	; 0x8001c0 <_ZN7ns_menu7timeOutE+0x1>
    2f12:	10 92 c1 01 	sts	0x01C1, r1	; 0x8001c1 <_ZN7ns_menu7timeOutE+0x2>
    2f16:	10 92 c2 01 	sts	0x01C2, r1	; 0x8001c2 <_ZN7ns_menu7timeOutE+0x3>
    2f1a:	8f bf       	out	0x3f, r24	; 63
    2f1c:	e0 91 de 01 	lds	r30, 0x01DE	; 0x8001de <key4>
    2f20:	f0 91 df 01 	lds	r31, 0x01DF	; 0x8001df <key4+0x1>
    2f24:	10 82       	st	Z, r1
    2f26:	60 91 91 01 	lds	r22, 0x0191	; 0x800191 <_ZN7ns_menu8corSpeedE>
    2f2a:	8e ee       	ldi	r24, 0xEE	; 238
    2f2c:	9c e0       	ldi	r25, 0x0C	; 12
    2f2e:	0e 94 e8 32 	call	0x65d0	; 0x65d0 <eeprom_update_byte>
    2f32:	82 e0       	ldi	r24, 0x02	; 2
    2f34:	f4 cc       	rjmp	.-1560   	; 0x291e <_ZN7ns_menu7SetModeEh>
    2f36:	08 95       	ret

00002f38 <_ZN7ns_menu10CorSpeedBcEh>:
    2f38:	8f b7       	in	r24, 0x3f	; 63
    2f3a:	f8 94       	cli
    2f3c:	10 92 bf 01 	sts	0x01BF, r1	; 0x8001bf <_ZN7ns_menu7timeOutE>
    2f40:	10 92 c0 01 	sts	0x01C0, r1	; 0x8001c0 <_ZN7ns_menu7timeOutE+0x1>
    2f44:	10 92 c1 01 	sts	0x01C1, r1	; 0x8001c1 <_ZN7ns_menu7timeOutE+0x2>
    2f48:	10 92 c2 01 	sts	0x01C2, r1	; 0x8001c2 <_ZN7ns_menu7timeOutE+0x3>
    2f4c:	8f bf       	out	0x3f, r24	; 63
    2f4e:	e0 91 de 01 	lds	r30, 0x01DE	; 0x8001de <key4>
    2f52:	f0 91 df 01 	lds	r31, 0x01DF	; 0x8001df <key4+0x1>
    2f56:	10 82       	st	Z, r1
    2f58:	82 e0       	ldi	r24, 0x02	; 2
    2f5a:	e1 cc       	rjmp	.-1598   	; 0x291e <_ZN7ns_menu7SetModeEh>
    2f5c:	08 95       	ret

00002f5e <_ZN7ns_menu10CalibScrBcEh>:
    2f5e:	e0 91 de 01 	lds	r30, 0x01DE	; 0x8001de <key4>
    2f62:	f0 91 df 01 	lds	r31, 0x01DF	; 0x8001df <key4+0x1>
    2f66:	10 82       	st	Z, r1
    2f68:	80 e0       	ldi	r24, 0x00	; 0
    2f6a:	d9 cc       	rjmp	.-1614   	; 0x291e <_ZN7ns_menu7SetModeEh>
    2f6c:	08 95       	ret

00002f6e <_ZN7ns_menu10Sq2OnOffBcEh>:
    2f6e:	8f b7       	in	r24, 0x3f	; 63
    2f70:	f8 94       	cli
    2f72:	10 92 bf 01 	sts	0x01BF, r1	; 0x8001bf <_ZN7ns_menu7timeOutE>
    2f76:	10 92 c0 01 	sts	0x01C0, r1	; 0x8001c0 <_ZN7ns_menu7timeOutE+0x1>
    2f7a:	10 92 c1 01 	sts	0x01C1, r1	; 0x8001c1 <_ZN7ns_menu7timeOutE+0x2>
    2f7e:	10 92 c2 01 	sts	0x01C2, r1	; 0x8001c2 <_ZN7ns_menu7timeOutE+0x3>
    2f82:	8f bf       	out	0x3f, r24	; 63
    2f84:	e0 91 de 01 	lds	r30, 0x01DE	; 0x8001de <key4>
    2f88:	f0 91 df 01 	lds	r31, 0x01DF	; 0x8001df <key4+0x1>
    2f8c:	10 82       	st	Z, r1
    2f8e:	82 e0       	ldi	r24, 0x02	; 2
    2f90:	c6 cc       	rjmp	.-1652   	; 0x291e <_ZN7ns_menu7SetModeEh>
    2f92:	08 95       	ret

00002f94 <_ZN7ns_menu10Sq2OnOffVVEh>:
    2f94:	8f b7       	in	r24, 0x3f	; 63
    2f96:	f8 94       	cli
    2f98:	10 92 bf 01 	sts	0x01BF, r1	; 0x8001bf <_ZN7ns_menu7timeOutE>
    2f9c:	10 92 c0 01 	sts	0x01C0, r1	; 0x8001c0 <_ZN7ns_menu7timeOutE+0x1>
    2fa0:	10 92 c1 01 	sts	0x01C1, r1	; 0x8001c1 <_ZN7ns_menu7timeOutE+0x2>
    2fa4:	10 92 c2 01 	sts	0x01C2, r1	; 0x8001c2 <_ZN7ns_menu7timeOutE+0x3>
    2fa8:	8f bf       	out	0x3f, r24	; 63
    2faa:	e0 91 de 01 	lds	r30, 0x01DE	; 0x8001de <key4>
    2fae:	f0 91 df 01 	lds	r31, 0x01DF	; 0x8001df <key4+0x1>
    2fb2:	10 82       	st	Z, r1
    2fb4:	60 91 89 01 	lds	r22, 0x0189	; 0x800189 <_ZN7ns_menu10sq2OnOffFlE>
    2fb8:	8d ee       	ldi	r24, 0xED	; 237
    2fba:	9c e0       	ldi	r25, 0x0C	; 12
    2fbc:	0e 94 e8 32 	call	0x65d0	; 0x65d0 <eeprom_update_byte>
    2fc0:	61 e0       	ldi	r22, 0x01	; 1
    2fc2:	80 e0       	ldi	r24, 0x00	; 0
    2fc4:	0e 94 dd 2a 	call	0x55ba	; 0x55ba <_ZN6ns_lcd11SetPositionEhh>
    2fc8:	65 ef       	ldi	r22, 0xF5	; 245
    2fca:	70 e0       	ldi	r23, 0x00	; 0
    2fcc:	0e 94 e7 2b 	call	0x57ce	; 0x57ce <_ZN6ns_lcd8String_PEhPKc>
    2fd0:	8f b7       	in	r24, 0x3f	; 63
    2fd2:	f8 94       	cli
    2fd4:	48 e8       	ldi	r20, 0x88	; 136
    2fd6:	53 e1       	ldi	r21, 0x13	; 19
    2fd8:	60 e0       	ldi	r22, 0x00	; 0
    2fda:	70 e0       	ldi	r23, 0x00	; 0
    2fdc:	40 93 bf 01 	sts	0x01BF, r20	; 0x8001bf <_ZN7ns_menu7timeOutE>
    2fe0:	50 93 c0 01 	sts	0x01C0, r21	; 0x8001c0 <_ZN7ns_menu7timeOutE+0x1>
    2fe4:	60 93 c1 01 	sts	0x01C1, r22	; 0x8001c1 <_ZN7ns_menu7timeOutE+0x2>
    2fe8:	70 93 c2 01 	sts	0x01C2, r23	; 0x8001c2 <_ZN7ns_menu7timeOutE+0x3>
    2fec:	8f bf       	out	0x3f, r24	; 63
    2fee:	86 e0       	ldi	r24, 0x06	; 6
    2ff0:	96 cc       	rjmp	.-1748   	; 0x291e <_ZN7ns_menu7SetModeEh>
    2ff2:	08 95       	ret

00002ff4 <_ZN7ns_menu4InitEv>:
    2ff4:	80 e0       	ldi	r24, 0x00	; 0
    2ff6:	93 cc       	rjmp	.-1754   	; 0x291e <_ZN7ns_menu7SetModeEh>
    2ff8:	08 95       	ret

00002ffa <_ZN7ns_menu4MainEv>:
    2ffa:	cf 93       	push	r28
    2ffc:	df 93       	push	r29
    2ffe:	1f 92       	push	r1
    3000:	cd b7       	in	r28, 0x3d	; 61
    3002:	de b7       	in	r29, 0x3e	; 62
    3004:	be 01       	movw	r22, r28
    3006:	6f 5f       	subi	r22, 0xFF	; 255
    3008:	7f 4f       	sbci	r23, 0xFF	; 255
    300a:	80 91 de 01 	lds	r24, 0x01DE	; 0x8001de <key4>
    300e:	90 91 df 01 	lds	r25, 0x01DF	; 0x8001df <key4+0x1>
    3012:	0e 94 45 29 	call	0x528a	; 0x528a <_ZN7tc_key44ReadEPh>
    3016:	9f b7       	in	r25, 0x3f	; 63
    3018:	f8 94       	cli
    301a:	40 91 bf 01 	lds	r20, 0x01BF	; 0x8001bf <_ZN7ns_menu7timeOutE>
    301e:	50 91 c0 01 	lds	r21, 0x01C0	; 0x8001c0 <_ZN7ns_menu7timeOutE+0x1>
    3022:	60 91 c1 01 	lds	r22, 0x01C1	; 0x8001c1 <_ZN7ns_menu7timeOutE+0x2>
    3026:	70 91 c2 01 	lds	r23, 0x01C2	; 0x8001c2 <_ZN7ns_menu7timeOutE+0x3>
    302a:	9f bf       	out	0x3f, r25	; 63
    302c:	41 30       	cpi	r20, 0x01	; 1
    302e:	51 05       	cpc	r21, r1
    3030:	61 05       	cpc	r22, r1
    3032:	71 05       	cpc	r23, r1
    3034:	d1 f4       	brne	.+52     	; 0x306a <_ZN7ns_menu4MainEv+0x70>
    3036:	8f b7       	in	r24, 0x3f	; 63
    3038:	f8 94       	cli
    303a:	10 92 bf 01 	sts	0x01BF, r1	; 0x8001bf <_ZN7ns_menu7timeOutE>
    303e:	10 92 c0 01 	sts	0x01C0, r1	; 0x8001c0 <_ZN7ns_menu7timeOutE+0x1>
    3042:	10 92 c1 01 	sts	0x01C1, r1	; 0x8001c1 <_ZN7ns_menu7timeOutE+0x2>
    3046:	10 92 c2 01 	sts	0x01C2, r1	; 0x8001c2 <_ZN7ns_menu7timeOutE+0x3>
    304a:	8f bf       	out	0x3f, r24	; 63
    304c:	80 91 c3 01 	lds	r24, 0x01C3	; 0x8001c3 <_ZN7ns_menu4modeE>
    3050:	20 e1       	ldi	r18, 0x10	; 16
    3052:	82 9f       	mul	r24, r18
    3054:	c0 01       	movw	r24, r0
    3056:	11 24       	eor	r1, r1
    3058:	82 5e       	subi	r24, 0xE2	; 226
    305a:	9c 4f       	sbci	r25, 0xFC	; 252
    305c:	fc 01       	movw	r30, r24
    305e:	25 91       	lpm	r18, Z+
    3060:	34 91       	lpm	r19, Z
    3062:	89 81       	ldd	r24, Y+1	; 0x01
    3064:	f9 01       	movw	r30, r18
    3066:	09 95       	icall
    3068:	12 c0       	rjmp	.+36     	; 0x308e <_ZN7ns_menu4MainEv+0x94>
    306a:	90 91 c3 01 	lds	r25, 0x01C3	; 0x8001c3 <_ZN7ns_menu4modeE>
    306e:	e8 2f       	mov	r30, r24
    3070:	f0 e0       	ldi	r31, 0x00	; 0
    3072:	28 e0       	ldi	r18, 0x08	; 8
    3074:	92 9f       	mul	r25, r18
    3076:	e0 0d       	add	r30, r0
    3078:	f1 1d       	adc	r31, r1
    307a:	11 24       	eor	r1, r1
    307c:	ee 0f       	add	r30, r30
    307e:	ff 1f       	adc	r31, r31
    3080:	e0 5f       	subi	r30, 0xF0	; 240
    3082:	fc 4f       	sbci	r31, 0xFC	; 252
    3084:	25 91       	lpm	r18, Z+
    3086:	34 91       	lpm	r19, Z
    3088:	89 81       	ldd	r24, Y+1	; 0x01
    308a:	f9 01       	movw	r30, r18
    308c:	09 95       	icall
    308e:	0f 90       	pop	r0
    3090:	df 91       	pop	r29
    3092:	cf 91       	pop	r28
    3094:	08 95       	ret

00003096 <_ZN7ns_menu9InterruptEv>:
    3096:	2f b7       	in	r18, 0x3f	; 63
    3098:	f8 94       	cli
    309a:	80 91 bf 01 	lds	r24, 0x01BF	; 0x8001bf <_ZN7ns_menu7timeOutE>
    309e:	90 91 c0 01 	lds	r25, 0x01C0	; 0x8001c0 <_ZN7ns_menu7timeOutE+0x1>
    30a2:	a0 91 c1 01 	lds	r26, 0x01C1	; 0x8001c1 <_ZN7ns_menu7timeOutE+0x2>
    30a6:	b0 91 c2 01 	lds	r27, 0x01C2	; 0x8001c2 <_ZN7ns_menu7timeOutE+0x3>
    30aa:	82 30       	cpi	r24, 0x02	; 2
    30ac:	91 05       	cpc	r25, r1
    30ae:	a1 05       	cpc	r26, r1
    30b0:	b1 05       	cpc	r27, r1
    30b2:	58 f0       	brcs	.+22     	; 0x30ca <_ZN7ns_menu9InterruptEv+0x34>
    30b4:	01 97       	sbiw	r24, 0x01	; 1
    30b6:	a1 09       	sbc	r26, r1
    30b8:	b1 09       	sbc	r27, r1
    30ba:	80 93 bf 01 	sts	0x01BF, r24	; 0x8001bf <_ZN7ns_menu7timeOutE>
    30be:	90 93 c0 01 	sts	0x01C0, r25	; 0x8001c0 <_ZN7ns_menu7timeOutE+0x1>
    30c2:	a0 93 c1 01 	sts	0x01C1, r26	; 0x8001c1 <_ZN7ns_menu7timeOutE+0x2>
    30c6:	b0 93 c2 01 	sts	0x01C2, r27	; 0x8001c2 <_ZN7ns_menu7timeOutE+0x3>
    30ca:	2f bf       	out	0x3f, r18	; 63
    30cc:	08 95       	ret

000030ce <_ZN7ns_menu9Main_vArcEv>:
    30ce:	cf 93       	push	r28
    30d0:	df 93       	push	r29
    30d2:	00 d0       	rcall	.+0      	; 0x30d4 <_ZN7ns_menu9Main_vArcEv+0x6>
    30d4:	00 d0       	rcall	.+0      	; 0x30d6 <_ZN7ns_menu9Main_vArcEv+0x8>
    30d6:	1f 92       	push	r1
    30d8:	cd b7       	in	r28, 0x3d	; 61
    30da:	de b7       	in	r29, 0x3e	; 62
    30dc:	ce 01       	movw	r24, r28
    30de:	01 96       	adiw	r24, 0x01	; 1
    30e0:	0e 94 4b 03 	call	0x696	; 0x696 <_ZN10ns_archive4SummEPm>
    30e4:	61 e0       	ldi	r22, 0x01	; 1
    30e6:	87 e0       	ldi	r24, 0x07	; 7
    30e8:	0e 94 dd 2a 	call	0x55ba	; 0x55ba <_ZN6ns_lcd11SetPositionEhh>
    30ec:	8d 83       	std	Y+5, r24	; 0x05
    30ee:	6c e3       	ldi	r22, 0x3C	; 60
    30f0:	72 e0       	ldi	r23, 0x02	; 2
    30f2:	ce 01       	movw	r24, r28
    30f4:	05 96       	adiw	r24, 0x05	; 5
    30f6:	0e 94 b2 2b 	call	0x5764	; 0x5764 <_ZN6ns_lcd8String_PEPhPKc>
    30fa:	29 81       	ldd	r18, Y+1	; 0x01
    30fc:	3a 81       	ldd	r19, Y+2	; 0x02
    30fe:	4b 81       	ldd	r20, Y+3	; 0x03
    3100:	5c 81       	ldd	r21, Y+4	; 0x04
    3102:	67 e0       	ldi	r22, 0x07	; 7
    3104:	ce 01       	movw	r24, r28
    3106:	05 96       	adiw	r24, 0x05	; 5
    3108:	0e 94 f4 2b 	call	0x57e8	; 0x57e8 <_ZN6ns_lcd6DigitZEPhhl>
    310c:	0f 90       	pop	r0
    310e:	0f 90       	pop	r0
    3110:	0f 90       	pop	r0
    3112:	0f 90       	pop	r0
    3114:	0f 90       	pop	r0
    3116:	df 91       	pop	r29
    3118:	cf 91       	pop	r28
    311a:	08 95       	ret

0000311c <_ZN7ns_menu12Main_SetModeEh>:
    311c:	0f 93       	push	r16
    311e:	1f 93       	push	r17
    3120:	cf 93       	push	r28
    3122:	df 93       	push	r29
    3124:	1f 92       	push	r1
    3126:	cd b7       	in	r28, 0x3d	; 61
    3128:	de b7       	in	r29, 0x3e	; 62
    312a:	8f b7       	in	r24, 0x3f	; 63
    312c:	f8 94       	cli
    312e:	10 92 bf 01 	sts	0x01BF, r1	; 0x8001bf <_ZN7ns_menu7timeOutE>
    3132:	10 92 c0 01 	sts	0x01C0, r1	; 0x8001c0 <_ZN7ns_menu7timeOutE+0x1>
    3136:	10 92 c1 01 	sts	0x01C1, r1	; 0x8001c1 <_ZN7ns_menu7timeOutE+0x2>
    313a:	10 92 c2 01 	sts	0x01C2, r1	; 0x8001c2 <_ZN7ns_menu7timeOutE+0x3>
    313e:	8f bf       	out	0x3f, r24	; 63
    3140:	e0 91 de 01 	lds	r30, 0x01DE	; 0x8001de <key4>
    3144:	f0 91 df 01 	lds	r31, 0x01DF	; 0x8001df <key4+0x1>
    3148:	10 82       	st	Z, r1
    314a:	0e 94 b1 29 	call	0x5362	; 0x5362 <_ZN6ns_lcd5ClearEv>
    314e:	bf df       	rcall	.-130    	; 0x30ce <_ZN7ns_menu9Main_vArcEv>
    3150:	80 91 3d 01 	lds	r24, 0x013D	; 0x80013d <_ZN10ns_archive3lenE>
    3154:	90 91 3e 01 	lds	r25, 0x013E	; 0x80013e <_ZN10ns_archive3lenE+0x1>
    3158:	89 2b       	or	r24, r25
    315a:	39 f4       	brne	.+14     	; 0x316a <_ZN7ns_menu12Main_SetModeEh+0x4e>
    315c:	80 e0       	ldi	r24, 0x00	; 0
    315e:	90 e0       	ldi	r25, 0x00	; 0
    3160:	0e 94 e3 32 	call	0x65c6	; 0x65c6 <eeprom_read_word>
    3164:	89 2b       	or	r24, r25
    3166:	09 f4       	brne	.+2      	; 0x316a <_ZN7ns_menu12Main_SetModeEh+0x4e>
    3168:	44 c0       	rjmp	.+136    	; 0x31f2 <_ZN7ns_menu12Main_SetModeEh+0xd6>
    316a:	80 91 3f 01 	lds	r24, 0x013F	; 0x80013f <_ZN10ns_archive3idxE>
    316e:	90 91 40 01 	lds	r25, 0x0140	; 0x800140 <_ZN10ns_archive3idxE+0x1>
    3172:	00 97       	sbiw	r24, 0x00	; 0
    3174:	39 f4       	brne	.+14     	; 0x3184 <_ZN7ns_menu12Main_SetModeEh+0x68>
    3176:	8b e2       	ldi	r24, 0x2B	; 43
    3178:	91 e0       	ldi	r25, 0x01	; 1
    317a:	90 93 a0 01 	sts	0x01A0, r25	; 0x8001a0 <_ZN7ns_menu14corCurTube_idxE+0x1>
    317e:	80 93 9f 01 	sts	0x019F, r24	; 0x80019f <_ZN7ns_menu14corCurTube_idxE>
    3182:	05 c0       	rjmp	.+10     	; 0x318e <_ZN7ns_menu12Main_SetModeEh+0x72>
    3184:	01 97       	sbiw	r24, 0x01	; 1
    3186:	90 93 a0 01 	sts	0x01A0, r25	; 0x8001a0 <_ZN7ns_menu14corCurTube_idxE+0x1>
    318a:	80 93 9f 01 	sts	0x019F, r24	; 0x80019f <_ZN7ns_menu14corCurTube_idxE>
    318e:	80 91 9f 01 	lds	r24, 0x019F	; 0x80019f <_ZN7ns_menu14corCurTube_idxE>
    3192:	90 91 a0 01 	lds	r25, 0x01A0	; 0x8001a0 <_ZN7ns_menu14corCurTube_idxE+0x1>
    3196:	2b e0       	ldi	r18, 0x0B	; 11
    3198:	28 9f       	mul	r18, r24
    319a:	b0 01       	movw	r22, r0
    319c:	29 9f       	mul	r18, r25
    319e:	70 0d       	add	r23, r0
    31a0:	11 24       	eor	r1, r1
    31a2:	6c 5f       	subi	r22, 0xFC	; 252
    31a4:	7f 4f       	sbci	r23, 0xFF	; 255
    31a6:	4b e0       	ldi	r20, 0x0B	; 11
    31a8:	50 e0       	ldi	r21, 0x00	; 0
    31aa:	81 ea       	ldi	r24, 0xA1	; 161
    31ac:	91 e0       	ldi	r25, 0x01	; 1
    31ae:	0e 94 cb 32 	call	0x6596	; 0x6596 <eeprom_read_block>
    31b2:	60 e0       	ldi	r22, 0x00	; 0
    31b4:	80 e0       	ldi	r24, 0x00	; 0
    31b6:	0e 94 dd 2a 	call	0x55ba	; 0x55ba <_ZN6ns_lcd11SetPositionEhh>
    31ba:	89 83       	std	Y+1, r24	; 0x01
    31bc:	01 ea       	ldi	r16, 0xA1	; 161
    31be:	11 e0       	ldi	r17, 0x01	; 1
    31c0:	f8 01       	movw	r30, r16
    31c2:	25 81       	ldd	r18, Z+5	; 0x05
    31c4:	36 81       	ldd	r19, Z+6	; 0x06
    31c6:	40 e0       	ldi	r20, 0x00	; 0
    31c8:	50 e0       	ldi	r21, 0x00	; 0
    31ca:	63 e0       	ldi	r22, 0x03	; 3
    31cc:	ce 01       	movw	r24, r28
    31ce:	01 96       	adiw	r24, 0x01	; 1
    31d0:	0e 94 f4 2b 	call	0x57e8	; 0x57e8 <_ZN6ns_lcd6DigitZEPhhl>
    31d4:	6a e3       	ldi	r22, 0x3A	; 58
    31d6:	ce 01       	movw	r24, r28
    31d8:	01 96       	adiw	r24, 0x01	; 1
    31da:	0e 94 44 2b 	call	0x5688	; 0x5688 <_ZN6ns_lcd7PutCharEPhc>
    31de:	f8 01       	movw	r30, r16
    31e0:	27 81       	ldd	r18, Z+7	; 0x07
    31e2:	30 85       	ldd	r19, Z+8	; 0x08
    31e4:	40 e0       	ldi	r20, 0x00	; 0
    31e6:	50 e0       	ldi	r21, 0x00	; 0
    31e8:	65 e0       	ldi	r22, 0x05	; 5
    31ea:	ce 01       	movw	r24, r28
    31ec:	01 96       	adiw	r24, 0x01	; 1
    31ee:	0e 94 6c 2c 	call	0x58d8	; 0x58d8 <_ZN6ns_lcd5DigitEPhhl>
    31f2:	0f 90       	pop	r0
    31f4:	df 91       	pop	r29
    31f6:	cf 91       	pop	r28
    31f8:	1f 91       	pop	r17
    31fa:	0f 91       	pop	r16
    31fc:	08 95       	ret

000031fe <_ZN7ns_menu9Main_ViewEh>:
    31fe:	ef 92       	push	r14
    3200:	ff 92       	push	r15
    3202:	0f 93       	push	r16
    3204:	1f 93       	push	r17
    3206:	cf 93       	push	r28
    3208:	df 93       	push	r29
    320a:	1f 92       	push	r1
    320c:	cd b7       	in	r28, 0x3d	; 61
    320e:	de b7       	in	r29, 0x3e	; 62
    3210:	80 91 04 02 	lds	r24, 0x0204	; 0x800204 <_ZN5ns_vg10lenTubeNewE>
    3214:	88 23       	and	r24, r24
    3216:	99 f1       	breq	.+102    	; 0x327e <_ZN7ns_menu9Main_ViewEh+0x80>
    3218:	10 92 04 02 	sts	0x0204, r1	; 0x800204 <_ZN5ns_vg10lenTubeNewE>
    321c:	0e 94 b1 29 	call	0x5362	; 0x5362 <_ZN6ns_lcd5ClearEv>
    3220:	60 e0       	ldi	r22, 0x00	; 0
    3222:	80 e0       	ldi	r24, 0x00	; 0
    3224:	0e 94 dd 2a 	call	0x55ba	; 0x55ba <_ZN6ns_lcd11SetPositionEhh>
    3228:	89 83       	std	Y+1, r24	; 0x01
    322a:	80 91 03 02 	lds	r24, 0x0203	; 0x800203 <_ZN5ns_vg11lenTubuStatE>
    322e:	8a 30       	cpi	r24, 0x0A	; 10
    3230:	31 f4       	brne	.+12     	; 0x323e <_ZN7ns_menu9Main_ViewEh+0x40>
    3232:	60 e3       	ldi	r22, 0x30	; 48
    3234:	72 e0       	ldi	r23, 0x02	; 2
    3236:	ce 01       	movw	r24, r28
    3238:	01 96       	adiw	r24, 0x01	; 1
    323a:	0e 94 b2 2b 	call	0x5764	; 0x5764 <_ZN6ns_lcd8String_PEPhPKc>
    323e:	80 91 03 02 	lds	r24, 0x0203	; 0x800203 <_ZN5ns_vg11lenTubuStatE>
    3242:	81 30       	cpi	r24, 0x01	; 1
    3244:	d9 f4       	brne	.+54     	; 0x327c <_ZN7ns_menu9Main_ViewEh+0x7e>
    3246:	20 91 07 02 	lds	r18, 0x0207	; 0x800207 <_ZN5ns_vg5nTubeE>
    324a:	30 91 08 02 	lds	r19, 0x0208	; 0x800208 <_ZN5ns_vg5nTubeE+0x1>
    324e:	40 e0       	ldi	r20, 0x00	; 0
    3250:	50 e0       	ldi	r21, 0x00	; 0
    3252:	63 e0       	ldi	r22, 0x03	; 3
    3254:	ce 01       	movw	r24, r28
    3256:	01 96       	adiw	r24, 0x01	; 1
    3258:	0e 94 f4 2b 	call	0x57e8	; 0x57e8 <_ZN6ns_lcd6DigitZEPhhl>
    325c:	6a e3       	ldi	r22, 0x3A	; 58
    325e:	ce 01       	movw	r24, r28
    3260:	01 96       	adiw	r24, 0x01	; 1
    3262:	0e 94 44 2b 	call	0x5688	; 0x5688 <_ZN6ns_lcd7PutCharEPhc>
    3266:	20 91 2f 01 	lds	r18, 0x012F	; 0x80012f <_ZN5ns_vg7lenTubeE>
    326a:	30 91 30 01 	lds	r19, 0x0130	; 0x800130 <_ZN5ns_vg7lenTubeE+0x1>
    326e:	40 e0       	ldi	r20, 0x00	; 0
    3270:	50 e0       	ldi	r21, 0x00	; 0
    3272:	65 e0       	ldi	r22, 0x05	; 5
    3274:	ce 01       	movw	r24, r28
    3276:	01 96       	adiw	r24, 0x01	; 1
    3278:	0e 94 6c 2c 	call	0x58d8	; 0x58d8 <_ZN6ns_lcd5DigitEPhhl>
    327c:	28 df       	rcall	.-432    	; 0x30ce <_ZN7ns_menu9Main_vArcEv>
    327e:	61 e0       	ldi	r22, 0x01	; 1
    3280:	80 e0       	ldi	r24, 0x00	; 0
    3282:	0e 94 dd 2a 	call	0x55ba	; 0x55ba <_ZN6ns_lcd11SetPositionEhh>
    3286:	89 83       	std	Y+1, r24	; 0x01
    3288:	0f e7       	ldi	r16, 0x7F	; 127
    328a:	11 e0       	ldi	r17, 0x01	; 1
    328c:	0f 2e       	mov	r0, r31
    328e:	f9 e8       	ldi	r31, 0x89	; 137
    3290:	ef 2e       	mov	r14, r31
    3292:	f1 e0       	ldi	r31, 0x01	; 1
    3294:	ff 2e       	mov	r15, r31
    3296:	f0 2d       	mov	r31, r0
    3298:	d8 01       	movw	r26, r16
    329a:	ed 91       	ld	r30, X+
    329c:	fd 91       	ld	r31, X+
    329e:	8d 01       	movw	r16, r26
    32a0:	85 85       	ldd	r24, Z+13	; 0x0d
    32a2:	88 23       	and	r24, r24
    32a4:	31 f0       	breq	.+12     	; 0x32b2 <_ZN7ns_menu9Main_ViewEh+0xb4>
    32a6:	60 e0       	ldi	r22, 0x00	; 0
    32a8:	ce 01       	movw	r24, r28
    32aa:	01 96       	adiw	r24, 0x01	; 1
    32ac:	0e 94 44 2b 	call	0x5688	; 0x5688 <_ZN6ns_lcd7PutCharEPhc>
    32b0:	05 c0       	rjmp	.+10     	; 0x32bc <_ZN7ns_menu9Main_ViewEh+0xbe>
    32b2:	61 e0       	ldi	r22, 0x01	; 1
    32b4:	ce 01       	movw	r24, r28
    32b6:	01 96       	adiw	r24, 0x01	; 1
    32b8:	0e 94 44 2b 	call	0x5688	; 0x5688 <_ZN6ns_lcd7PutCharEPhc>
    32bc:	0e 15       	cp	r16, r14
    32be:	1f 05       	cpc	r17, r15
    32c0:	59 f7       	brne	.-42     	; 0x3298 <_ZN7ns_menu9Main_ViewEh+0x9a>
    32c2:	60 e0       	ldi	r22, 0x00	; 0
    32c4:	8b e0       	ldi	r24, 0x0B	; 11
    32c6:	0e 94 dd 2a 	call	0x55ba	; 0x55ba <_ZN6ns_lcd11SetPositionEhh>
    32ca:	89 83       	std	Y+1, r24	; 0x01
    32cc:	80 91 c4 01 	lds	r24, 0x01C4	; 0x8001c4 <_ZN8ns_clock3tikE>
    32d0:	88 23       	and	r24, r24
    32d2:	19 f1       	breq	.+70     	; 0x331a <_ZN7ns_menu9Main_ViewEh+0x11c>
    32d4:	20 91 d0 01 	lds	r18, 0x01D0	; 0x8001d0 <_ZN8ns_clock4timeE+0x2>
    32d8:	30 e0       	ldi	r19, 0x00	; 0
    32da:	40 e0       	ldi	r20, 0x00	; 0
    32dc:	50 e0       	ldi	r21, 0x00	; 0
    32de:	62 e0       	ldi	r22, 0x02	; 2
    32e0:	ce 01       	movw	r24, r28
    32e2:	01 96       	adiw	r24, 0x01	; 1
    32e4:	0e 94 6c 2c 	call	0x58d8	; 0x58d8 <_ZN6ns_lcd5DigitEPhhl>
    32e8:	80 91 c5 01 	lds	r24, 0x01C5	; 0x8001c5 <_ZN8ns_clock6tik_cnE>
    32ec:	81 11       	cpse	r24, r1
    32ee:	06 c0       	rjmp	.+12     	; 0x32fc <_ZN7ns_menu9Main_ViewEh+0xfe>
    32f0:	6a e3       	ldi	r22, 0x3A	; 58
    32f2:	ce 01       	movw	r24, r28
    32f4:	01 96       	adiw	r24, 0x01	; 1
    32f6:	0e 94 44 2b 	call	0x5688	; 0x5688 <_ZN6ns_lcd7PutCharEPhc>
    32fa:	05 c0       	rjmp	.+10     	; 0x3306 <_ZN7ns_menu9Main_ViewEh+0x108>
    32fc:	60 e2       	ldi	r22, 0x20	; 32
    32fe:	ce 01       	movw	r24, r28
    3300:	01 96       	adiw	r24, 0x01	; 1
    3302:	0e 94 44 2b 	call	0x5688	; 0x5688 <_ZN6ns_lcd7PutCharEPhc>
    3306:	20 91 cf 01 	lds	r18, 0x01CF	; 0x8001cf <_ZN8ns_clock4timeE+0x1>
    330a:	30 e0       	ldi	r19, 0x00	; 0
    330c:	40 e0       	ldi	r20, 0x00	; 0
    330e:	50 e0       	ldi	r21, 0x00	; 0
    3310:	62 e0       	ldi	r22, 0x02	; 2
    3312:	ce 01       	movw	r24, r28
    3314:	01 96       	adiw	r24, 0x01	; 1
    3316:	0e 94 f4 2b 	call	0x57e8	; 0x57e8 <_ZN6ns_lcd6DigitZEPhhl>
    331a:	0f 90       	pop	r0
    331c:	df 91       	pop	r29
    331e:	cf 91       	pop	r28
    3320:	1f 91       	pop	r17
    3322:	0f 91       	pop	r16
    3324:	ff 90       	pop	r15
    3326:	ef 90       	pop	r14
    3328:	08 95       	ret

0000332a <_ZN7ns_menu15Menu_SelectViewEh>:
    332a:	0e 94 b1 29 	call	0x5362	; 0x5362 <_ZN6ns_lcd5ClearEv>
    332e:	e0 91 bd 01 	lds	r30, 0x01BD	; 0x8001bd <_ZN7ns_menu10curPosPassE>
    3332:	f0 e0       	ldi	r31, 0x00	; 0
    3334:	ee 0f       	add	r30, r30
    3336:	ff 1f       	adc	r31, r31
    3338:	ed 5e       	subi	r30, 0xED	; 237
    333a:	fe 4f       	sbci	r31, 0xFE	; 254
    333c:	60 81       	ld	r22, Z
    333e:	71 81       	ldd	r23, Z+1	; 0x01
    3340:	80 e0       	ldi	r24, 0x00	; 0
    3342:	0c 94 e7 2b 	jmp	0x57ce	; 0x57ce <_ZN6ns_lcd8String_PEhPKc>
    3346:	08 95       	ret

00003348 <_ZN7ns_menu11Menu_SelectEh>:
    3348:	cf 93       	push	r28
    334a:	c8 2f       	mov	r28, r24
    334c:	8f b7       	in	r24, 0x3f	; 63
    334e:	f8 94       	cli
    3350:	10 92 bf 01 	sts	0x01BF, r1	; 0x8001bf <_ZN7ns_menu7timeOutE>
    3354:	10 92 c0 01 	sts	0x01C0, r1	; 0x8001c0 <_ZN7ns_menu7timeOutE+0x1>
    3358:	10 92 c1 01 	sts	0x01C1, r1	; 0x8001c1 <_ZN7ns_menu7timeOutE+0x2>
    335c:	10 92 c2 01 	sts	0x01C2, r1	; 0x8001c2 <_ZN7ns_menu7timeOutE+0x3>
    3360:	8f bf       	out	0x3f, r24	; 63
    3362:	e0 91 de 01 	lds	r30, 0x01DE	; 0x8001de <key4>
    3366:	f0 91 df 01 	lds	r31, 0x01DF	; 0x8001df <key4+0x1>
    336a:	10 82       	st	Z, r1
    336c:	0e 94 b1 29 	call	0x5362	; 0x5362 <_ZN6ns_lcd5ClearEv>
    3370:	60 e0       	ldi	r22, 0x00	; 0
    3372:	80 e0       	ldi	r24, 0x00	; 0
    3374:	0e 94 dd 2a 	call	0x55ba	; 0x55ba <_ZN6ns_lcd11SetPositionEhh>
    3378:	80 93 e8 01 	sts	0x01E8, r24	; 0x8001e8 <_ZN6ns_lcd3posE>
    337c:	10 92 bd 01 	sts	0x01BD, r1	; 0x8001bd <_ZN7ns_menu10curPosPassE>
    3380:	8c 2f       	mov	r24, r28
    3382:	d3 df       	rcall	.-90     	; 0x332a <_ZN7ns_menu15Menu_SelectViewEh>
    3384:	8f b7       	in	r24, 0x3f	; 63
    3386:	f8 94       	cli
    3388:	40 e9       	ldi	r20, 0x90	; 144
    338a:	5f e5       	ldi	r21, 0x5F	; 95
    338c:	61 e0       	ldi	r22, 0x01	; 1
    338e:	70 e0       	ldi	r23, 0x00	; 0
    3390:	40 93 bf 01 	sts	0x01BF, r20	; 0x8001bf <_ZN7ns_menu7timeOutE>
    3394:	50 93 c0 01 	sts	0x01C0, r21	; 0x8001c0 <_ZN7ns_menu7timeOutE+0x1>
    3398:	60 93 c1 01 	sts	0x01C1, r22	; 0x8001c1 <_ZN7ns_menu7timeOutE+0x2>
    339c:	70 93 c2 01 	sts	0x01C2, r23	; 0x8001c2 <_ZN7ns_menu7timeOutE+0x3>
    33a0:	8f bf       	out	0x3f, r24	; 63
    33a2:	cf 91       	pop	r28
    33a4:	08 95       	ret

000033a6 <_ZN7ns_menu16Menu_SelectMinusEh>:
    33a6:	e0 91 de 01 	lds	r30, 0x01DE	; 0x8001de <key4>
    33aa:	f0 91 df 01 	lds	r31, 0x01DF	; 0x8001df <key4+0x1>
    33ae:	10 82       	st	Z, r1
    33b0:	90 91 bd 01 	lds	r25, 0x01BD	; 0x8001bd <_ZN7ns_menu10curPosPassE>
    33b4:	99 23       	and	r25, r25
    33b6:	21 f0       	breq	.+8      	; 0x33c0 <_ZN7ns_menu16Menu_SelectMinusEh+0x1a>
    33b8:	91 50       	subi	r25, 0x01	; 1
    33ba:	90 93 bd 01 	sts	0x01BD, r25	; 0x8001bd <_ZN7ns_menu10curPosPassE>
    33be:	b5 df       	rcall	.-150    	; 0x332a <_ZN7ns_menu15Menu_SelectViewEh>
    33c0:	8f b7       	in	r24, 0x3f	; 63
    33c2:	f8 94       	cli
    33c4:	40 e9       	ldi	r20, 0x90	; 144
    33c6:	5f e5       	ldi	r21, 0x5F	; 95
    33c8:	61 e0       	ldi	r22, 0x01	; 1
    33ca:	70 e0       	ldi	r23, 0x00	; 0
    33cc:	40 93 bf 01 	sts	0x01BF, r20	; 0x8001bf <_ZN7ns_menu7timeOutE>
    33d0:	50 93 c0 01 	sts	0x01C0, r21	; 0x8001c0 <_ZN7ns_menu7timeOutE+0x1>
    33d4:	60 93 c1 01 	sts	0x01C1, r22	; 0x8001c1 <_ZN7ns_menu7timeOutE+0x2>
    33d8:	70 93 c2 01 	sts	0x01C2, r23	; 0x8001c2 <_ZN7ns_menu7timeOutE+0x3>
    33dc:	8f bf       	out	0x3f, r24	; 63
    33de:	08 95       	ret

000033e0 <_ZN7ns_menu15Menu_SelectPlusEh>:
    33e0:	e0 91 de 01 	lds	r30, 0x01DE	; 0x8001de <key4>
    33e4:	f0 91 df 01 	lds	r31, 0x01DF	; 0x8001df <key4+0x1>
    33e8:	10 82       	st	Z, r1
    33ea:	90 91 bd 01 	lds	r25, 0x01BD	; 0x8001bd <_ZN7ns_menu10curPosPassE>
    33ee:	9b 30       	cpi	r25, 0x0B	; 11
    33f0:	20 f4       	brcc	.+8      	; 0x33fa <_ZN7ns_menu15Menu_SelectPlusEh+0x1a>
    33f2:	9f 5f       	subi	r25, 0xFF	; 255
    33f4:	90 93 bd 01 	sts	0x01BD, r25	; 0x8001bd <_ZN7ns_menu10curPosPassE>
    33f8:	98 df       	rcall	.-208    	; 0x332a <_ZN7ns_menu15Menu_SelectViewEh>
    33fa:	8f b7       	in	r24, 0x3f	; 63
    33fc:	f8 94       	cli
    33fe:	40 e9       	ldi	r20, 0x90	; 144
    3400:	5f e5       	ldi	r21, 0x5F	; 95
    3402:	61 e0       	ldi	r22, 0x01	; 1
    3404:	70 e0       	ldi	r23, 0x00	; 0
    3406:	40 93 bf 01 	sts	0x01BF, r20	; 0x8001bf <_ZN7ns_menu7timeOutE>
    340a:	50 93 c0 01 	sts	0x01C0, r21	; 0x8001c0 <_ZN7ns_menu7timeOutE+0x1>
    340e:	60 93 c1 01 	sts	0x01C1, r22	; 0x8001c1 <_ZN7ns_menu7timeOutE+0x2>
    3412:	70 93 c2 01 	sts	0x01C2, r23	; 0x8001c2 <_ZN7ns_menu7timeOutE+0x3>
    3416:	8f bf       	out	0x3f, r24	; 63
    3418:	08 95       	ret

0000341a <_ZN7ns_menu15Edit_SensorViewEh>:
    341a:	20 91 b4 01 	lds	r18, 0x01B4	; 0x8001b4 <_ZN7ns_menu11tmpDistanceE>
    341e:	30 91 b5 01 	lds	r19, 0x01B5	; 0x8001b5 <_ZN7ns_menu11tmpDistanceE+0x1>
    3422:	40 e0       	ldi	r20, 0x00	; 0
    3424:	50 e0       	ldi	r21, 0x00	; 0
    3426:	65 e0       	ldi	r22, 0x05	; 5
    3428:	80 91 be 01 	lds	r24, 0x01BE	; 0x8001be <_ZN7ns_menu7varPos1E>
    342c:	0c 94 5f 2c 	jmp	0x58be	; 0x58be <_ZN6ns_lcd6DigitZEhhl>
    3430:	08 95       	ret

00003432 <_ZN7ns_menu11Edit_SensorEh>:
    3432:	1f 93       	push	r17
    3434:	cf 93       	push	r28
    3436:	df 93       	push	r29
    3438:	1f 92       	push	r1
    343a:	cd b7       	in	r28, 0x3d	; 61
    343c:	de b7       	in	r29, 0x3e	; 62
    343e:	18 2f       	mov	r17, r24
    3440:	8f b7       	in	r24, 0x3f	; 63
    3442:	f8 94       	cli
    3444:	10 92 bf 01 	sts	0x01BF, r1	; 0x8001bf <_ZN7ns_menu7timeOutE>
    3448:	10 92 c0 01 	sts	0x01C0, r1	; 0x8001c0 <_ZN7ns_menu7timeOutE+0x1>
    344c:	10 92 c1 01 	sts	0x01C1, r1	; 0x8001c1 <_ZN7ns_menu7timeOutE+0x2>
    3450:	10 92 c2 01 	sts	0x01C2, r1	; 0x8001c2 <_ZN7ns_menu7timeOutE+0x3>
    3454:	8f bf       	out	0x3f, r24	; 63
    3456:	e0 91 de 01 	lds	r30, 0x01DE	; 0x8001de <key4>
    345a:	f0 91 df 01 	lds	r31, 0x01DF	; 0x8001df <key4+0x1>
    345e:	10 82       	st	Z, r1
    3460:	20 91 b6 01 	lds	r18, 0x01B6	; 0x8001b6 <_ZN7ns_menu10curSensIdxE>
    3464:	30 e0       	ldi	r19, 0x00	; 0
    3466:	c9 01       	movw	r24, r18
    3468:	88 0f       	add	r24, r24
    346a:	99 1f       	adc	r25, r25
    346c:	8d 50       	subi	r24, 0x0D	; 13
    346e:	93 4f       	sbci	r25, 0xF3	; 243
    3470:	0e 94 e3 32 	call	0x65c6	; 0x65c6 <eeprom_read_word>
    3474:	90 93 b5 01 	sts	0x01B5, r25	; 0x8001b5 <_ZN7ns_menu11tmpDistanceE+0x1>
    3478:	80 93 b4 01 	sts	0x01B4, r24	; 0x8001b4 <_ZN7ns_menu11tmpDistanceE>
    347c:	0e 94 b1 29 	call	0x5362	; 0x5362 <_ZN6ns_lcd5ClearEv>
    3480:	60 e0       	ldi	r22, 0x00	; 0
    3482:	82 e0       	ldi	r24, 0x02	; 2
    3484:	0e 94 dd 2a 	call	0x55ba	; 0x55ba <_ZN6ns_lcd11SetPositionEhh>
    3488:	6f ee       	ldi	r22, 0xEF	; 239
    348a:	71 e0       	ldi	r23, 0x01	; 1
    348c:	0e 94 e7 2b 	call	0x57ce	; 0x57ce <_ZN6ns_lcd8String_PEhPKc>
    3490:	61 e0       	ldi	r22, 0x01	; 1
    3492:	81 e0       	ldi	r24, 0x01	; 1
    3494:	0e 94 dd 2a 	call	0x55ba	; 0x55ba <_ZN6ns_lcd11SetPositionEhh>
    3498:	89 83       	std	Y+1, r24	; 0x01
    349a:	66 ee       	ldi	r22, 0xE6	; 230
    349c:	71 e0       	ldi	r23, 0x01	; 1
    349e:	ce 01       	movw	r24, r28
    34a0:	01 96       	adiw	r24, 0x01	; 1
    34a2:	0e 94 b2 2b 	call	0x5764	; 0x5764 <_ZN6ns_lcd8String_PEPhPKc>
    34a6:	20 91 b7 01 	lds	r18, 0x01B7	; 0x8001b7 <_ZN7ns_menu9curSensorE>
    34aa:	30 e0       	ldi	r19, 0x00	; 0
    34ac:	40 e0       	ldi	r20, 0x00	; 0
    34ae:	50 e0       	ldi	r21, 0x00	; 0
    34b0:	61 e0       	ldi	r22, 0x01	; 1
    34b2:	ce 01       	movw	r24, r28
    34b4:	01 96       	adiw	r24, 0x01	; 1
    34b6:	0e 94 f4 2b 	call	0x57e8	; 0x57e8 <_ZN6ns_lcd6DigitZEPhhl>
    34ba:	6d e3       	ldi	r22, 0x3D	; 61
    34bc:	ce 01       	movw	r24, r28
    34be:	01 96       	adiw	r24, 0x01	; 1
    34c0:	0e 94 44 2b 	call	0x5688	; 0x5688 <_ZN6ns_lcd7PutCharEPhc>
    34c4:	89 81       	ldd	r24, Y+1	; 0x01
    34c6:	80 93 be 01 	sts	0x01BE, r24	; 0x8001be <_ZN7ns_menu7varPos1E>
    34ca:	81 2f       	mov	r24, r17
    34cc:	a6 df       	rcall	.-180    	; 0x341a <_ZN7ns_menu15Edit_SensorViewEh>
    34ce:	8f b7       	in	r24, 0x3f	; 63
    34d0:	f8 94       	cli
    34d2:	40 e9       	ldi	r20, 0x90	; 144
    34d4:	5f e5       	ldi	r21, 0x5F	; 95
    34d6:	61 e0       	ldi	r22, 0x01	; 1
    34d8:	70 e0       	ldi	r23, 0x00	; 0
    34da:	40 93 bf 01 	sts	0x01BF, r20	; 0x8001bf <_ZN7ns_menu7timeOutE>
    34de:	50 93 c0 01 	sts	0x01C0, r21	; 0x8001c0 <_ZN7ns_menu7timeOutE+0x1>
    34e2:	60 93 c1 01 	sts	0x01C1, r22	; 0x8001c1 <_ZN7ns_menu7timeOutE+0x2>
    34e6:	70 93 c2 01 	sts	0x01C2, r23	; 0x8001c2 <_ZN7ns_menu7timeOutE+0x3>
    34ea:	8f bf       	out	0x3f, r24	; 63
    34ec:	0f 90       	pop	r0
    34ee:	df 91       	pop	r29
    34f0:	cf 91       	pop	r28
    34f2:	1f 91       	pop	r17
    34f4:	08 95       	ret

000034f6 <_ZN7ns_menu16Edit_SensorMinusEh>:
    34f6:	e0 91 de 01 	lds	r30, 0x01DE	; 0x8001de <key4>
    34fa:	f0 91 df 01 	lds	r31, 0x01DF	; 0x8001df <key4+0x1>
    34fe:	91 e0       	ldi	r25, 0x01	; 1
    3500:	90 83       	st	Z, r25
    3502:	20 91 b4 01 	lds	r18, 0x01B4	; 0x8001b4 <_ZN7ns_menu11tmpDistanceE>
    3506:	30 91 b5 01 	lds	r19, 0x01B5	; 0x8001b5 <_ZN7ns_menu11tmpDistanceE+0x1>
    350a:	21 15       	cp	r18, r1
    350c:	31 05       	cpc	r19, r1
    350e:	39 f0       	breq	.+14     	; 0x351e <_ZN7ns_menu16Edit_SensorMinusEh+0x28>
    3510:	21 50       	subi	r18, 0x01	; 1
    3512:	31 09       	sbc	r19, r1
    3514:	30 93 b5 01 	sts	0x01B5, r19	; 0x8001b5 <_ZN7ns_menu11tmpDistanceE+0x1>
    3518:	20 93 b4 01 	sts	0x01B4, r18	; 0x8001b4 <_ZN7ns_menu11tmpDistanceE>
    351c:	7e df       	rcall	.-260    	; 0x341a <_ZN7ns_menu15Edit_SensorViewEh>
    351e:	8f b7       	in	r24, 0x3f	; 63
    3520:	f8 94       	cli
    3522:	40 e9       	ldi	r20, 0x90	; 144
    3524:	5f e5       	ldi	r21, 0x5F	; 95
    3526:	61 e0       	ldi	r22, 0x01	; 1
    3528:	70 e0       	ldi	r23, 0x00	; 0
    352a:	40 93 bf 01 	sts	0x01BF, r20	; 0x8001bf <_ZN7ns_menu7timeOutE>
    352e:	50 93 c0 01 	sts	0x01C0, r21	; 0x8001c0 <_ZN7ns_menu7timeOutE+0x1>
    3532:	60 93 c1 01 	sts	0x01C1, r22	; 0x8001c1 <_ZN7ns_menu7timeOutE+0x2>
    3536:	70 93 c2 01 	sts	0x01C2, r23	; 0x8001c2 <_ZN7ns_menu7timeOutE+0x3>
    353a:	8f bf       	out	0x3f, r24	; 63
    353c:	08 95       	ret

0000353e <_ZN7ns_menu15Edit_SensorPlusEh>:
    353e:	e0 91 de 01 	lds	r30, 0x01DE	; 0x8001de <key4>
    3542:	f0 91 df 01 	lds	r31, 0x01DF	; 0x8001df <key4+0x1>
    3546:	91 e0       	ldi	r25, 0x01	; 1
    3548:	90 83       	st	Z, r25
    354a:	20 91 b4 01 	lds	r18, 0x01B4	; 0x8001b4 <_ZN7ns_menu11tmpDistanceE>
    354e:	30 91 b5 01 	lds	r19, 0x01B5	; 0x8001b5 <_ZN7ns_menu11tmpDistanceE+0x1>
    3552:	28 39       	cpi	r18, 0x98	; 152
    3554:	9a e3       	ldi	r25, 0x3A	; 58
    3556:	39 07       	cpc	r19, r25
    3558:	38 f4       	brcc	.+14     	; 0x3568 <_ZN7ns_menu15Edit_SensorPlusEh+0x2a>
    355a:	2f 5f       	subi	r18, 0xFF	; 255
    355c:	3f 4f       	sbci	r19, 0xFF	; 255
    355e:	30 93 b5 01 	sts	0x01B5, r19	; 0x8001b5 <_ZN7ns_menu11tmpDistanceE+0x1>
    3562:	20 93 b4 01 	sts	0x01B4, r18	; 0x8001b4 <_ZN7ns_menu11tmpDistanceE>
    3566:	59 df       	rcall	.-334    	; 0x341a <_ZN7ns_menu15Edit_SensorViewEh>
    3568:	8f b7       	in	r24, 0x3f	; 63
    356a:	f8 94       	cli
    356c:	40 e9       	ldi	r20, 0x90	; 144
    356e:	5f e5       	ldi	r21, 0x5F	; 95
    3570:	61 e0       	ldi	r22, 0x01	; 1
    3572:	70 e0       	ldi	r23, 0x00	; 0
    3574:	40 93 bf 01 	sts	0x01BF, r20	; 0x8001bf <_ZN7ns_menu7timeOutE>
    3578:	50 93 c0 01 	sts	0x01C0, r21	; 0x8001c0 <_ZN7ns_menu7timeOutE+0x1>
    357c:	60 93 c1 01 	sts	0x01C1, r22	; 0x8001c1 <_ZN7ns_menu7timeOutE+0x2>
    3580:	70 93 c2 01 	sts	0x01C2, r23	; 0x8001c2 <_ZN7ns_menu7timeOutE+0x3>
    3584:	8f bf       	out	0x3f, r24	; 63
    3586:	08 95       	ret

00003588 <_ZN7ns_menu12Set_PassViewEh>:
    3588:	ef 92       	push	r14
    358a:	ff 92       	push	r15
    358c:	1f 93       	push	r17
    358e:	cf 93       	push	r28
    3590:	df 93       	push	r29
    3592:	1f 92       	push	r1
    3594:	cd b7       	in	r28, 0x3d	; 61
    3596:	de b7       	in	r29, 0x3e	; 62
    3598:	0f 2e       	mov	r0, r31
    359a:	f8 eb       	ldi	r31, 0xB8	; 184
    359c:	ef 2e       	mov	r14, r31
    359e:	f1 e0       	ldi	r31, 0x01	; 1
    35a0:	ff 2e       	mov	r15, r31
    35a2:	f0 2d       	mov	r31, r0
    35a4:	10 e0       	ldi	r17, 0x00	; 0
    35a6:	61 e0       	ldi	r22, 0x01	; 1
    35a8:	81 2f       	mov	r24, r17
    35aa:	0e 94 dd 2a 	call	0x55ba	; 0x55ba <_ZN6ns_lcd11SetPositionEhh>
    35ae:	89 83       	std	Y+1, r24	; 0x01
    35b0:	80 91 bd 01 	lds	r24, 0x01BD	; 0x8001bd <_ZN7ns_menu10curPosPassE>
    35b4:	18 17       	cp	r17, r24
    35b6:	40 f4       	brcc	.+16     	; 0x35c8 <_ZN7ns_menu12Set_PassViewEh+0x40>
    35b8:	10 92 e4 01 	sts	0x01E4, r1	; 0x8001e4 <_ZN6ns_lcd7flickerE>
    35bc:	6a e2       	ldi	r22, 0x2A	; 42
    35be:	ce 01       	movw	r24, r28
    35c0:	01 96       	adiw	r24, 0x01	; 1
    35c2:	0e 94 44 2b 	call	0x5688	; 0x5688 <_ZN6ns_lcd7PutCharEPhc>
    35c6:	13 c0       	rjmp	.+38     	; 0x35ee <_ZN7ns_menu12Set_PassViewEh+0x66>
    35c8:	18 13       	cpse	r17, r24
    35ca:	0a c0       	rjmp	.+20     	; 0x35e0 <_ZN7ns_menu12Set_PassViewEh+0x58>
    35cc:	f7 01       	movw	r30, r14
    35ce:	60 81       	ld	r22, Z
    35d0:	60 5d       	subi	r22, 0xD0	; 208
    35d2:	ce 01       	movw	r24, r28
    35d4:	01 96       	adiw	r24, 0x01	; 1
    35d6:	0e 94 44 2b 	call	0x5688	; 0x5688 <_ZN6ns_lcd7PutCharEPhc>
    35da:	10 92 e4 01 	sts	0x01E4, r1	; 0x8001e4 <_ZN6ns_lcd7flickerE>
    35de:	07 c0       	rjmp	.+14     	; 0x35ee <_ZN7ns_menu12Set_PassViewEh+0x66>
    35e0:	10 92 e4 01 	sts	0x01E4, r1	; 0x8001e4 <_ZN6ns_lcd7flickerE>
    35e4:	6d e2       	ldi	r22, 0x2D	; 45
    35e6:	ce 01       	movw	r24, r28
    35e8:	01 96       	adiw	r24, 0x01	; 1
    35ea:	0e 94 44 2b 	call	0x5688	; 0x5688 <_ZN6ns_lcd7PutCharEPhc>
    35ee:	1f 5f       	subi	r17, 0xFF	; 255
    35f0:	ff ef       	ldi	r31, 0xFF	; 255
    35f2:	ef 1a       	sub	r14, r31
    35f4:	ff 0a       	sbc	r15, r31
    35f6:	15 30       	cpi	r17, 0x05	; 5
    35f8:	b1 f6       	brne	.-84     	; 0x35a6 <_ZN7ns_menu12Set_PassViewEh+0x1e>
    35fa:	0f 90       	pop	r0
    35fc:	df 91       	pop	r29
    35fe:	cf 91       	pop	r28
    3600:	1f 91       	pop	r17
    3602:	ff 90       	pop	r15
    3604:	ef 90       	pop	r14
    3606:	08 95       	ret

00003608 <_ZN7ns_menu8Set_PassEh>:
    3608:	cf 93       	push	r28
    360a:	c8 2f       	mov	r28, r24
    360c:	8f b7       	in	r24, 0x3f	; 63
    360e:	f8 94       	cli
    3610:	10 92 bf 01 	sts	0x01BF, r1	; 0x8001bf <_ZN7ns_menu7timeOutE>
    3614:	10 92 c0 01 	sts	0x01C0, r1	; 0x8001c0 <_ZN7ns_menu7timeOutE+0x1>
    3618:	10 92 c1 01 	sts	0x01C1, r1	; 0x8001c1 <_ZN7ns_menu7timeOutE+0x2>
    361c:	10 92 c2 01 	sts	0x01C2, r1	; 0x8001c2 <_ZN7ns_menu7timeOutE+0x3>
    3620:	8f bf       	out	0x3f, r24	; 63
    3622:	0e 94 b1 29 	call	0x5362	; 0x5362 <_ZN6ns_lcd5ClearEv>
    3626:	60 e0       	ldi	r22, 0x00	; 0
    3628:	80 e0       	ldi	r24, 0x00	; 0
    362a:	0e 94 dd 2a 	call	0x55ba	; 0x55ba <_ZN6ns_lcd11SetPositionEhh>
    362e:	69 ec       	ldi	r22, 0xC9	; 201
    3630:	71 e0       	ldi	r23, 0x01	; 1
    3632:	0e 94 e7 2b 	call	0x57ce	; 0x57ce <_ZN6ns_lcd8String_PEhPKc>
    3636:	e8 eb       	ldi	r30, 0xB8	; 184
    3638:	f1 e0       	ldi	r31, 0x01	; 1
    363a:	10 82       	st	Z, r1
    363c:	11 82       	std	Z+1, r1	; 0x01
    363e:	12 82       	std	Z+2, r1	; 0x02
    3640:	13 82       	std	Z+3, r1	; 0x03
    3642:	14 82       	std	Z+4, r1	; 0x04
    3644:	10 92 bd 01 	sts	0x01BD, r1	; 0x8001bd <_ZN7ns_menu10curPosPassE>
    3648:	8c 2f       	mov	r24, r28
    364a:	9e df       	rcall	.-196    	; 0x3588 <_ZN7ns_menu12Set_PassViewEh>
    364c:	e0 91 de 01 	lds	r30, 0x01DE	; 0x8001de <key4>
    3650:	f0 91 df 01 	lds	r31, 0x01DF	; 0x8001df <key4+0x1>
    3654:	10 82       	st	Z, r1
    3656:	8f b7       	in	r24, 0x3f	; 63
    3658:	f8 94       	cli
    365a:	40 e9       	ldi	r20, 0x90	; 144
    365c:	5f e5       	ldi	r21, 0x5F	; 95
    365e:	61 e0       	ldi	r22, 0x01	; 1
    3660:	70 e0       	ldi	r23, 0x00	; 0
    3662:	40 93 bf 01 	sts	0x01BF, r20	; 0x8001bf <_ZN7ns_menu7timeOutE>
    3666:	50 93 c0 01 	sts	0x01C0, r21	; 0x8001c0 <_ZN7ns_menu7timeOutE+0x1>
    366a:	60 93 c1 01 	sts	0x01C1, r22	; 0x8001c1 <_ZN7ns_menu7timeOutE+0x2>
    366e:	70 93 c2 01 	sts	0x01C2, r23	; 0x8001c2 <_ZN7ns_menu7timeOutE+0x3>
    3672:	8f bf       	out	0x3f, r24	; 63
    3674:	cf 91       	pop	r28
    3676:	08 95       	ret

00003678 <_ZN7ns_menu13Set_PassMinusEh>:
    3678:	e0 91 de 01 	lds	r30, 0x01DE	; 0x8001de <key4>
    367c:	f0 91 df 01 	lds	r31, 0x01DF	; 0x8001df <key4+0x1>
    3680:	91 e0       	ldi	r25, 0x01	; 1
    3682:	90 83       	st	Z, r25
    3684:	20 91 bd 01 	lds	r18, 0x01BD	; 0x8001bd <_ZN7ns_menu10curPosPassE>
    3688:	30 e0       	ldi	r19, 0x00	; 0
    368a:	f9 01       	movw	r30, r18
    368c:	e8 54       	subi	r30, 0x48	; 72
    368e:	fe 4f       	sbci	r31, 0xFE	; 254
    3690:	90 81       	ld	r25, Z
    3692:	99 23       	and	r25, r25
    3694:	31 f0       	breq	.+12     	; 0x36a2 <_ZN7ns_menu13Set_PassMinusEh+0x2a>
    3696:	f9 01       	movw	r30, r18
    3698:	e8 54       	subi	r30, 0x48	; 72
    369a:	fe 4f       	sbci	r31, 0xFE	; 254
    369c:	91 50       	subi	r25, 0x01	; 1
    369e:	90 83       	st	Z, r25
    36a0:	73 df       	rcall	.-282    	; 0x3588 <_ZN7ns_menu12Set_PassViewEh>
    36a2:	8f b7       	in	r24, 0x3f	; 63
    36a4:	f8 94       	cli
    36a6:	40 e9       	ldi	r20, 0x90	; 144
    36a8:	5f e5       	ldi	r21, 0x5F	; 95
    36aa:	61 e0       	ldi	r22, 0x01	; 1
    36ac:	70 e0       	ldi	r23, 0x00	; 0
    36ae:	40 93 bf 01 	sts	0x01BF, r20	; 0x8001bf <_ZN7ns_menu7timeOutE>
    36b2:	50 93 c0 01 	sts	0x01C0, r21	; 0x8001c0 <_ZN7ns_menu7timeOutE+0x1>
    36b6:	60 93 c1 01 	sts	0x01C1, r22	; 0x8001c1 <_ZN7ns_menu7timeOutE+0x2>
    36ba:	70 93 c2 01 	sts	0x01C2, r23	; 0x8001c2 <_ZN7ns_menu7timeOutE+0x3>
    36be:	8f bf       	out	0x3f, r24	; 63
    36c0:	08 95       	ret

000036c2 <_ZN7ns_menu12Set_PassPlusEh>:
    36c2:	e0 91 de 01 	lds	r30, 0x01DE	; 0x8001de <key4>
    36c6:	f0 91 df 01 	lds	r31, 0x01DF	; 0x8001df <key4+0x1>
    36ca:	91 e0       	ldi	r25, 0x01	; 1
    36cc:	90 83       	st	Z, r25
    36ce:	20 91 bd 01 	lds	r18, 0x01BD	; 0x8001bd <_ZN7ns_menu10curPosPassE>
    36d2:	30 e0       	ldi	r19, 0x00	; 0
    36d4:	f9 01       	movw	r30, r18
    36d6:	e8 54       	subi	r30, 0x48	; 72
    36d8:	fe 4f       	sbci	r31, 0xFE	; 254
    36da:	90 81       	ld	r25, Z
    36dc:	99 30       	cpi	r25, 0x09	; 9
    36de:	30 f4       	brcc	.+12     	; 0x36ec <_ZN7ns_menu12Set_PassPlusEh+0x2a>
    36e0:	f9 01       	movw	r30, r18
    36e2:	e8 54       	subi	r30, 0x48	; 72
    36e4:	fe 4f       	sbci	r31, 0xFE	; 254
    36e6:	9f 5f       	subi	r25, 0xFF	; 255
    36e8:	90 83       	st	Z, r25
    36ea:	4e df       	rcall	.-356    	; 0x3588 <_ZN7ns_menu12Set_PassViewEh>
    36ec:	8f b7       	in	r24, 0x3f	; 63
    36ee:	f8 94       	cli
    36f0:	40 e9       	ldi	r20, 0x90	; 144
    36f2:	5f e5       	ldi	r21, 0x5F	; 95
    36f4:	61 e0       	ldi	r22, 0x01	; 1
    36f6:	70 e0       	ldi	r23, 0x00	; 0
    36f8:	40 93 bf 01 	sts	0x01BF, r20	; 0x8001bf <_ZN7ns_menu7timeOutE>
    36fc:	50 93 c0 01 	sts	0x01C0, r21	; 0x8001c0 <_ZN7ns_menu7timeOutE+0x1>
    3700:	60 93 c1 01 	sts	0x01C1, r22	; 0x8001c1 <_ZN7ns_menu7timeOutE+0x2>
    3704:	70 93 c2 01 	sts	0x01C2, r23	; 0x8001c2 <_ZN7ns_menu7timeOutE+0x3>
    3708:	8f bf       	out	0x3f, r24	; 63
    370a:	08 95       	ret

0000370c <_ZN7ns_menu10Set_PassVVEh>:
    370c:	ef 92       	push	r14
    370e:	ff 92       	push	r15
    3710:	0f 93       	push	r16
    3712:	1f 93       	push	r17
    3714:	cf 93       	push	r28
    3716:	df 93       	push	r29
    3718:	e0 91 de 01 	lds	r30, 0x01DE	; 0x8001de <key4>
    371c:	f0 91 df 01 	lds	r31, 0x01DF	; 0x8001df <key4+0x1>
    3720:	10 82       	st	Z, r1
    3722:	e0 91 bd 01 	lds	r30, 0x01BD	; 0x8001bd <_ZN7ns_menu10curPosPassE>
    3726:	e4 30       	cpi	r30, 0x04	; 4
    3728:	c0 f4       	brcc	.+48     	; 0x375a <_ZN7ns_menu10Set_PassVVEh+0x4e>
    372a:	ef 5f       	subi	r30, 0xFF	; 255
    372c:	e0 93 bd 01 	sts	0x01BD, r30	; 0x8001bd <_ZN7ns_menu10curPosPassE>
    3730:	f0 e0       	ldi	r31, 0x00	; 0
    3732:	e8 54       	subi	r30, 0x48	; 72
    3734:	fe 4f       	sbci	r31, 0xFE	; 254
    3736:	10 82       	st	Z, r1
    3738:	27 df       	rcall	.-434    	; 0x3588 <_ZN7ns_menu12Set_PassViewEh>
    373a:	8f b7       	in	r24, 0x3f	; 63
    373c:	f8 94       	cli
    373e:	40 e9       	ldi	r20, 0x90	; 144
    3740:	5f e5       	ldi	r21, 0x5F	; 95
    3742:	61 e0       	ldi	r22, 0x01	; 1
    3744:	70 e0       	ldi	r23, 0x00	; 0
    3746:	40 93 bf 01 	sts	0x01BF, r20	; 0x8001bf <_ZN7ns_menu7timeOutE>
    374a:	50 93 c0 01 	sts	0x01C0, r21	; 0x8001c0 <_ZN7ns_menu7timeOutE+0x1>
    374e:	60 93 c1 01 	sts	0x01C1, r22	; 0x8001c1 <_ZN7ns_menu7timeOutE+0x2>
    3752:	70 93 c2 01 	sts	0x01C2, r23	; 0x8001c2 <_ZN7ns_menu7timeOutE+0x3>
    3756:	8f bf       	out	0x3f, r24	; 63
    3758:	35 c0       	rjmp	.+106    	; 0x37c4 <_ZN7ns_menu10Set_PassVVEh+0xb8>
    375a:	08 eb       	ldi	r16, 0xB8	; 184
    375c:	11 e0       	ldi	r17, 0x01	; 1
    375e:	c8 ee       	ldi	r28, 0xE8	; 232
    3760:	dc e0       	ldi	r29, 0x0C	; 12
    3762:	0f 2e       	mov	r0, r31
    3764:	fd eb       	ldi	r31, 0xBD	; 189
    3766:	ef 2e       	mov	r14, r31
    3768:	f1 e0       	ldi	r31, 0x01	; 1
    376a:	ff 2e       	mov	r15, r31
    376c:	f0 2d       	mov	r31, r0
    376e:	f8 01       	movw	r30, r16
    3770:	61 91       	ld	r22, Z+
    3772:	8f 01       	movw	r16, r30
    3774:	ce 01       	movw	r24, r28
    3776:	0e 94 06 33 	call	0x660c	; 0x660c <eeprom_write_byte>
    377a:	21 96       	adiw	r28, 0x01	; 1
    377c:	0e 15       	cp	r16, r14
    377e:	1f 05       	cpc	r17, r15
    3780:	b1 f7       	brne	.-20     	; 0x376e <_ZN7ns_menu10Set_PassVVEh+0x62>
    3782:	0e 94 b1 29 	call	0x5362	; 0x5362 <_ZN6ns_lcd5ClearEv>
    3786:	61 e0       	ldi	r22, 0x01	; 1
    3788:	80 e0       	ldi	r24, 0x00	; 0
    378a:	0e 94 dd 2a 	call	0x55ba	; 0x55ba <_ZN6ns_lcd11SetPositionEhh>
    378e:	80 93 e8 01 	sts	0x01E8, r24	; 0x8001e8 <_ZN6ns_lcd3posE>
    3792:	61 e0       	ldi	r22, 0x01	; 1
    3794:	80 e0       	ldi	r24, 0x00	; 0
    3796:	0e 94 dd 2a 	call	0x55ba	; 0x55ba <_ZN6ns_lcd11SetPositionEhh>
    379a:	6e eb       	ldi	r22, 0xBE	; 190
    379c:	71 e0       	ldi	r23, 0x01	; 1
    379e:	0e 94 e7 2b 	call	0x57ce	; 0x57ce <_ZN6ns_lcd8String_PEhPKc>
    37a2:	8f b7       	in	r24, 0x3f	; 63
    37a4:	f8 94       	cli
    37a6:	48 e8       	ldi	r20, 0x88	; 136
    37a8:	53 e1       	ldi	r21, 0x13	; 19
    37aa:	60 e0       	ldi	r22, 0x00	; 0
    37ac:	70 e0       	ldi	r23, 0x00	; 0
    37ae:	40 93 bf 01 	sts	0x01BF, r20	; 0x8001bf <_ZN7ns_menu7timeOutE>
    37b2:	50 93 c0 01 	sts	0x01C0, r21	; 0x8001c0 <_ZN7ns_menu7timeOutE+0x1>
    37b6:	60 93 c1 01 	sts	0x01C1, r22	; 0x8001c1 <_ZN7ns_menu7timeOutE+0x2>
    37ba:	70 93 c2 01 	sts	0x01C2, r23	; 0x8001c2 <_ZN7ns_menu7timeOutE+0x3>
    37be:	8f bf       	out	0x3f, r24	; 63
    37c0:	84 e0       	ldi	r24, 0x04	; 4
    37c2:	ad d8       	rcall	.-3750   	; 0x291e <_ZN7ns_menu7SetModeEh>
    37c4:	df 91       	pop	r29
    37c6:	cf 91       	pop	r28
    37c8:	1f 91       	pop	r17
    37ca:	0f 91       	pop	r16
    37cc:	ff 90       	pop	r15
    37ce:	ef 90       	pop	r14
    37d0:	08 95       	ret

000037d2 <_ZN7ns_menu12Set_TimeViewEv>:
    37d2:	cf 92       	push	r12
    37d4:	df 92       	push	r13
    37d6:	ef 92       	push	r14
    37d8:	ff 92       	push	r15
    37da:	80 91 ac 01 	lds	r24, 0x01AC	; 0x8001ac <_ZN7ns_menu13setTime_timeNE>
    37de:	82 30       	cpi	r24, 0x02	; 2
    37e0:	19 f4       	brne	.+6      	; 0x37e8 <_ZN7ns_menu12Set_TimeViewEv+0x16>
    37e2:	81 e0       	ldi	r24, 0x01	; 1
    37e4:	80 93 e4 01 	sts	0x01E4, r24	; 0x8001e4 <_ZN6ns_lcd7flickerE>
    37e8:	c0 90 af 01 	lds	r12, 0x01AF	; 0x8001af <_ZN7ns_menu12setTime_timeE+0x2>
    37ec:	d1 2c       	mov	r13, r1
    37ee:	e1 2c       	mov	r14, r1
    37f0:	f1 2c       	mov	r15, r1
    37f2:	61 e0       	ldi	r22, 0x01	; 1
    37f4:	8b e0       	ldi	r24, 0x0B	; 11
    37f6:	0e 94 dd 2a 	call	0x55ba	; 0x55ba <_ZN6ns_lcd11SetPositionEhh>
    37fa:	a7 01       	movw	r20, r14
    37fc:	96 01       	movw	r18, r12
    37fe:	62 e0       	ldi	r22, 0x02	; 2
    3800:	0e 94 5f 2c 	call	0x58be	; 0x58be <_ZN6ns_lcd6DigitZEhhl>
    3804:	10 92 e4 01 	sts	0x01E4, r1	; 0x8001e4 <_ZN6ns_lcd7flickerE>
    3808:	80 91 ac 01 	lds	r24, 0x01AC	; 0x8001ac <_ZN7ns_menu13setTime_timeNE>
    380c:	81 30       	cpi	r24, 0x01	; 1
    380e:	11 f4       	brne	.+4      	; 0x3814 <_ZN7ns_menu12Set_TimeViewEv+0x42>
    3810:	80 93 e4 01 	sts	0x01E4, r24	; 0x8001e4 <_ZN6ns_lcd7flickerE>
    3814:	c0 90 ae 01 	lds	r12, 0x01AE	; 0x8001ae <_ZN7ns_menu12setTime_timeE+0x1>
    3818:	d1 2c       	mov	r13, r1
    381a:	e1 2c       	mov	r14, r1
    381c:	f1 2c       	mov	r15, r1
    381e:	61 e0       	ldi	r22, 0x01	; 1
    3820:	8e e0       	ldi	r24, 0x0E	; 14
    3822:	0e 94 dd 2a 	call	0x55ba	; 0x55ba <_ZN6ns_lcd11SetPositionEhh>
    3826:	a7 01       	movw	r20, r14
    3828:	96 01       	movw	r18, r12
    382a:	62 e0       	ldi	r22, 0x02	; 2
    382c:	0e 94 5f 2c 	call	0x58be	; 0x58be <_ZN6ns_lcd6DigitZEhhl>
    3830:	10 92 e4 01 	sts	0x01E4, r1	; 0x8001e4 <_ZN6ns_lcd7flickerE>
    3834:	80 91 ac 01 	lds	r24, 0x01AC	; 0x8001ac <_ZN7ns_menu13setTime_timeNE>
    3838:	84 30       	cpi	r24, 0x04	; 4
    383a:	19 f4       	brne	.+6      	; 0x3842 <_ZN7ns_menu12Set_TimeViewEv+0x70>
    383c:	81 e0       	ldi	r24, 0x01	; 1
    383e:	80 93 e4 01 	sts	0x01E4, r24	; 0x8001e4 <_ZN6ns_lcd7flickerE>
    3842:	ad ea       	ldi	r26, 0xAD	; 173
    3844:	b1 e0       	ldi	r27, 0x01	; 1
    3846:	16 96       	adiw	r26, 0x06	; 6
    3848:	8c 91       	ld	r24, X
    384a:	16 97       	sbiw	r26, 0x06	; 6
    384c:	83 70       	andi	r24, 0x03	; 3
    384e:	15 96       	adiw	r26, 0x05	; 5
    3850:	ec 91       	ld	r30, X
    3852:	15 97       	sbiw	r26, 0x05	; 5
    3854:	f0 e0       	ldi	r31, 0x00	; 0
    3856:	9d e0       	ldi	r25, 0x0D	; 13
    3858:	89 9f       	mul	r24, r25
    385a:	e0 0d       	add	r30, r0
    385c:	f1 1d       	adc	r31, r1
    385e:	11 24       	eor	r1, r1
    3860:	e0 5d       	subi	r30, 0xD0	; 208
    3862:	fb 4f       	sbci	r31, 0xFB	; 251
    3864:	e4 91       	lpm	r30, Z
    3866:	14 96       	adiw	r26, 0x04	; 4
    3868:	8c 91       	ld	r24, X
    386a:	81 11       	cpse	r24, r1
    386c:	03 c0       	rjmp	.+6      	; 0x3874 <_ZN7ns_menu12Set_TimeViewEv+0xa2>
    386e:	81 e0       	ldi	r24, 0x01	; 1
    3870:	80 93 b1 01 	sts	0x01B1, r24	; 0x8001b1 <_ZN7ns_menu12setTime_timeE+0x4>
    3874:	80 91 b1 01 	lds	r24, 0x01B1	; 0x8001b1 <_ZN7ns_menu12setTime_timeE+0x4>
    3878:	e8 17       	cp	r30, r24
    387a:	10 f4       	brcc	.+4      	; 0x3880 <_ZN7ns_menu12Set_TimeViewEv+0xae>
    387c:	e0 93 b1 01 	sts	0x01B1, r30	; 0x8001b1 <_ZN7ns_menu12setTime_timeE+0x4>
    3880:	c0 90 b1 01 	lds	r12, 0x01B1	; 0x8001b1 <_ZN7ns_menu12setTime_timeE+0x4>
    3884:	d1 2c       	mov	r13, r1
    3886:	e1 2c       	mov	r14, r1
    3888:	f1 2c       	mov	r15, r1
    388a:	61 e0       	ldi	r22, 0x01	; 1
    388c:	80 e0       	ldi	r24, 0x00	; 0
    388e:	0e 94 dd 2a 	call	0x55ba	; 0x55ba <_ZN6ns_lcd11SetPositionEhh>
    3892:	a7 01       	movw	r20, r14
    3894:	96 01       	movw	r18, r12
    3896:	62 e0       	ldi	r22, 0x02	; 2
    3898:	0e 94 5f 2c 	call	0x58be	; 0x58be <_ZN6ns_lcd6DigitZEhhl>
    389c:	10 92 e4 01 	sts	0x01E4, r1	; 0x8001e4 <_ZN6ns_lcd7flickerE>
    38a0:	80 91 ac 01 	lds	r24, 0x01AC	; 0x8001ac <_ZN7ns_menu13setTime_timeNE>
    38a4:	85 30       	cpi	r24, 0x05	; 5
    38a6:	19 f4       	brne	.+6      	; 0x38ae <_ZN7ns_menu12Set_TimeViewEv+0xdc>
    38a8:	81 e0       	ldi	r24, 0x01	; 1
    38aa:	80 93 e4 01 	sts	0x01E4, r24	; 0x8001e4 <_ZN6ns_lcd7flickerE>
    38ae:	c0 90 b2 01 	lds	r12, 0x01B2	; 0x8001b2 <_ZN7ns_menu12setTime_timeE+0x5>
    38b2:	d1 2c       	mov	r13, r1
    38b4:	e1 2c       	mov	r14, r1
    38b6:	f1 2c       	mov	r15, r1
    38b8:	61 e0       	ldi	r22, 0x01	; 1
    38ba:	83 e0       	ldi	r24, 0x03	; 3
    38bc:	0e 94 dd 2a 	call	0x55ba	; 0x55ba <_ZN6ns_lcd11SetPositionEhh>
    38c0:	a7 01       	movw	r20, r14
    38c2:	96 01       	movw	r18, r12
    38c4:	62 e0       	ldi	r22, 0x02	; 2
    38c6:	0e 94 5f 2c 	call	0x58be	; 0x58be <_ZN6ns_lcd6DigitZEhhl>
    38ca:	10 92 e4 01 	sts	0x01E4, r1	; 0x8001e4 <_ZN6ns_lcd7flickerE>
    38ce:	80 91 ac 01 	lds	r24, 0x01AC	; 0x8001ac <_ZN7ns_menu13setTime_timeNE>
    38d2:	86 30       	cpi	r24, 0x06	; 6
    38d4:	19 f4       	brne	.+6      	; 0x38dc <_ZN7ns_menu12Set_TimeViewEv+0x10a>
    38d6:	81 e0       	ldi	r24, 0x01	; 1
    38d8:	80 93 e4 01 	sts	0x01E4, r24	; 0x8001e4 <_ZN6ns_lcd7flickerE>
    38dc:	61 e0       	ldi	r22, 0x01	; 1
    38de:	86 e0       	ldi	r24, 0x06	; 6
    38e0:	0e 94 dd 2a 	call	0x55ba	; 0x55ba <_ZN6ns_lcd11SetPositionEhh>
    38e4:	6b eb       	ldi	r22, 0xBB	; 187
    38e6:	71 e0       	ldi	r23, 0x01	; 1
    38e8:	0e 94 e7 2b 	call	0x57ce	; 0x57ce <_ZN6ns_lcd8String_PEhPKc>
    38ec:	c0 90 b3 01 	lds	r12, 0x01B3	; 0x8001b3 <_ZN7ns_menu12setTime_timeE+0x6>
    38f0:	d1 2c       	mov	r13, r1
    38f2:	e1 2c       	mov	r14, r1
    38f4:	f1 2c       	mov	r15, r1
    38f6:	61 e0       	ldi	r22, 0x01	; 1
    38f8:	88 e0       	ldi	r24, 0x08	; 8
    38fa:	0e 94 dd 2a 	call	0x55ba	; 0x55ba <_ZN6ns_lcd11SetPositionEhh>
    38fe:	a7 01       	movw	r20, r14
    3900:	96 01       	movw	r18, r12
    3902:	62 e0       	ldi	r22, 0x02	; 2
    3904:	0e 94 5f 2c 	call	0x58be	; 0x58be <_ZN6ns_lcd6DigitZEhhl>
    3908:	10 92 e4 01 	sts	0x01E4, r1	; 0x8001e4 <_ZN6ns_lcd7flickerE>
    390c:	61 e0       	ldi	r22, 0x01	; 1
    390e:	82 e0       	ldi	r24, 0x02	; 2
    3910:	0e 94 dd 2a 	call	0x55ba	; 0x55ba <_ZN6ns_lcd11SetPositionEhh>
    3914:	6d e2       	ldi	r22, 0x2D	; 45
    3916:	0e 94 64 2b 	call	0x56c8	; 0x56c8 <_ZN6ns_lcd7PutCharEhc>
    391a:	61 e0       	ldi	r22, 0x01	; 1
    391c:	85 e0       	ldi	r24, 0x05	; 5
    391e:	0e 94 dd 2a 	call	0x55ba	; 0x55ba <_ZN6ns_lcd11SetPositionEhh>
    3922:	6d e2       	ldi	r22, 0x2D	; 45
    3924:	0e 94 64 2b 	call	0x56c8	; 0x56c8 <_ZN6ns_lcd7PutCharEhc>
    3928:	80 91 ac 01 	lds	r24, 0x01AC	; 0x8001ac <_ZN7ns_menu13setTime_timeNE>
    392c:	81 11       	cpse	r24, r1
    392e:	03 c0       	rjmp	.+6      	; 0x3936 <_ZN7ns_menu12Set_TimeViewEv+0x164>
    3930:	81 e0       	ldi	r24, 0x01	; 1
    3932:	80 93 e4 01 	sts	0x01E4, r24	; 0x8001e4 <_ZN6ns_lcd7flickerE>
    3936:	61 e0       	ldi	r22, 0x01	; 1
    3938:	8d e0       	ldi	r24, 0x0D	; 13
    393a:	0e 94 dd 2a 	call	0x55ba	; 0x55ba <_ZN6ns_lcd11SetPositionEhh>
    393e:	6a e3       	ldi	r22, 0x3A	; 58
    3940:	0e 94 64 2b 	call	0x56c8	; 0x56c8 <_ZN6ns_lcd7PutCharEhc>
    3944:	10 92 e4 01 	sts	0x01E4, r1	; 0x8001e4 <_ZN6ns_lcd7flickerE>
    3948:	ff 90       	pop	r15
    394a:	ef 90       	pop	r14
    394c:	df 90       	pop	r13
    394e:	cf 90       	pop	r12
    3950:	08 95       	ret

00003952 <_ZN7ns_menu8Set_TimeEh>:
    3952:	8f b7       	in	r24, 0x3f	; 63
    3954:	f8 94       	cli
    3956:	10 92 bf 01 	sts	0x01BF, r1	; 0x8001bf <_ZN7ns_menu7timeOutE>
    395a:	10 92 c0 01 	sts	0x01C0, r1	; 0x8001c0 <_ZN7ns_menu7timeOutE+0x1>
    395e:	10 92 c1 01 	sts	0x01C1, r1	; 0x8001c1 <_ZN7ns_menu7timeOutE+0x2>
    3962:	10 92 c2 01 	sts	0x01C2, r1	; 0x8001c2 <_ZN7ns_menu7timeOutE+0x3>
    3966:	8f bf       	out	0x3f, r24	; 63
    3968:	e0 91 de 01 	lds	r30, 0x01DE	; 0x8001de <key4>
    396c:	f0 91 df 01 	lds	r31, 0x01DF	; 0x8001df <key4+0x1>
    3970:	10 82       	st	Z, r1
    3972:	0e 94 b1 29 	call	0x5362	; 0x5362 <_ZN6ns_lcd5ClearEv>
    3976:	60 e0       	ldi	r22, 0x00	; 0
    3978:	80 e0       	ldi	r24, 0x00	; 0
    397a:	0e 94 dd 2a 	call	0x55ba	; 0x55ba <_ZN6ns_lcd11SetPositionEhh>
    397e:	60 eb       	ldi	r22, 0xB0	; 176
    3980:	71 e0       	ldi	r23, 0x01	; 1
    3982:	0e 94 e7 2b 	call	0x57ce	; 0x57ce <_ZN6ns_lcd8String_PEhPKc>
    3986:	10 92 bd 01 	sts	0x01BD, r1	; 0x8001bd <_ZN7ns_menu10curPosPassE>
    398a:	4f b7       	in	r20, 0x3f	; 63
    398c:	f8 94       	cli
    398e:	ee ec       	ldi	r30, 0xCE	; 206
    3990:	f1 e0       	ldi	r31, 0x01	; 1
    3992:	ad ea       	ldi	r26, 0xAD	; 173
    3994:	b1 e0       	ldi	r27, 0x01	; 1
    3996:	25 ed       	ldi	r18, 0xD5	; 213
    3998:	31 e0       	ldi	r19, 0x01	; 1
    399a:	81 91       	ld	r24, Z+
    399c:	8d 93       	st	X+, r24
    399e:	e2 17       	cp	r30, r18
    39a0:	f3 07       	cpc	r31, r19
    39a2:	d9 f7       	brne	.-10     	; 0x399a <_ZN7ns_menu8Set_TimeEh+0x48>
    39a4:	86 e0       	ldi	r24, 0x06	; 6
    39a6:	80 93 ac 01 	sts	0x01AC, r24	; 0x8001ac <_ZN7ns_menu13setTime_timeNE>
    39aa:	80 e9       	ldi	r24, 0x90	; 144
    39ac:	9f e5       	ldi	r25, 0x5F	; 95
    39ae:	a1 e0       	ldi	r26, 0x01	; 1
    39b0:	b0 e0       	ldi	r27, 0x00	; 0
    39b2:	80 93 bf 01 	sts	0x01BF, r24	; 0x8001bf <_ZN7ns_menu7timeOutE>
    39b6:	90 93 c0 01 	sts	0x01C0, r25	; 0x8001c0 <_ZN7ns_menu7timeOutE+0x1>
    39ba:	a0 93 c1 01 	sts	0x01C1, r26	; 0x8001c1 <_ZN7ns_menu7timeOutE+0x2>
    39be:	b0 93 c2 01 	sts	0x01C2, r27	; 0x8001c2 <_ZN7ns_menu7timeOutE+0x3>
    39c2:	4f bf       	out	0x3f, r20	; 63
    39c4:	06 cf       	rjmp	.-500    	; 0x37d2 <_ZN7ns_menu12Set_TimeViewEv>
    39c6:	08 95       	ret

000039c8 <_ZN7ns_menu13Set_TimeMinusEh>:
    39c8:	e0 91 de 01 	lds	r30, 0x01DE	; 0x8001de <key4>
    39cc:	f0 91 df 01 	lds	r31, 0x01DF	; 0x8001df <key4+0x1>
    39d0:	81 e0       	ldi	r24, 0x01	; 1
    39d2:	80 83       	st	Z, r24
    39d4:	80 91 ac 01 	lds	r24, 0x01AC	; 0x8001ac <_ZN7ns_menu13setTime_timeNE>
    39d8:	86 30       	cpi	r24, 0x06	; 6
    39da:	39 f0       	breq	.+14     	; 0x39ea <_ZN7ns_menu13Set_TimeMinusEh+0x22>
    39dc:	82 30       	cpi	r24, 0x02	; 2
    39de:	39 f0       	breq	.+14     	; 0x39ee <_ZN7ns_menu13Set_TimeMinusEh+0x26>
    39e0:	31 e0       	ldi	r19, 0x01	; 1
    39e2:	81 30       	cpi	r24, 0x01	; 1
    39e4:	29 f4       	brne	.+10     	; 0x39f0 <_ZN7ns_menu13Set_TimeMinusEh+0x28>
    39e6:	30 e0       	ldi	r19, 0x00	; 0
    39e8:	03 c0       	rjmp	.+6      	; 0x39f0 <_ZN7ns_menu13Set_TimeMinusEh+0x28>
    39ea:	31 e1       	ldi	r19, 0x11	; 17
    39ec:	01 c0       	rjmp	.+2      	; 0x39f0 <_ZN7ns_menu13Set_TimeMinusEh+0x28>
    39ee:	30 e0       	ldi	r19, 0x00	; 0
    39f0:	90 e0       	ldi	r25, 0x00	; 0
    39f2:	fc 01       	movw	r30, r24
    39f4:	e3 55       	subi	r30, 0x53	; 83
    39f6:	fe 4f       	sbci	r31, 0xFE	; 254
    39f8:	20 81       	ld	r18, Z
    39fa:	32 17       	cp	r19, r18
    39fc:	28 f4       	brcc	.+10     	; 0x3a08 <_ZN7ns_menu13Set_TimeMinusEh+0x40>
    39fe:	fc 01       	movw	r30, r24
    3a00:	e3 55       	subi	r30, 0x53	; 83
    3a02:	fe 4f       	sbci	r31, 0xFE	; 254
    3a04:	21 50       	subi	r18, 0x01	; 1
    3a06:	20 83       	st	Z, r18
    3a08:	e4 de       	rcall	.-568    	; 0x37d2 <_ZN7ns_menu12Set_TimeViewEv>
    3a0a:	8f b7       	in	r24, 0x3f	; 63
    3a0c:	f8 94       	cli
    3a0e:	40 e9       	ldi	r20, 0x90	; 144
    3a10:	5f e5       	ldi	r21, 0x5F	; 95
    3a12:	61 e0       	ldi	r22, 0x01	; 1
    3a14:	70 e0       	ldi	r23, 0x00	; 0
    3a16:	40 93 bf 01 	sts	0x01BF, r20	; 0x8001bf <_ZN7ns_menu7timeOutE>
    3a1a:	50 93 c0 01 	sts	0x01C0, r21	; 0x8001c0 <_ZN7ns_menu7timeOutE+0x1>
    3a1e:	60 93 c1 01 	sts	0x01C1, r22	; 0x8001c1 <_ZN7ns_menu7timeOutE+0x2>
    3a22:	70 93 c2 01 	sts	0x01C2, r23	; 0x8001c2 <_ZN7ns_menu7timeOutE+0x3>
    3a26:	8f bf       	out	0x3f, r24	; 63
    3a28:	08 95       	ret

00003a2a <_ZN7ns_menu12Set_TimePlusEh>:
    3a2a:	e0 91 de 01 	lds	r30, 0x01DE	; 0x8001de <key4>
    3a2e:	f0 91 df 01 	lds	r31, 0x01DF	; 0x8001df <key4+0x1>
    3a32:	81 e0       	ldi	r24, 0x01	; 1
    3a34:	80 83       	st	Z, r24
    3a36:	80 91 ac 01 	lds	r24, 0x01AC	; 0x8001ac <_ZN7ns_menu13setTime_timeNE>
    3a3a:	85 30       	cpi	r24, 0x05	; 5
    3a3c:	a9 f0       	breq	.+42     	; 0x3a68 <_ZN7ns_menu12Set_TimePlusEh+0x3e>
    3a3e:	84 30       	cpi	r24, 0x04	; 4
    3a40:	79 f4       	brne	.+30     	; 0x3a60 <_ZN7ns_menu12Set_TimePlusEh+0x36>
    3a42:	ed ea       	ldi	r30, 0xAD	; 173
    3a44:	f1 e0       	ldi	r31, 0x01	; 1
    3a46:	96 81       	ldd	r25, Z+6	; 0x06
    3a48:	93 70       	andi	r25, 0x03	; 3
    3a4a:	e5 81       	ldd	r30, Z+5	; 0x05
    3a4c:	f0 e0       	ldi	r31, 0x00	; 0
    3a4e:	2d e0       	ldi	r18, 0x0D	; 13
    3a50:	92 9f       	mul	r25, r18
    3a52:	e0 0d       	add	r30, r0
    3a54:	f1 1d       	adc	r31, r1
    3a56:	11 24       	eor	r1, r1
    3a58:	e0 5d       	subi	r30, 0xD0	; 208
    3a5a:	fb 4f       	sbci	r31, 0xFB	; 251
    3a5c:	e4 91       	lpm	r30, Z
    3a5e:	0a c0       	rjmp	.+20     	; 0x3a74 <_ZN7ns_menu12Set_TimePlusEh+0x4a>
    3a60:	82 30       	cpi	r24, 0x02	; 2
    3a62:	39 f0       	breq	.+14     	; 0x3a72 <_ZN7ns_menu12Set_TimePlusEh+0x48>
    3a64:	e9 e1       	ldi	r30, 0x19	; 25
    3a66:	01 c0       	rjmp	.+2      	; 0x3a6a <_ZN7ns_menu12Set_TimePlusEh+0x40>
    3a68:	ec e0       	ldi	r30, 0x0C	; 12
    3a6a:	81 30       	cpi	r24, 0x01	; 1
    3a6c:	19 f4       	brne	.+6      	; 0x3a74 <_ZN7ns_menu12Set_TimePlusEh+0x4a>
    3a6e:	eb e3       	ldi	r30, 0x3B	; 59
    3a70:	01 c0       	rjmp	.+2      	; 0x3a74 <_ZN7ns_menu12Set_TimePlusEh+0x4a>
    3a72:	e7 e1       	ldi	r30, 0x17	; 23
    3a74:	90 e0       	ldi	r25, 0x00	; 0
    3a76:	dc 01       	movw	r26, r24
    3a78:	a3 55       	subi	r26, 0x53	; 83
    3a7a:	be 4f       	sbci	r27, 0xFE	; 254
    3a7c:	2c 91       	ld	r18, X
    3a7e:	2e 17       	cp	r18, r30
    3a80:	18 f4       	brcc	.+6      	; 0x3a88 <_ZN7ns_menu12Set_TimePlusEh+0x5e>
    3a82:	fd 01       	movw	r30, r26
    3a84:	2f 5f       	subi	r18, 0xFF	; 255
    3a86:	20 83       	st	Z, r18
    3a88:	a4 de       	rcall	.-696    	; 0x37d2 <_ZN7ns_menu12Set_TimeViewEv>
    3a8a:	8f b7       	in	r24, 0x3f	; 63
    3a8c:	f8 94       	cli
    3a8e:	40 e9       	ldi	r20, 0x90	; 144
    3a90:	5f e5       	ldi	r21, 0x5F	; 95
    3a92:	61 e0       	ldi	r22, 0x01	; 1
    3a94:	70 e0       	ldi	r23, 0x00	; 0
    3a96:	40 93 bf 01 	sts	0x01BF, r20	; 0x8001bf <_ZN7ns_menu7timeOutE>
    3a9a:	50 93 c0 01 	sts	0x01C0, r21	; 0x8001c0 <_ZN7ns_menu7timeOutE+0x1>
    3a9e:	60 93 c1 01 	sts	0x01C1, r22	; 0x8001c1 <_ZN7ns_menu7timeOutE+0x2>
    3aa2:	70 93 c2 01 	sts	0x01C2, r23	; 0x8001c2 <_ZN7ns_menu7timeOutE+0x3>
    3aa6:	8f bf       	out	0x3f, r24	; 63
    3aa8:	08 95       	ret

00003aaa <_ZN7ns_menu11Set_TimeEntEh>:
    3aaa:	1f 93       	push	r17
    3aac:	cf 93       	push	r28
    3aae:	df 93       	push	r29
    3ab0:	80 91 ac 01 	lds	r24, 0x01AC	; 0x8001ac <_ZN7ns_menu13setTime_timeNE>
    3ab4:	88 23       	and	r24, r24
    3ab6:	d9 f0       	breq	.+54     	; 0x3aee <_ZN7ns_menu11Set_TimeEntEh+0x44>
    3ab8:	9f ef       	ldi	r25, 0xFF	; 255
    3aba:	98 0f       	add	r25, r24
    3abc:	93 30       	cpi	r25, 0x03	; 3
    3abe:	19 f0       	breq	.+6      	; 0x3ac6 <_ZN7ns_menu11Set_TimeEntEh+0x1c>
    3ac0:	90 93 ac 01 	sts	0x01AC, r25	; 0x8001ac <_ZN7ns_menu13setTime_timeNE>
    3ac4:	03 c0       	rjmp	.+6      	; 0x3acc <_ZN7ns_menu11Set_TimeEntEh+0x22>
    3ac6:	82 50       	subi	r24, 0x02	; 2
    3ac8:	80 93 ac 01 	sts	0x01AC, r24	; 0x8001ac <_ZN7ns_menu13setTime_timeNE>
    3acc:	82 de       	rcall	.-764    	; 0x37d2 <_ZN7ns_menu12Set_TimeViewEv>
    3ace:	8f b7       	in	r24, 0x3f	; 63
    3ad0:	f8 94       	cli
    3ad2:	40 e9       	ldi	r20, 0x90	; 144
    3ad4:	5f e5       	ldi	r21, 0x5F	; 95
    3ad6:	61 e0       	ldi	r22, 0x01	; 1
    3ad8:	70 e0       	ldi	r23, 0x00	; 0
    3ada:	40 93 bf 01 	sts	0x01BF, r20	; 0x8001bf <_ZN7ns_menu7timeOutE>
    3ade:	50 93 c0 01 	sts	0x01C0, r21	; 0x8001c0 <_ZN7ns_menu7timeOutE+0x1>
    3ae2:	60 93 c1 01 	sts	0x01C1, r22	; 0x8001c1 <_ZN7ns_menu7timeOutE+0x2>
    3ae6:	70 93 c2 01 	sts	0x01C2, r23	; 0x8001c2 <_ZN7ns_menu7timeOutE+0x3>
    3aea:	8f bf       	out	0x3f, r24	; 63
    3aec:	1b c0       	rjmp	.+54     	; 0x3b24 <_ZN7ns_menu11Set_TimeEntEh+0x7a>
    3aee:	1f b7       	in	r17, 0x3f	; 63
    3af0:	f8 94       	cli
    3af2:	cd ea       	ldi	r28, 0xAD	; 173
    3af4:	d1 e0       	ldi	r29, 0x01	; 1
    3af6:	8e 81       	ldd	r24, Y+6	; 0x06
    3af8:	0e 94 3e 26 	call	0x4c7c	; 0x4c7c <_ZN8ns_clock7SetYearEh>
    3afc:	8d 81       	ldd	r24, Y+5	; 0x05
    3afe:	0e 94 53 26 	call	0x4ca6	; 0x4ca6 <_ZN8ns_clock8SetMonthEh>
    3b02:	8c 81       	ldd	r24, Y+4	; 0x04
    3b04:	0e 94 68 26 	call	0x4cd0	; 0x4cd0 <_ZN8ns_clock7SetDateEh>
    3b08:	8a 81       	ldd	r24, Y+2	; 0x02
    3b0a:	0e 94 7d 26 	call	0x4cfa	; 0x4cfa <_ZN8ns_clock7SetHourEh>
    3b0e:	89 81       	ldd	r24, Y+1	; 0x01
    3b10:	0e 94 92 26 	call	0x4d24	; 0x4d24 <_ZN8ns_clock9SetMinuteEh>
    3b14:	0e 94 a7 26 	call	0x4d4e	; 0x4d4e <_ZN8ns_clock13SetZeroSecondEv>
    3b18:	0e 94 aa 26 	call	0x4d54	; 0x4d54 <_ZN8ns_clock6UpdateEv>
    3b1c:	1f bf       	out	0x3f, r17	; 63
    3b1e:	80 e0       	ldi	r24, 0x00	; 0
    3b20:	0e 94 8f 14 	call	0x291e	; 0x291e <_ZN7ns_menu7SetModeEh>
    3b24:	df 91       	pop	r29
    3b26:	cf 91       	pop	r28
    3b28:	1f 91       	pop	r17
    3b2a:	08 95       	ret

00003b2c <_ZN7ns_menu12Set_TimeBackEh>:
    3b2c:	80 91 ac 01 	lds	r24, 0x01AC	; 0x8001ac <_ZN7ns_menu13setTime_timeNE>
    3b30:	86 30       	cpi	r24, 0x06	; 6
    3b32:	d8 f4       	brcc	.+54     	; 0x3b6a <_ZN7ns_menu12Set_TimeBackEh+0x3e>
    3b34:	91 e0       	ldi	r25, 0x01	; 1
    3b36:	98 0f       	add	r25, r24
    3b38:	93 30       	cpi	r25, 0x03	; 3
    3b3a:	19 f0       	breq	.+6      	; 0x3b42 <_ZN7ns_menu12Set_TimeBackEh+0x16>
    3b3c:	90 93 ac 01 	sts	0x01AC, r25	; 0x8001ac <_ZN7ns_menu13setTime_timeNE>
    3b40:	03 c0       	rjmp	.+6      	; 0x3b48 <_ZN7ns_menu12Set_TimeBackEh+0x1c>
    3b42:	8e 5f       	subi	r24, 0xFE	; 254
    3b44:	80 93 ac 01 	sts	0x01AC, r24	; 0x8001ac <_ZN7ns_menu13setTime_timeNE>
    3b48:	44 de       	rcall	.-888    	; 0x37d2 <_ZN7ns_menu12Set_TimeViewEv>
    3b4a:	8f b7       	in	r24, 0x3f	; 63
    3b4c:	f8 94       	cli
    3b4e:	40 e9       	ldi	r20, 0x90	; 144
    3b50:	5f e5       	ldi	r21, 0x5F	; 95
    3b52:	61 e0       	ldi	r22, 0x01	; 1
    3b54:	70 e0       	ldi	r23, 0x00	; 0
    3b56:	40 93 bf 01 	sts	0x01BF, r20	; 0x8001bf <_ZN7ns_menu7timeOutE>
    3b5a:	50 93 c0 01 	sts	0x01C0, r21	; 0x8001c0 <_ZN7ns_menu7timeOutE+0x1>
    3b5e:	60 93 c1 01 	sts	0x01C1, r22	; 0x8001c1 <_ZN7ns_menu7timeOutE+0x2>
    3b62:	70 93 c2 01 	sts	0x01C2, r23	; 0x8001c2 <_ZN7ns_menu7timeOutE+0x3>
    3b66:	8f bf       	out	0x3f, r24	; 63
    3b68:	08 95       	ret
    3b6a:	8f b7       	in	r24, 0x3f	; 63
    3b6c:	f8 94       	cli
    3b6e:	10 92 bf 01 	sts	0x01BF, r1	; 0x8001bf <_ZN7ns_menu7timeOutE>
    3b72:	10 92 c0 01 	sts	0x01C0, r1	; 0x8001c0 <_ZN7ns_menu7timeOutE+0x1>
    3b76:	10 92 c1 01 	sts	0x01C1, r1	; 0x8001c1 <_ZN7ns_menu7timeOutE+0x2>
    3b7a:	10 92 c2 01 	sts	0x01C2, r1	; 0x8001c2 <_ZN7ns_menu7timeOutE+0x3>
    3b7e:	8f bf       	out	0x3f, r24	; 63
    3b80:	80 e0       	ldi	r24, 0x00	; 0
    3b82:	0c 94 8f 14 	jmp	0x291e	; 0x291e <_ZN7ns_menu7SetModeEh>
    3b86:	08 95       	ret

00003b88 <_ZN7ns_menu10view_arcShEv>:
    3b88:	cf 93       	push	r28
    3b8a:	df 93       	push	r29
    3b8c:	cd b7       	in	r28, 0x3d	; 61
    3b8e:	de b7       	in	r29, 0x3e	; 62
    3b90:	2c 97       	sbiw	r28, 0x0c	; 12
    3b92:	0f b6       	in	r0, 0x3f	; 63
    3b94:	f8 94       	cli
    3b96:	de bf       	out	0x3e, r29	; 62
    3b98:	0f be       	out	0x3f, r0	; 63
    3b9a:	cd bf       	out	0x3d, r28	; 61
    3b9c:	20 91 9b 01 	lds	r18, 0x019B	; 0x80019b <_ZN7ns_menu9viewarc_nE>
    3ba0:	30 91 9c 01 	lds	r19, 0x019C	; 0x80019c <_ZN7ns_menu9viewarc_nE+0x1>
    3ba4:	80 91 9d 01 	lds	r24, 0x019D	; 0x80019d <_ZN7ns_menu11viewarc_idxE>
    3ba8:	90 91 9e 01 	lds	r25, 0x019E	; 0x80019e <_ZN7ns_menu11viewarc_idxE+0x1>
    3bac:	82 0f       	add	r24, r18
    3bae:	93 1f       	adc	r25, r19
    3bb0:	8c 32       	cpi	r24, 0x2C	; 44
    3bb2:	21 e0       	ldi	r18, 0x01	; 1
    3bb4:	92 07       	cpc	r25, r18
    3bb6:	30 f0       	brcs	.+12     	; 0x3bc4 <_ZN7ns_menu10view_arcShEv+0x3c>
    3bb8:	8c 52       	subi	r24, 0x2C	; 44
    3bba:	91 40       	sbci	r25, 0x01	; 1
    3bbc:	8c 32       	cpi	r24, 0x2C	; 44
    3bbe:	21 e0       	ldi	r18, 0x01	; 1
    3bc0:	92 07       	cpc	r25, r18
    3bc2:	d0 f7       	brcc	.-12     	; 0x3bb8 <_ZN7ns_menu10view_arcShEv+0x30>
    3bc4:	2b e0       	ldi	r18, 0x0B	; 11
    3bc6:	28 9f       	mul	r18, r24
    3bc8:	b0 01       	movw	r22, r0
    3bca:	29 9f       	mul	r18, r25
    3bcc:	70 0d       	add	r23, r0
    3bce:	11 24       	eor	r1, r1
    3bd0:	6c 5f       	subi	r22, 0xFC	; 252
    3bd2:	7f 4f       	sbci	r23, 0xFF	; 255
    3bd4:	4b e0       	ldi	r20, 0x0B	; 11
    3bd6:	50 e0       	ldi	r21, 0x00	; 0
    3bd8:	ce 01       	movw	r24, r28
    3bda:	01 96       	adiw	r24, 0x01	; 1
    3bdc:	0e 94 cb 32 	call	0x6596	; 0x6596 <eeprom_read_block>
    3be0:	61 e0       	ldi	r22, 0x01	; 1
    3be2:	80 e0       	ldi	r24, 0x00	; 0
    3be4:	0e 94 dd 2a 	call	0x55ba	; 0x55ba <_ZN6ns_lcd11SetPositionEhh>
    3be8:	8c 87       	std	Y+12, r24	; 0x0c
    3bea:	2c 81       	ldd	r18, Y+4	; 0x04
    3bec:	30 e0       	ldi	r19, 0x00	; 0
    3bee:	40 e0       	ldi	r20, 0x00	; 0
    3bf0:	50 e0       	ldi	r21, 0x00	; 0
    3bf2:	62 e0       	ldi	r22, 0x02	; 2
    3bf4:	ce 01       	movw	r24, r28
    3bf6:	0c 96       	adiw	r24, 0x0c	; 12
    3bf8:	0e 94 f4 2b 	call	0x57e8	; 0x57e8 <_ZN6ns_lcd6DigitZEPhhl>
    3bfc:	6a e3       	ldi	r22, 0x3A	; 58
    3bfe:	ce 01       	movw	r24, r28
    3c00:	0c 96       	adiw	r24, 0x0c	; 12
    3c02:	0e 94 44 2b 	call	0x5688	; 0x5688 <_ZN6ns_lcd7PutCharEPhc>
    3c06:	2d 81       	ldd	r18, Y+5	; 0x05
    3c08:	30 e0       	ldi	r19, 0x00	; 0
    3c0a:	40 e0       	ldi	r20, 0x00	; 0
    3c0c:	50 e0       	ldi	r21, 0x00	; 0
    3c0e:	62 e0       	ldi	r22, 0x02	; 2
    3c10:	ce 01       	movw	r24, r28
    3c12:	0c 96       	adiw	r24, 0x0c	; 12
    3c14:	0e 94 f4 2b 	call	0x57e8	; 0x57e8 <_ZN6ns_lcd6DigitZEPhhl>
    3c18:	8c 85       	ldd	r24, Y+12	; 0x0c
    3c1a:	8f 5f       	subi	r24, 0xFF	; 255
    3c1c:	8c 87       	std	Y+12, r24	; 0x0c
    3c1e:	2e 81       	ldd	r18, Y+6	; 0x06
    3c20:	3f 81       	ldd	r19, Y+7	; 0x07
    3c22:	40 e0       	ldi	r20, 0x00	; 0
    3c24:	50 e0       	ldi	r21, 0x00	; 0
    3c26:	63 e0       	ldi	r22, 0x03	; 3
    3c28:	ce 01       	movw	r24, r28
    3c2a:	0c 96       	adiw	r24, 0x0c	; 12
    3c2c:	0e 94 f4 2b 	call	0x57e8	; 0x57e8 <_ZN6ns_lcd6DigitZEPhhl>
    3c30:	8c 85       	ldd	r24, Y+12	; 0x0c
    3c32:	8f 5f       	subi	r24, 0xFF	; 255
    3c34:	8c 87       	std	Y+12, r24	; 0x0c
    3c36:	28 85       	ldd	r18, Y+8	; 0x08
    3c38:	39 85       	ldd	r19, Y+9	; 0x09
    3c3a:	40 e0       	ldi	r20, 0x00	; 0
    3c3c:	50 e0       	ldi	r21, 0x00	; 0
    3c3e:	65 e0       	ldi	r22, 0x05	; 5
    3c40:	ce 01       	movw	r24, r28
    3c42:	0c 96       	adiw	r24, 0x0c	; 12
    3c44:	0e 94 f4 2b 	call	0x57e8	; 0x57e8 <_ZN6ns_lcd6DigitZEPhhl>
    3c48:	8a 85       	ldd	r24, Y+10	; 0x0a
    3c4a:	81 11       	cpse	r24, r1
    3c4c:	06 c0       	rjmp	.+12     	; 0x3c5a <_ZN7ns_menu10view_arcShEv+0xd2>
    3c4e:	64 e4       	ldi	r22, 0x44	; 68
    3c50:	ce 01       	movw	r24, r28
    3c52:	0c 96       	adiw	r24, 0x0c	; 12
    3c54:	0e 94 44 2b 	call	0x5688	; 0x5688 <_ZN6ns_lcd7PutCharEPhc>
    3c58:	05 c0       	rjmp	.+10     	; 0x3c64 <_ZN7ns_menu10view_arcShEv+0xdc>
    3c5a:	60 e2       	ldi	r22, 0x20	; 32
    3c5c:	ce 01       	movw	r24, r28
    3c5e:	0c 96       	adiw	r24, 0x0c	; 12
    3c60:	0e 94 44 2b 	call	0x5688	; 0x5688 <_ZN6ns_lcd7PutCharEPhc>
    3c64:	60 e0       	ldi	r22, 0x00	; 0
    3c66:	86 e0       	ldi	r24, 0x06	; 6
    3c68:	0e 94 dd 2a 	call	0x55ba	; 0x55ba <_ZN6ns_lcd11SetPositionEhh>
    3c6c:	8c 87       	std	Y+12, r24	; 0x0c
    3c6e:	2b 81       	ldd	r18, Y+3	; 0x03
    3c70:	30 e0       	ldi	r19, 0x00	; 0
    3c72:	40 e0       	ldi	r20, 0x00	; 0
    3c74:	50 e0       	ldi	r21, 0x00	; 0
    3c76:	62 e0       	ldi	r22, 0x02	; 2
    3c78:	ce 01       	movw	r24, r28
    3c7a:	0c 96       	adiw	r24, 0x0c	; 12
    3c7c:	0e 94 f4 2b 	call	0x57e8	; 0x57e8 <_ZN6ns_lcd6DigitZEPhhl>
    3c80:	6d e2       	ldi	r22, 0x2D	; 45
    3c82:	ce 01       	movw	r24, r28
    3c84:	0c 96       	adiw	r24, 0x0c	; 12
    3c86:	0e 94 44 2b 	call	0x5688	; 0x5688 <_ZN6ns_lcd7PutCharEPhc>
    3c8a:	2a 81       	ldd	r18, Y+2	; 0x02
    3c8c:	30 e0       	ldi	r19, 0x00	; 0
    3c8e:	40 e0       	ldi	r20, 0x00	; 0
    3c90:	50 e0       	ldi	r21, 0x00	; 0
    3c92:	62 e0       	ldi	r22, 0x02	; 2
    3c94:	ce 01       	movw	r24, r28
    3c96:	0c 96       	adiw	r24, 0x0c	; 12
    3c98:	0e 94 f4 2b 	call	0x57e8	; 0x57e8 <_ZN6ns_lcd6DigitZEPhhl>
    3c9c:	6c ea       	ldi	r22, 0xAC	; 172
    3c9e:	71 e0       	ldi	r23, 0x01	; 1
    3ca0:	ce 01       	movw	r24, r28
    3ca2:	0c 96       	adiw	r24, 0x0c	; 12
    3ca4:	0e 94 b2 2b 	call	0x5764	; 0x5764 <_ZN6ns_lcd8String_PEPhPKc>
    3ca8:	29 81       	ldd	r18, Y+1	; 0x01
    3caa:	30 e0       	ldi	r19, 0x00	; 0
    3cac:	40 e0       	ldi	r20, 0x00	; 0
    3cae:	50 e0       	ldi	r21, 0x00	; 0
    3cb0:	62 e0       	ldi	r22, 0x02	; 2
    3cb2:	ce 01       	movw	r24, r28
    3cb4:	0c 96       	adiw	r24, 0x0c	; 12
    3cb6:	0e 94 f4 2b 	call	0x57e8	; 0x57e8 <_ZN6ns_lcd6DigitZEPhhl>
    3cba:	2c 96       	adiw	r28, 0x0c	; 12
    3cbc:	0f b6       	in	r0, 0x3f	; 63
    3cbe:	f8 94       	cli
    3cc0:	de bf       	out	0x3e, r29	; 62
    3cc2:	0f be       	out	0x3f, r0	; 63
    3cc4:	cd bf       	out	0x3d, r28	; 61
    3cc6:	df 91       	pop	r29
    3cc8:	cf 91       	pop	r28
    3cca:	08 95       	ret

00003ccc <_ZN7ns_menu8view_arcEh>:
    3ccc:	10 92 bf 01 	sts	0x01BF, r1	; 0x8001bf <_ZN7ns_menu7timeOutE>
    3cd0:	10 92 c0 01 	sts	0x01C0, r1	; 0x8001c0 <_ZN7ns_menu7timeOutE+0x1>
    3cd4:	10 92 c1 01 	sts	0x01C1, r1	; 0x8001c1 <_ZN7ns_menu7timeOutE+0x2>
    3cd8:	10 92 c2 01 	sts	0x01C2, r1	; 0x8001c2 <_ZN7ns_menu7timeOutE+0x3>
    3cdc:	e0 91 de 01 	lds	r30, 0x01DE	; 0x8001de <key4>
    3ce0:	f0 91 df 01 	lds	r31, 0x01DF	; 0x8001df <key4+0x1>
    3ce4:	10 82       	st	Z, r1
    3ce6:	0e 94 b1 29 	call	0x5362	; 0x5362 <_ZN6ns_lcd5ClearEv>
    3cea:	60 e0       	ldi	r22, 0x00	; 0
    3cec:	80 e0       	ldi	r24, 0x00	; 0
    3cee:	0e 94 dd 2a 	call	0x55ba	; 0x55ba <_ZN6ns_lcd11SetPositionEhh>
    3cf2:	67 ea       	ldi	r22, 0xA7	; 167
    3cf4:	71 e0       	ldi	r23, 0x01	; 1
    3cf6:	0e 94 e7 2b 	call	0x57ce	; 0x57ce <_ZN6ns_lcd8String_PEhPKc>
    3cfa:	4f b7       	in	r20, 0x3f	; 63
    3cfc:	f8 94       	cli
    3cfe:	20 91 3d 01 	lds	r18, 0x013D	; 0x80013d <_ZN10ns_archive3lenE>
    3d02:	30 91 3e 01 	lds	r19, 0x013E	; 0x80013e <_ZN10ns_archive3lenE+0x1>
    3d06:	2c 32       	cpi	r18, 0x2C	; 44
    3d08:	81 e0       	ldi	r24, 0x01	; 1
    3d0a:	38 07       	cpc	r19, r24
    3d0c:	18 f0       	brcs	.+6      	; 0x3d14 <_ZN7ns_menu8view_arcEh+0x48>
    3d0e:	60 e0       	ldi	r22, 0x00	; 0
    3d10:	70 e0       	ldi	r23, 0x00	; 0
    3d12:	01 c0       	rjmp	.+2      	; 0x3d16 <_ZN7ns_menu8view_arcEh+0x4a>
    3d14:	b9 01       	movw	r22, r18
    3d16:	80 91 3f 01 	lds	r24, 0x013F	; 0x80013f <_ZN10ns_archive3idxE>
    3d1a:	90 91 40 01 	lds	r25, 0x0140	; 0x800140 <_ZN10ns_archive3idxE+0x1>
    3d1e:	82 17       	cp	r24, r18
    3d20:	93 07       	cpc	r25, r19
    3d22:	48 f4       	brcc	.+18     	; 0x3d36 <_ZN7ns_menu8view_arcEh+0x6a>
    3d24:	84 5d       	subi	r24, 0xD4	; 212
    3d26:	9e 4f       	sbci	r25, 0xFE	; 254
    3d28:	86 1b       	sub	r24, r22
    3d2a:	97 0b       	sbc	r25, r23
    3d2c:	90 93 9e 01 	sts	0x019E, r25	; 0x80019e <_ZN7ns_menu11viewarc_idxE+0x1>
    3d30:	80 93 9d 01 	sts	0x019D, r24	; 0x80019d <_ZN7ns_menu11viewarc_idxE>
    3d34:	27 c0       	rjmp	.+78     	; 0x3d84 <_ZN7ns_menu8view_arcEh+0xb8>
    3d36:	86 1b       	sub	r24, r22
    3d38:	97 0b       	sbc	r25, r23
    3d3a:	90 93 9e 01 	sts	0x019E, r25	; 0x80019e <_ZN7ns_menu11viewarc_idxE+0x1>
    3d3e:	80 93 9d 01 	sts	0x019D, r24	; 0x80019d <_ZN7ns_menu11viewarc_idxE>
    3d42:	20 c0       	rjmp	.+64     	; 0x3d84 <_ZN7ns_menu8view_arcEh+0xb8>
    3d44:	80 91 3d 01 	lds	r24, 0x013D	; 0x80013d <_ZN10ns_archive3lenE>
    3d48:	90 91 3e 01 	lds	r25, 0x013E	; 0x80013e <_ZN10ns_archive3lenE+0x1>
    3d4c:	89 2b       	or	r24, r25
    3d4e:	c1 f4       	brne	.+48     	; 0x3d80 <_ZN7ns_menu8view_arcEh+0xb4>
    3d50:	61 e0       	ldi	r22, 0x01	; 1
    3d52:	80 e0       	ldi	r24, 0x00	; 0
    3d54:	0e 94 dd 2a 	call	0x55ba	; 0x55ba <_ZN6ns_lcd11SetPositionEhh>
    3d58:	6c e9       	ldi	r22, 0x9C	; 156
    3d5a:	71 e0       	ldi	r23, 0x01	; 1
    3d5c:	0e 94 e7 2b 	call	0x57ce	; 0x57ce <_ZN6ns_lcd8String_PEhPKc>
    3d60:	80 e1       	ldi	r24, 0x10	; 16
    3d62:	97 e2       	ldi	r25, 0x27	; 39
    3d64:	a0 e0       	ldi	r26, 0x00	; 0
    3d66:	b0 e0       	ldi	r27, 0x00	; 0
    3d68:	80 93 bf 01 	sts	0x01BF, r24	; 0x8001bf <_ZN7ns_menu7timeOutE>
    3d6c:	90 93 c0 01 	sts	0x01C0, r25	; 0x8001c0 <_ZN7ns_menu7timeOutE+0x1>
    3d70:	a0 93 c1 01 	sts	0x01C1, r26	; 0x8001c1 <_ZN7ns_menu7timeOutE+0x2>
    3d74:	b0 93 c2 01 	sts	0x01C2, r27	; 0x8001c2 <_ZN7ns_menu7timeOutE+0x3>
    3d78:	84 e0       	ldi	r24, 0x04	; 4
    3d7a:	0c 94 8f 14 	jmp	0x291e	; 0x291e <_ZN7ns_menu7SetModeEh>
    3d7e:	08 95       	ret
    3d80:	03 cf       	rjmp	.-506    	; 0x3b88 <_ZN7ns_menu10view_arcShEv>
    3d82:	08 95       	ret
    3d84:	4f bf       	out	0x3f, r20	; 63
    3d86:	10 92 9c 01 	sts	0x019C, r1	; 0x80019c <_ZN7ns_menu9viewarc_nE+0x1>
    3d8a:	10 92 9b 01 	sts	0x019B, r1	; 0x80019b <_ZN7ns_menu9viewarc_nE>
    3d8e:	80 e0       	ldi	r24, 0x00	; 0
    3d90:	90 e0       	ldi	r25, 0x00	; 0
    3d92:	0e 94 e3 32 	call	0x65c6	; 0x65c6 <eeprom_read_word>
    3d96:	89 2b       	or	r24, r25
    3d98:	a9 f2       	breq	.-86     	; 0x3d44 <_ZN7ns_menu8view_arcEh+0x78>
    3d9a:	f2 cf       	rjmp	.-28     	; 0x3d80 <_ZN7ns_menu8view_arcEh+0xb4>

00003d9c <_ZN7ns_menu10view_arcEnEh>:
    3d9c:	cf 93       	push	r28
    3d9e:	df 93       	push	r29
    3da0:	e0 91 de 01 	lds	r30, 0x01DE	; 0x8001de <key4>
    3da4:	f0 91 df 01 	lds	r31, 0x01DF	; 0x8001df <key4+0x1>
    3da8:	10 82       	st	Z, r1
    3daa:	20 91 9b 01 	lds	r18, 0x019B	; 0x80019b <_ZN7ns_menu9viewarc_nE>
    3dae:	30 91 9c 01 	lds	r19, 0x019C	; 0x80019c <_ZN7ns_menu9viewarc_nE+0x1>
    3db2:	80 91 9d 01 	lds	r24, 0x019D	; 0x80019d <_ZN7ns_menu11viewarc_idxE>
    3db6:	90 91 9e 01 	lds	r25, 0x019E	; 0x80019e <_ZN7ns_menu11viewarc_idxE+0x1>
    3dba:	28 0f       	add	r18, r24
    3dbc:	39 1f       	adc	r19, r25
    3dbe:	2c 32       	cpi	r18, 0x2C	; 44
    3dc0:	81 e0       	ldi	r24, 0x01	; 1
    3dc2:	38 07       	cpc	r19, r24
    3dc4:	30 f0       	brcs	.+12     	; 0x3dd2 <_ZN7ns_menu10view_arcEnEh+0x36>
    3dc6:	2c 52       	subi	r18, 0x2C	; 44
    3dc8:	31 40       	sbci	r19, 0x01	; 1
    3dca:	2c 32       	cpi	r18, 0x2C	; 44
    3dcc:	81 e0       	ldi	r24, 0x01	; 1
    3dce:	38 07       	cpc	r19, r24
    3dd0:	d0 f7       	brcc	.-12     	; 0x3dc6 <_ZN7ns_menu10view_arcEnEh+0x2a>
    3dd2:	8b e0       	ldi	r24, 0x0B	; 11
    3dd4:	82 9f       	mul	r24, r18
    3dd6:	e0 01       	movw	r28, r0
    3dd8:	83 9f       	mul	r24, r19
    3dda:	d0 0d       	add	r29, r0
    3ddc:	11 24       	eor	r1, r1
    3dde:	c3 5f       	subi	r28, 0xF3	; 243
    3de0:	df 4f       	sbci	r29, 0xFF	; 255
    3de2:	ce 01       	movw	r24, r28
    3de4:	0e 94 db 32 	call	0x65b6	; 0x65b6 <eeprom_read_byte>
    3de8:	88 23       	and	r24, r24
    3dea:	29 f0       	breq	.+10     	; 0x3df6 <_ZN7ns_menu10view_arcEnEh+0x5a>
    3dec:	60 e0       	ldi	r22, 0x00	; 0
    3dee:	ce 01       	movw	r24, r28
    3df0:	0e 94 e8 32 	call	0x65d0	; 0x65d0 <eeprom_update_byte>
    3df4:	04 c0       	rjmp	.+8      	; 0x3dfe <_ZN7ns_menu10view_arcEnEh+0x62>
    3df6:	61 e0       	ldi	r22, 0x01	; 1
    3df8:	ce 01       	movw	r24, r28
    3dfa:	0e 94 e8 32 	call	0x65d0	; 0x65d0 <eeprom_update_byte>
    3dfe:	c4 de       	rcall	.-632    	; 0x3b88 <_ZN7ns_menu10view_arcShEv>
    3e00:	df 91       	pop	r29
    3e02:	cf 91       	pop	r28
    3e04:	08 95       	ret

00003e06 <_ZN7ns_menu13view_arcMinusEh>:
    3e06:	e0 91 de 01 	lds	r30, 0x01DE	; 0x8001de <key4>
    3e0a:	f0 91 df 01 	lds	r31, 0x01DF	; 0x8001df <key4+0x1>
    3e0e:	81 e0       	ldi	r24, 0x01	; 1
    3e10:	80 83       	st	Z, r24
    3e12:	80 91 9b 01 	lds	r24, 0x019B	; 0x80019b <_ZN7ns_menu9viewarc_nE>
    3e16:	90 91 9c 01 	lds	r25, 0x019C	; 0x80019c <_ZN7ns_menu9viewarc_nE+0x1>
    3e1a:	00 97       	sbiw	r24, 0x00	; 0
    3e1c:	29 f0       	breq	.+10     	; 0x3e28 <_ZN7ns_menu13view_arcMinusEh+0x22>
    3e1e:	01 97       	sbiw	r24, 0x01	; 1
    3e20:	90 93 9c 01 	sts	0x019C, r25	; 0x80019c <_ZN7ns_menu9viewarc_nE+0x1>
    3e24:	80 93 9b 01 	sts	0x019B, r24	; 0x80019b <_ZN7ns_menu9viewarc_nE>
    3e28:	af ce       	rjmp	.-674    	; 0x3b88 <_ZN7ns_menu10view_arcShEv>
    3e2a:	08 95       	ret

00003e2c <_ZN7ns_menu12view_arcPlusEh>:
    3e2c:	e0 91 de 01 	lds	r30, 0x01DE	; 0x8001de <key4>
    3e30:	f0 91 df 01 	lds	r31, 0x01DF	; 0x8001df <key4+0x1>
    3e34:	81 e0       	ldi	r24, 0x01	; 1
    3e36:	80 83       	st	Z, r24
    3e38:	80 e0       	ldi	r24, 0x00	; 0
    3e3a:	90 e0       	ldi	r25, 0x00	; 0
    3e3c:	0e 94 e3 32 	call	0x65c6	; 0x65c6 <eeprom_read_word>
    3e40:	40 91 3d 01 	lds	r20, 0x013D	; 0x80013d <_ZN10ns_archive3lenE>
    3e44:	50 91 3e 01 	lds	r21, 0x013E	; 0x80013e <_ZN10ns_archive3lenE+0x1>
    3e48:	20 91 9b 01 	lds	r18, 0x019B	; 0x80019b <_ZN7ns_menu9viewarc_nE>
    3e4c:	30 91 9c 01 	lds	r19, 0x019C	; 0x80019c <_ZN7ns_menu9viewarc_nE+0x1>
    3e50:	84 17       	cp	r24, r20
    3e52:	95 07       	cpc	r25, r21
    3e54:	08 f4       	brcc	.+2      	; 0x3e58 <_ZN7ns_menu12view_arcPlusEh+0x2c>
    3e56:	ca 01       	movw	r24, r20
    3e58:	01 97       	sbiw	r24, 0x01	; 1
    3e5a:	28 17       	cp	r18, r24
    3e5c:	39 07       	cpc	r19, r25
    3e5e:	30 f4       	brcc	.+12     	; 0x3e6c <_ZN7ns_menu12view_arcPlusEh+0x40>
    3e60:	2f 5f       	subi	r18, 0xFF	; 255
    3e62:	3f 4f       	sbci	r19, 0xFF	; 255
    3e64:	30 93 9c 01 	sts	0x019C, r19	; 0x80019c <_ZN7ns_menu9viewarc_nE+0x1>
    3e68:	20 93 9b 01 	sts	0x019B, r18	; 0x80019b <_ZN7ns_menu9viewarc_nE>
    3e6c:	8d ce       	rjmp	.-742    	; 0x3b88 <_ZN7ns_menu10view_arcShEv>
    3e6e:	08 95       	ret

00003e70 <_ZN7ns_menu12CorCurTubeShEv>:
		uint8_t corCurTube_h, corCurTube_l;
		//int8_t  corCurTube_Cor;
		uint16_t corCurTube_dlina;
		uint16_t corCurTube_base;
		void CorCurTubeSh()
		{
    3e70:	cf 92       	push	r12
    3e72:	df 92       	push	r13
    3e74:	ef 92       	push	r14
    3e76:	ff 92       	push	r15
			scr::DigitZ(scr::SetPosition(4, 1), 5, corCurTube_base);
    3e78:	c0 90 96 01 	lds	r12, 0x0196	; 0x800196 <_ZN7ns_menu15corCurTube_baseE>
    3e7c:	d0 90 97 01 	lds	r13, 0x0197	; 0x800197 <_ZN7ns_menu15corCurTube_baseE+0x1>
    3e80:	e1 2c       	mov	r14, r1
    3e82:	f1 2c       	mov	r15, r1
    3e84:	61 e0       	ldi	r22, 0x01	; 1
    3e86:	84 e0       	ldi	r24, 0x04	; 4
    3e88:	0e 94 dd 2a 	call	0x55ba	; 0x55ba <_ZN6ns_lcd11SetPositionEhh>
    3e8c:	a7 01       	movw	r20, r14
    3e8e:	96 01       	movw	r18, r12
    3e90:	65 e0       	ldi	r22, 0x05	; 5
    3e92:	0e 94 5f 2c 	call	0x58be	; 0x58be <_ZN6ns_lcd6DigitZEhhl>
			//scr::DigitZ(scr::SetPosition(10, 1), 5, corCurTube_dlina + corCurTube_Cor);
			scr::DigitZ(scr::SetPosition(10, 1), 5, corCurTube_dlina);
    3e96:	c0 90 98 01 	lds	r12, 0x0198	; 0x800198 <_ZN7ns_menu16corCurTube_dlinaE>
    3e9a:	d0 90 99 01 	lds	r13, 0x0199	; 0x800199 <_ZN7ns_menu16corCurTube_dlinaE+0x1>
    3e9e:	e1 2c       	mov	r14, r1
    3ea0:	f1 2c       	mov	r15, r1
    3ea2:	61 e0       	ldi	r22, 0x01	; 1
    3ea4:	8a e0       	ldi	r24, 0x0A	; 10
    3ea6:	0e 94 dd 2a 	call	0x55ba	; 0x55ba <_ZN6ns_lcd11SetPositionEhh>
    3eaa:	a7 01       	movw	r20, r14
    3eac:	96 01       	movw	r18, r12
    3eae:	65 e0       	ldi	r22, 0x05	; 5
    3eb0:	0e 94 5f 2c 	call	0x58be	; 0x58be <_ZN6ns_lcd6DigitZEhhl>
		}
    3eb4:	ff 90       	pop	r15
    3eb6:	ef 90       	pop	r14
    3eb8:	df 90       	pop	r13
    3eba:	cf 90       	pop	r12
    3ebc:	08 95       	ret

00003ebe <_ZN7ns_menu10CorCurTubeEh>:
		void CorCurTube(uint8_t k)
		{
    3ebe:	cf 92       	push	r12
    3ec0:	df 92       	push	r13
    3ec2:	ef 92       	push	r14
    3ec4:	ff 92       	push	r15
			CRITICAL_SECTION { timeOut = 0; }
    3ec6:	8f b7       	in	r24, 0x3f	; 63
    return 1;
}

static __inline__ uint8_t __iCliRetVal(void)
{
    cli();
    3ec8:	f8 94       	cli
    3eca:	10 92 bf 01 	sts	0x01BF, r1	; 0x8001bf <_ZN7ns_menu7timeOutE>
    3ece:	10 92 c0 01 	sts	0x01C0, r1	; 0x8001c0 <_ZN7ns_menu7timeOutE+0x1>
    3ed2:	10 92 c1 01 	sts	0x01C1, r1	; 0x8001c1 <_ZN7ns_menu7timeOutE+0x2>
    3ed6:	10 92 c2 01 	sts	0x01C2, r1	; 0x8001c2 <_ZN7ns_menu7timeOutE+0x3>
    (void)__s;
}

static __inline__ void __iRestore(const  uint8_t *__s)
{
    SREG = *__s;
    3eda:	8f bf       	out	0x3f, r24	; 63
			key4->autoRepeat = false;
    3edc:	e0 91 de 01 	lds	r30, 0x01DE	; 0x8001de <key4>
    3ee0:	f0 91 df 01 	lds	r31, 0x01DF	; 0x8001df <key4+0x1>
    3ee4:	10 82       	st	Z, r1
			timeOut = 0;
    3ee6:	10 92 bf 01 	sts	0x01BF, r1	; 0x8001bf <_ZN7ns_menu7timeOutE>
    3eea:	10 92 c0 01 	sts	0x01C0, r1	; 0x8001c0 <_ZN7ns_menu7timeOutE+0x1>
    3eee:	10 92 c1 01 	sts	0x01C1, r1	; 0x8001c1 <_ZN7ns_menu7timeOutE+0x2>
    3ef2:	10 92 c2 01 	sts	0x01C2, r1	; 0x8001c2 <_ZN7ns_menu7timeOutE+0x3>
			scr::Clear();
    3ef6:	0e 94 b1 29 	call	0x5362	; 0x5362 <_ZN6ns_lcd5ClearEv>
			scr::String_P(scr::SetPosition(0, 0), PSTR("Edit len"));
    3efa:	60 e0       	ldi	r22, 0x00	; 0
    3efc:	80 e0       	ldi	r24, 0x00	; 0
    3efe:	0e 94 dd 2a 	call	0x55ba	; 0x55ba <_ZN6ns_lcd11SetPositionEhh>
    3f02:	63 e9       	ldi	r22, 0x93	; 147
    3f04:	71 e0       	ldi	r23, 0x01	; 1
    3f06:	0e 94 e7 2b 	call	0x57ce	; 0x57ce <_ZN6ns_lcd8String_PEhPKc>
			if ( (ns_archive::len == 0) && (eeprom_read_word(&ns_archive::lenEE) == 0) )
    3f0a:	80 91 3d 01 	lds	r24, 0x013D	; 0x80013d <_ZN10ns_archive3lenE>
    3f0e:	90 91 3e 01 	lds	r25, 0x013E	; 0x80013e <_ZN10ns_archive3lenE+0x1>
    3f12:	89 2b       	or	r24, r25
    3f14:	49 f4       	brne	.+18     	; 0x3f28 <_ZN7ns_menu10CorCurTubeEh+0x6a>
    3f16:	80 e0       	ldi	r24, 0x00	; 0
    3f18:	90 e0       	ldi	r25, 0x00	; 0
    3f1a:	0e 94 e3 32 	call	0x65c6	; 0x65c6 <eeprom_read_word>
    3f1e:	89 2b       	or	r24, r25
    3f20:	19 f4       	brne	.+6      	; 0x3f28 <_ZN7ns_menu10CorCurTubeEh+0x6a>
			{
				//
				SetMode(MAIN);
    3f22:	80 e0       	ldi	r24, 0x00	; 0
    3f24:	0e 94 8f 14 	call	0x291e	; 0x291e <_ZN7ns_menu7SetModeEh>
			}
			corCurTube_idx = ns_archive::idx;
    3f28:	80 91 3f 01 	lds	r24, 0x013F	; 0x80013f <_ZN10ns_archive3idxE>
    3f2c:	90 91 40 01 	lds	r25, 0x0140	; 0x800140 <_ZN10ns_archive3idxE+0x1>
			if (corCurTube_idx == 0) corCurTube_idx = ARCHIVE_LEN - 1;
    3f30:	00 97       	sbiw	r24, 0x00	; 0
    3f32:	39 f4       	brne	.+14     	; 0x3f42 <_ZN7ns_menu10CorCurTubeEh+0x84>
    3f34:	8b e2       	ldi	r24, 0x2B	; 43
    3f36:	91 e0       	ldi	r25, 0x01	; 1
    3f38:	90 93 a0 01 	sts	0x01A0, r25	; 0x8001a0 <_ZN7ns_menu14corCurTube_idxE+0x1>
    3f3c:	80 93 9f 01 	sts	0x019F, r24	; 0x80019f <_ZN7ns_menu14corCurTube_idxE>
    3f40:	05 c0       	rjmp	.+10     	; 0x3f4c <_ZN7ns_menu10CorCurTubeEh+0x8e>
			else corCurTube_idx--;
    3f42:	01 97       	sbiw	r24, 0x01	; 1
    3f44:	90 93 a0 01 	sts	0x01A0, r25	; 0x8001a0 <_ZN7ns_menu14corCurTube_idxE+0x1>
    3f48:	80 93 9f 01 	sts	0x019F, r24	; 0x80019f <_ZN7ns_menu14corCurTube_idxE>
			eeprom_read_block(&corCurTube_cell, &ns_archive::archive[corCurTube_idx], sizeof(archiveStruct));
    3f4c:	80 91 9f 01 	lds	r24, 0x019F	; 0x80019f <_ZN7ns_menu14corCurTube_idxE>
    3f50:	90 91 a0 01 	lds	r25, 0x01A0	; 0x8001a0 <_ZN7ns_menu14corCurTube_idxE+0x1>
    3f54:	2b e0       	ldi	r18, 0x0B	; 11
    3f56:	28 9f       	mul	r18, r24
    3f58:	b0 01       	movw	r22, r0
    3f5a:	29 9f       	mul	r18, r25
    3f5c:	70 0d       	add	r23, r0
    3f5e:	11 24       	eor	r1, r1
    3f60:	6c 5f       	subi	r22, 0xFC	; 252
    3f62:	7f 4f       	sbci	r23, 0xFF	; 255
    3f64:	4b e0       	ldi	r20, 0x0B	; 11
    3f66:	50 e0       	ldi	r21, 0x00	; 0
    3f68:	81 ea       	ldi	r24, 0xA1	; 161
    3f6a:	91 e0       	ldi	r25, 0x01	; 1
    3f6c:	0e 94 cb 32 	call	0x6596	; 0x6596 <eeprom_read_block>
			uint8_t bas;
			if (corCurTube_cell.sqBas < 0) bas = -corCurTube_cell.sqBas;
    3f70:	90 91 ab 01 	lds	r25, 0x01AB	; 0x8001ab <_ZN7ns_menu15corCurTube_cellE+0xa>
    3f74:	97 fd       	sbrc	r25, 7
    3f76:	91 95       	neg	r25
			else bas = corCurTube_cell.sqBas;
			//corCurTube_h = bas / 10;
			//scr::DigitZ(scr::SetPosition(0, 1), 2, corCurTube_cell.sqBas);
			corCurTube_l = (bas % 10);
    3f78:	8d ec       	ldi	r24, 0xCD	; 205
    3f7a:	98 9f       	mul	r25, r24
    3f7c:	81 2d       	mov	r24, r1
    3f7e:	11 24       	eor	r1, r1
    3f80:	86 95       	lsr	r24
    3f82:	86 95       	lsr	r24
    3f84:	86 95       	lsr	r24
    3f86:	88 0f       	add	r24, r24
    3f88:	28 2f       	mov	r18, r24
    3f8a:	22 0f       	add	r18, r18
    3f8c:	22 0f       	add	r18, r18
    3f8e:	82 0f       	add	r24, r18
    3f90:	98 1b       	sub	r25, r24
    3f92:	90 93 9a 01 	sts	0x019A, r25	; 0x80019a <_ZN7ns_menu12corCurTube_lE>
			//eeprom_read_block(&corCurTube_Cor, &ns_vg::eeDistanceCor[corCurTube_h][corCurTube_l], 1);
			corCurTube_dlina = corCurTube_cell.len;
    3f96:	e0 90 a8 01 	lds	r14, 0x01A8	; 0x8001a8 <_ZN7ns_menu15corCurTube_cellE+0x7>
    3f9a:	f0 90 a9 01 	lds	r15, 0x01A9	; 0x8001a9 <_ZN7ns_menu15corCurTube_cellE+0x8>
    3f9e:	f0 92 99 01 	sts	0x0199, r15	; 0x800199 <_ZN7ns_menu16corCurTube_dlinaE+0x1>
    3fa2:	e0 92 98 01 	sts	0x0198, r14	; 0x800198 <_ZN7ns_menu16corCurTube_dlinaE>
			scr::DigitZ(scr::SetPosition(10, 0), 5, corCurTube_dlina);
    3fa6:	60 e0       	ldi	r22, 0x00	; 0
    3fa8:	8a e0       	ldi	r24, 0x0A	; 10
    3faa:	0e 94 dd 2a 	call	0x55ba	; 0x55ba <_ZN6ns_lcd11SetPositionEhh>
    3fae:	97 01       	movw	r18, r14
    3fb0:	40 e0       	ldi	r20, 0x00	; 0
    3fb2:	50 e0       	ldi	r21, 0x00	; 0
    3fb4:	65 e0       	ldi	r22, 0x05	; 5
    3fb6:	0e 94 5f 2c 	call	0x58be	; 0x58be <_ZN6ns_lcd6DigitZEhhl>
			//corCurTube_dlina -= corCurTube_Cor;
			{
				corCurTube_base = eeprom_read_word(&ns_vg::eeDistance[corCurTube_l]) - eeprom_read_word(&ns_vg::eeDistance[0]);
    3fba:	80 91 9a 01 	lds	r24, 0x019A	; 0x80019a <_ZN7ns_menu12corCurTube_lE>
    3fbe:	90 e0       	ldi	r25, 0x00	; 0
    3fc0:	88 0f       	add	r24, r24
    3fc2:	99 1f       	adc	r25, r25
    3fc4:	8d 50       	subi	r24, 0x0D	; 13
    3fc6:	93 4f       	sbci	r25, 0xF3	; 243
    3fc8:	0e 94 e3 32 	call	0x65c6	; 0x65c6 <eeprom_read_word>
    3fcc:	7c 01       	movw	r14, r24
    3fce:	83 ef       	ldi	r24, 0xF3	; 243
    3fd0:	9c e0       	ldi	r25, 0x0C	; 12
    3fd2:	0e 94 e3 32 	call	0x65c6	; 0x65c6 <eeprom_read_word>
    3fd6:	e8 1a       	sub	r14, r24
    3fd8:	f9 0a       	sbc	r15, r25
    3fda:	f0 92 97 01 	sts	0x0197, r15	; 0x800197 <_ZN7ns_menu15corCurTube_baseE+0x1>
    3fde:	e0 92 96 01 	sts	0x0196, r14	; 0x800196 <_ZN7ns_menu15corCurTube_baseE>
				int16_t tmpD0;
				eeprom_read_block(&tmpDn, &ns_vg::eeDistance[corCurTube_l], sizeof(int16_t) );
				eeprom_read_block(&tmpD0, &ns_vg::eeDistance[0], sizeof(int16_t) );
				corCurTube_base = tmpDn - tmpD0;*/
			}
			scr::String_P(scr::SetPosition(0, 1), PSTR("SQ"));
    3fe2:	61 e0       	ldi	r22, 0x01	; 1
    3fe4:	80 e0       	ldi	r24, 0x00	; 0
    3fe6:	0e 94 dd 2a 	call	0x55ba	; 0x55ba <_ZN6ns_lcd11SetPositionEhh>
    3fea:	60 e9       	ldi	r22, 0x90	; 144
    3fec:	71 e0       	ldi	r23, 0x01	; 1
    3fee:	0e 94 e7 2b 	call	0x57ce	; 0x57ce <_ZN6ns_lcd8String_PEhPKc>
			scr::DigitZ(scr::SetPosition(2, 1), 1, corCurTube_l+1);
    3ff2:	c0 90 9a 01 	lds	r12, 0x019A	; 0x80019a <_ZN7ns_menu12corCurTube_lE>
    3ff6:	d1 2c       	mov	r13, r1
    3ff8:	8f ef       	ldi	r24, 0xFF	; 255
    3ffa:	c8 1a       	sub	r12, r24
    3ffc:	d8 0a       	sbc	r13, r24
    3ffe:	0d 2c       	mov	r0, r13
    4000:	00 0c       	add	r0, r0
    4002:	ee 08       	sbc	r14, r14
    4004:	ff 08       	sbc	r15, r15
    4006:	61 e0       	ldi	r22, 0x01	; 1
    4008:	82 e0       	ldi	r24, 0x02	; 2
    400a:	0e 94 dd 2a 	call	0x55ba	; 0x55ba <_ZN6ns_lcd11SetPositionEhh>
    400e:	a7 01       	movw	r20, r14
    4010:	96 01       	movw	r18, r12
    4012:	61 e0       	ldi	r22, 0x01	; 1
    4014:	0e 94 5f 2c 	call	0x58be	; 0x58be <_ZN6ns_lcd6DigitZEhhl>
			scr::String_P(scr::SetPosition(3, 1), PSTR(":"));
    4018:	61 e0       	ldi	r22, 0x01	; 1
    401a:	83 e0       	ldi	r24, 0x03	; 3
    401c:	0e 94 dd 2a 	call	0x55ba	; 0x55ba <_ZN6ns_lcd11SetPositionEhh>
    4020:	6e e8       	ldi	r22, 0x8E	; 142
    4022:	71 e0       	ldi	r23, 0x01	; 1
    4024:	0e 94 e7 2b 	call	0x57ce	; 0x57ce <_ZN6ns_lcd8String_PEhPKc>
			scr::String_P(scr::SetPosition(9, 1), PSTR("<"));
    4028:	61 e0       	ldi	r22, 0x01	; 1
    402a:	89 e0       	ldi	r24, 0x09	; 9
    402c:	0e 94 dd 2a 	call	0x55ba	; 0x55ba <_ZN6ns_lcd11SetPositionEhh>
    4030:	6c e8       	ldi	r22, 0x8C	; 140
    4032:	71 e0       	ldi	r23, 0x01	; 1
    4034:	0e 94 e7 2b 	call	0x57ce	; 0x57ce <_ZN6ns_lcd8String_PEhPKc>
			CorCurTubeSh();
    4038:	1b df       	rcall	.-458    	; 0x3e70 <_ZN7ns_menu12CorCurTubeShEv>
			CRITICAL_SECTION { timeOut = TIMEOUT_MENU; }
    403a:	8f b7       	in	r24, 0x3f	; 63
    return 1;
}

static __inline__ uint8_t __iCliRetVal(void)
{
    cli();
    403c:	f8 94       	cli
    403e:	40 e9       	ldi	r20, 0x90	; 144
    4040:	5f e5       	ldi	r21, 0x5F	; 95
    4042:	61 e0       	ldi	r22, 0x01	; 1
    4044:	70 e0       	ldi	r23, 0x00	; 0
    4046:	40 93 bf 01 	sts	0x01BF, r20	; 0x8001bf <_ZN7ns_menu7timeOutE>
    404a:	50 93 c0 01 	sts	0x01C0, r21	; 0x8001c0 <_ZN7ns_menu7timeOutE+0x1>
    404e:	60 93 c1 01 	sts	0x01C1, r22	; 0x8001c1 <_ZN7ns_menu7timeOutE+0x2>
    4052:	70 93 c2 01 	sts	0x01C2, r23	; 0x8001c2 <_ZN7ns_menu7timeOutE+0x3>
    (void)__s;
}

static __inline__ void __iRestore(const  uint8_t *__s)
{
    SREG = *__s;
    4056:	8f bf       	out	0x3f, r24	; 63
		}
    4058:	ff 90       	pop	r15
    405a:	ef 90       	pop	r14
    405c:	df 90       	pop	r13
    405e:	cf 90       	pop	r12
    4060:	08 95       	ret

00004062 <_ZN7ns_menu15CorCurTubeMinusEh>:
		void CorCurTubeMinus(uint8_t k)
		{
			key4->autoRepeat = true;
    4062:	e0 91 de 01 	lds	r30, 0x01DE	; 0x8001de <key4>
    4066:	f0 91 df 01 	lds	r31, 0x01DF	; 0x8001df <key4+0x1>
    406a:	81 e0       	ldi	r24, 0x01	; 1
    406c:	80 83       	st	Z, r24
			//if (corCurTube_Cor > -100)
			{
				//corCurTube_Cor--;
				corCurTube_base--;
    406e:	80 91 96 01 	lds	r24, 0x0196	; 0x800196 <_ZN7ns_menu15corCurTube_baseE>
    4072:	90 91 97 01 	lds	r25, 0x0197	; 0x800197 <_ZN7ns_menu15corCurTube_baseE+0x1>
    4076:	01 97       	sbiw	r24, 0x01	; 1
    4078:	90 93 97 01 	sts	0x0197, r25	; 0x800197 <_ZN7ns_menu15corCurTube_baseE+0x1>
    407c:	80 93 96 01 	sts	0x0196, r24	; 0x800196 <_ZN7ns_menu15corCurTube_baseE>
				corCurTube_dlina--;
    4080:	80 91 98 01 	lds	r24, 0x0198	; 0x800198 <_ZN7ns_menu16corCurTube_dlinaE>
    4084:	90 91 99 01 	lds	r25, 0x0199	; 0x800199 <_ZN7ns_menu16corCurTube_dlinaE+0x1>
    4088:	01 97       	sbiw	r24, 0x01	; 1
    408a:	90 93 99 01 	sts	0x0199, r25	; 0x800199 <_ZN7ns_menu16corCurTube_dlinaE+0x1>
    408e:	80 93 98 01 	sts	0x0198, r24	; 0x800198 <_ZN7ns_menu16corCurTube_dlinaE>
				CorCurTubeSh();
    4092:	ee de       	rcall	.-548    	; 0x3e70 <_ZN7ns_menu12CorCurTubeShEv>
			}
			CRITICAL_SECTION { timeOut = TIMEOUT_MENU; }
    4094:	8f b7       	in	r24, 0x3f	; 63
    return 1;
}

static __inline__ uint8_t __iCliRetVal(void)
{
    cli();
    4096:	f8 94       	cli
    4098:	40 e9       	ldi	r20, 0x90	; 144
    409a:	5f e5       	ldi	r21, 0x5F	; 95
    409c:	61 e0       	ldi	r22, 0x01	; 1
    409e:	70 e0       	ldi	r23, 0x00	; 0
    40a0:	40 93 bf 01 	sts	0x01BF, r20	; 0x8001bf <_ZN7ns_menu7timeOutE>
    40a4:	50 93 c0 01 	sts	0x01C0, r21	; 0x8001c0 <_ZN7ns_menu7timeOutE+0x1>
    40a8:	60 93 c1 01 	sts	0x01C1, r22	; 0x8001c1 <_ZN7ns_menu7timeOutE+0x2>
    40ac:	70 93 c2 01 	sts	0x01C2, r23	; 0x8001c2 <_ZN7ns_menu7timeOutE+0x3>
    (void)__s;
}

static __inline__ void __iRestore(const  uint8_t *__s)
{
    SREG = *__s;
    40b0:	8f bf       	out	0x3f, r24	; 63
    __asm__ volatile ("" ::: "memory");
    40b2:	08 95       	ret

000040b4 <_ZN7ns_menu14CorCurTubePlusEh>:
		}
		void CorCurTubePlus(uint8_t k)
		{
			key4->autoRepeat = true;
    40b4:	e0 91 de 01 	lds	r30, 0x01DE	; 0x8001de <key4>
    40b8:	f0 91 df 01 	lds	r31, 0x01DF	; 0x8001df <key4+0x1>
    40bc:	81 e0       	ldi	r24, 0x01	; 1
    40be:	80 83       	st	Z, r24
			//if (corCurTube_Cor < 100)
			{
				//corCurTube_Cor++;
				corCurTube_base++;
    40c0:	80 91 96 01 	lds	r24, 0x0196	; 0x800196 <_ZN7ns_menu15corCurTube_baseE>
    40c4:	90 91 97 01 	lds	r25, 0x0197	; 0x800197 <_ZN7ns_menu15corCurTube_baseE+0x1>
    40c8:	01 96       	adiw	r24, 0x01	; 1
    40ca:	90 93 97 01 	sts	0x0197, r25	; 0x800197 <_ZN7ns_menu15corCurTube_baseE+0x1>
    40ce:	80 93 96 01 	sts	0x0196, r24	; 0x800196 <_ZN7ns_menu15corCurTube_baseE>
				corCurTube_dlina++;
    40d2:	80 91 98 01 	lds	r24, 0x0198	; 0x800198 <_ZN7ns_menu16corCurTube_dlinaE>
    40d6:	90 91 99 01 	lds	r25, 0x0199	; 0x800199 <_ZN7ns_menu16corCurTube_dlinaE+0x1>
    40da:	01 96       	adiw	r24, 0x01	; 1
    40dc:	90 93 99 01 	sts	0x0199, r25	; 0x800199 <_ZN7ns_menu16corCurTube_dlinaE+0x1>
    40e0:	80 93 98 01 	sts	0x0198, r24	; 0x800198 <_ZN7ns_menu16corCurTube_dlinaE>
				CorCurTubeSh();
    40e4:	c5 de       	rcall	.-630    	; 0x3e70 <_ZN7ns_menu12CorCurTubeShEv>
			}
			CRITICAL_SECTION { timeOut = TIMEOUT_MENU; }
    40e6:	8f b7       	in	r24, 0x3f	; 63
    return 1;
}

static __inline__ uint8_t __iCliRetVal(void)
{
    cli();
    40e8:	f8 94       	cli
    40ea:	40 e9       	ldi	r20, 0x90	; 144
    40ec:	5f e5       	ldi	r21, 0x5F	; 95
    40ee:	61 e0       	ldi	r22, 0x01	; 1
    40f0:	70 e0       	ldi	r23, 0x00	; 0
    40f2:	40 93 bf 01 	sts	0x01BF, r20	; 0x8001bf <_ZN7ns_menu7timeOutE>
    40f6:	50 93 c0 01 	sts	0x01C0, r21	; 0x8001c0 <_ZN7ns_menu7timeOutE+0x1>
    40fa:	60 93 c1 01 	sts	0x01C1, r22	; 0x8001c1 <_ZN7ns_menu7timeOutE+0x2>
    40fe:	70 93 c2 01 	sts	0x01C2, r23	; 0x8001c2 <_ZN7ns_menu7timeOutE+0x3>
    (void)__s;
}

static __inline__ void __iRestore(const  uint8_t *__s)
{
    SREG = *__s;
    4102:	8f bf       	out	0x3f, r24	; 63
    __asm__ volatile ("" ::: "memory");
    4104:	08 95       	ret

00004106 <_ZN7ns_menu19ProtectIntervalViewEv>:
			SetMode(MAIN);
		}
		// ==============================
		uint16_t tmpInterval;
		void ProtectIntervalView()
		{
    4106:	cf 92       	push	r12
    4108:	df 92       	push	r13
    410a:	ef 92       	push	r14
    410c:	ff 92       	push	r15
			if (tmpInterval > 10000) tmpInterval = 10000;
    410e:	80 91 94 01 	lds	r24, 0x0194	; 0x800194 <_ZN7ns_menu11tmpIntervalE>
    4112:	90 91 95 01 	lds	r25, 0x0195	; 0x800195 <_ZN7ns_menu11tmpIntervalE+0x1>
    4116:	81 31       	cpi	r24, 0x11	; 17
    4118:	97 42       	sbci	r25, 0x27	; 39
    411a:	30 f0       	brcs	.+12     	; 0x4128 <_ZN7ns_menu19ProtectIntervalViewEv+0x22>
    411c:	80 e1       	ldi	r24, 0x10	; 16
    411e:	97 e2       	ldi	r25, 0x27	; 39
    4120:	90 93 95 01 	sts	0x0195, r25	; 0x800195 <_ZN7ns_menu11tmpIntervalE+0x1>
    4124:	80 93 94 01 	sts	0x0194, r24	; 0x800194 <_ZN7ns_menu11tmpIntervalE>
			scr::DigitZ(scr::SetPosition(9, 1), 5, tmpInterval );
    4128:	c0 90 94 01 	lds	r12, 0x0194	; 0x800194 <_ZN7ns_menu11tmpIntervalE>
    412c:	d0 90 95 01 	lds	r13, 0x0195	; 0x800195 <_ZN7ns_menu11tmpIntervalE+0x1>
    4130:	e1 2c       	mov	r14, r1
    4132:	f1 2c       	mov	r15, r1
    4134:	61 e0       	ldi	r22, 0x01	; 1
    4136:	89 e0       	ldi	r24, 0x09	; 9
    4138:	0e 94 dd 2a 	call	0x55ba	; 0x55ba <_ZN6ns_lcd11SetPositionEhh>
    413c:	a7 01       	movw	r20, r14
    413e:	96 01       	movw	r18, r12
    4140:	65 e0       	ldi	r22, 0x05	; 5
    4142:	0e 94 5f 2c 	call	0x58be	; 0x58be <_ZN6ns_lcd6DigitZEhhl>
		}
    4146:	ff 90       	pop	r15
    4148:	ef 90       	pop	r14
    414a:	df 90       	pop	r13
    414c:	cf 90       	pop	r12
    414e:	08 95       	ret

00004150 <_ZN7ns_menu15ProtectIntervalEh>:
		void ProtectInterval(uint8_t k)
		{
			CRITICAL_SECTION{ timeOut = 0; }
    4150:	8f b7       	in	r24, 0x3f	; 63
    return 1;
}

static __inline__ uint8_t __iCliRetVal(void)
{
    cli();
    4152:	f8 94       	cli
    4154:	10 92 bf 01 	sts	0x01BF, r1	; 0x8001bf <_ZN7ns_menu7timeOutE>
    4158:	10 92 c0 01 	sts	0x01C0, r1	; 0x8001c0 <_ZN7ns_menu7timeOutE+0x1>
    415c:	10 92 c1 01 	sts	0x01C1, r1	; 0x8001c1 <_ZN7ns_menu7timeOutE+0x2>
    4160:	10 92 c2 01 	sts	0x01C2, r1	; 0x8001c2 <_ZN7ns_menu7timeOutE+0x3>
    (void)__s;
}

static __inline__ void __iRestore(const  uint8_t *__s)
{
    SREG = *__s;
    4164:	8f bf       	out	0x3f, r24	; 63
			key4->autoRepeat = false;
    4166:	e0 91 de 01 	lds	r30, 0x01DE	; 0x8001de <key4>
    416a:	f0 91 df 01 	lds	r31, 0x01DF	; 0x8001df <key4+0x1>
    416e:	10 82       	st	Z, r1
			tmpInterval = (uint16_t)( ((uint32_t)eeprom_read_word(&ns_vg::eeProtect) * ((uint32_t)1000) / ((uint32_t)FtTimerMain)   ));
    4170:	81 ef       	ldi	r24, 0xF1	; 241
    4172:	9c e0       	ldi	r25, 0x0C	; 12
    4174:	0e 94 e3 32 	call	0x65c6	; 0x65c6 <eeprom_read_word>
    4178:	9c 01       	movw	r18, r24
    417a:	a8 ee       	ldi	r26, 0xE8	; 232
    417c:	b3 e0       	ldi	r27, 0x03	; 3
    417e:	0e 94 3e 30 	call	0x607c	; 0x607c <__umulhisi3>
    4182:	20 ed       	ldi	r18, 0xD0	; 208
    4184:	37 e0       	ldi	r19, 0x07	; 7
    4186:	40 e0       	ldi	r20, 0x00	; 0
    4188:	50 e0       	ldi	r21, 0x00	; 0
    418a:	0e 94 00 30 	call	0x6000	; 0x6000 <__udivmodsi4>
    418e:	30 93 95 01 	sts	0x0195, r19	; 0x800195 <_ZN7ns_menu11tmpIntervalE+0x1>
    4192:	20 93 94 01 	sts	0x0194, r18	; 0x800194 <_ZN7ns_menu11tmpIntervalE>
			scr::Clear();
    4196:	0e 94 b1 29 	call	0x5362	; 0x5362 <_ZN6ns_lcd5ClearEv>
			scr::String_P(scr::SetPosition(0, 0), PSTR("") );
    419a:	60 e0       	ldi	r22, 0x00	; 0
    419c:	80 e0       	ldi	r24, 0x00	; 0
    419e:	0e 94 dd 2a 	call	0x55ba	; 0x55ba <_ZN6ns_lcd11SetPositionEhh>
    41a2:	6a e6       	ldi	r22, 0x6A	; 106
    41a4:	71 e0       	ldi	r23, 0x01	; 1
    41a6:	0e 94 e7 2b 	call	0x57ce	; 0x57ce <_ZN6ns_lcd8String_PEhPKc>
			scr::String_P(scr::SetPosition(0, 1), PSTR(":") );
    41aa:	61 e0       	ldi	r22, 0x01	; 1
    41ac:	80 e0       	ldi	r24, 0x00	; 0
    41ae:	0e 94 dd 2a 	call	0x55ba	; 0x55ba <_ZN6ns_lcd11SetPositionEhh>
    41b2:	60 e6       	ldi	r22, 0x60	; 96
    41b4:	71 e0       	ldi	r23, 0x01	; 1
    41b6:	0e 94 e7 2b 	call	0x57ce	; 0x57ce <_ZN6ns_lcd8String_PEhPKc>
			ProtectIntervalView();
    41ba:	a5 df       	rcall	.-182    	; 0x4106 <_ZN7ns_menu19ProtectIntervalViewEv>
			CRITICAL_SECTION{ timeOut = TIMEOUT_MENU; }
    41bc:	8f b7       	in	r24, 0x3f	; 63
    return 1;
}

static __inline__ uint8_t __iCliRetVal(void)
{
    cli();
    41be:	f8 94       	cli
    41c0:	40 e9       	ldi	r20, 0x90	; 144
    41c2:	5f e5       	ldi	r21, 0x5F	; 95
    41c4:	61 e0       	ldi	r22, 0x01	; 1
    41c6:	70 e0       	ldi	r23, 0x00	; 0
    41c8:	40 93 bf 01 	sts	0x01BF, r20	; 0x8001bf <_ZN7ns_menu7timeOutE>
    41cc:	50 93 c0 01 	sts	0x01C0, r21	; 0x8001c0 <_ZN7ns_menu7timeOutE+0x1>
    41d0:	60 93 c1 01 	sts	0x01C1, r22	; 0x8001c1 <_ZN7ns_menu7timeOutE+0x2>
    41d4:	70 93 c2 01 	sts	0x01C2, r23	; 0x8001c2 <_ZN7ns_menu7timeOutE+0x3>
    (void)__s;
}

static __inline__ void __iRestore(const  uint8_t *__s)
{
    SREG = *__s;
    41d8:	8f bf       	out	0x3f, r24	; 63
    __asm__ volatile ("" ::: "memory");
    41da:	08 95       	ret

000041dc <_ZN7ns_menu17ProtectIntervalPlEh>:
			CRITICAL_SECTION{ timeOut = 0; }
			SetMode(MENU_SELECT);
		}
		void ProtectIntervalPl(uint8_t k)
		{
			key4->autoRepeat = true;
    41dc:	e0 91 de 01 	lds	r30, 0x01DE	; 0x8001de <key4>
    41e0:	f0 91 df 01 	lds	r31, 0x01DF	; 0x8001df <key4+0x1>
    41e4:	81 e0       	ldi	r24, 0x01	; 1
    41e6:	80 83       	st	Z, r24
			if (tmpInterval < 10000) tmpInterval++;
    41e8:	80 91 94 01 	lds	r24, 0x0194	; 0x800194 <_ZN7ns_menu11tmpIntervalE>
    41ec:	90 91 95 01 	lds	r25, 0x0195	; 0x800195 <_ZN7ns_menu11tmpIntervalE+0x1>
    41f0:	80 31       	cpi	r24, 0x10	; 16
    41f2:	27 e2       	ldi	r18, 0x27	; 39
    41f4:	92 07       	cpc	r25, r18
    41f6:	28 f4       	brcc	.+10     	; 0x4202 <_ZN7ns_menu17ProtectIntervalPlEh+0x26>
    41f8:	01 96       	adiw	r24, 0x01	; 1
    41fa:	90 93 95 01 	sts	0x0195, r25	; 0x800195 <_ZN7ns_menu11tmpIntervalE+0x1>
    41fe:	80 93 94 01 	sts	0x0194, r24	; 0x800194 <_ZN7ns_menu11tmpIntervalE>
			ProtectIntervalView();
    4202:	81 df       	rcall	.-254    	; 0x4106 <_ZN7ns_menu19ProtectIntervalViewEv>
			CRITICAL_SECTION{ timeOut = TIMEOUT_MENU; }
    4204:	8f b7       	in	r24, 0x3f	; 63
    return 1;
}

static __inline__ uint8_t __iCliRetVal(void)
{
    cli();
    4206:	f8 94       	cli
    4208:	40 e9       	ldi	r20, 0x90	; 144
    420a:	5f e5       	ldi	r21, 0x5F	; 95
    420c:	61 e0       	ldi	r22, 0x01	; 1
    420e:	70 e0       	ldi	r23, 0x00	; 0
    4210:	40 93 bf 01 	sts	0x01BF, r20	; 0x8001bf <_ZN7ns_menu7timeOutE>
    4214:	50 93 c0 01 	sts	0x01C0, r21	; 0x8001c0 <_ZN7ns_menu7timeOutE+0x1>
    4218:	60 93 c1 01 	sts	0x01C1, r22	; 0x8001c1 <_ZN7ns_menu7timeOutE+0x2>
    421c:	70 93 c2 01 	sts	0x01C2, r23	; 0x8001c2 <_ZN7ns_menu7timeOutE+0x3>
    (void)__s;
}

static __inline__ void __iRestore(const  uint8_t *__s)
{
    SREG = *__s;
    4220:	8f bf       	out	0x3f, r24	; 63
    __asm__ volatile ("" ::: "memory");
    4222:	08 95       	ret

00004224 <_ZN7ns_menu17ProtectIntervalMnEh>:
		}
		void ProtectIntervalMn(uint8_t k)
		{
			key4->autoRepeat = true;
    4224:	e0 91 de 01 	lds	r30, 0x01DE	; 0x8001de <key4>
    4228:	f0 91 df 01 	lds	r31, 0x01DF	; 0x8001df <key4+0x1>
    422c:	81 e0       	ldi	r24, 0x01	; 1
    422e:	80 83       	st	Z, r24
			if (tmpInterval > 10) tmpInterval--;
    4230:	80 91 94 01 	lds	r24, 0x0194	; 0x800194 <_ZN7ns_menu11tmpIntervalE>
    4234:	90 91 95 01 	lds	r25, 0x0195	; 0x800195 <_ZN7ns_menu11tmpIntervalE+0x1>
    4238:	8b 30       	cpi	r24, 0x0B	; 11
    423a:	91 05       	cpc	r25, r1
    423c:	28 f0       	brcs	.+10     	; 0x4248 <_ZN7ns_menu17ProtectIntervalMnEh+0x24>
    423e:	01 97       	sbiw	r24, 0x01	; 1
    4240:	90 93 95 01 	sts	0x0195, r25	; 0x800195 <_ZN7ns_menu11tmpIntervalE+0x1>
    4244:	80 93 94 01 	sts	0x0194, r24	; 0x800194 <_ZN7ns_menu11tmpIntervalE>
			ProtectIntervalView();
    4248:	5e df       	rcall	.-324    	; 0x4106 <_ZN7ns_menu19ProtectIntervalViewEv>
			CRITICAL_SECTION{ timeOut = TIMEOUT_MENU; }
    424a:	8f b7       	in	r24, 0x3f	; 63
    return 1;
}

static __inline__ uint8_t __iCliRetVal(void)
{
    cli();
    424c:	f8 94       	cli
    424e:	40 e9       	ldi	r20, 0x90	; 144
    4250:	5f e5       	ldi	r21, 0x5F	; 95
    4252:	61 e0       	ldi	r22, 0x01	; 1
    4254:	70 e0       	ldi	r23, 0x00	; 0
    4256:	40 93 bf 01 	sts	0x01BF, r20	; 0x8001bf <_ZN7ns_menu7timeOutE>
    425a:	50 93 c0 01 	sts	0x01C0, r21	; 0x8001c0 <_ZN7ns_menu7timeOutE+0x1>
    425e:	60 93 c1 01 	sts	0x01C1, r22	; 0x8001c1 <_ZN7ns_menu7timeOutE+0x2>
    4262:	70 93 c2 01 	sts	0x01C2, r23	; 0x8001c2 <_ZN7ns_menu7timeOutE+0x3>
    (void)__s;
}

static __inline__ void __iRestore(const  uint8_t *__s)
{
    SREG = *__s;
    4266:	8f bf       	out	0x3f, r24	; 63
    __asm__ volatile ("" ::: "memory");
    4268:	08 95       	ret

0000426a <_ZN7ns_menu14TmIntegralViewEv>:
			SetMode(MENU_SELECT);
		}
		// ==============================
		uint16_t tmIntegral;
		void TmIntegralView()
		{
    426a:	cf 92       	push	r12
    426c:	df 92       	push	r13
    426e:	ef 92       	push	r14
    4270:	ff 92       	push	r15
			if (tmpInterval > 4000) tmIntegral = 4000;
    4272:	80 91 94 01 	lds	r24, 0x0194	; 0x800194 <_ZN7ns_menu11tmpIntervalE>
    4276:	90 91 95 01 	lds	r25, 0x0195	; 0x800195 <_ZN7ns_menu11tmpIntervalE+0x1>
    427a:	81 3a       	cpi	r24, 0xA1	; 161
    427c:	9f 40       	sbci	r25, 0x0F	; 15
    427e:	30 f0       	brcs	.+12     	; 0x428c <_ZN7ns_menu14TmIntegralViewEv+0x22>
    4280:	80 ea       	ldi	r24, 0xA0	; 160
    4282:	9f e0       	ldi	r25, 0x0F	; 15
    4284:	90 93 93 01 	sts	0x0193, r25	; 0x800193 <_ZN7ns_menu10tmIntegralE+0x1>
    4288:	80 93 92 01 	sts	0x0192, r24	; 0x800192 <_ZN7ns_menu10tmIntegralE>
			scr::DigitZ(scr::SetPosition(10, 1), 4, tmIntegral);
    428c:	c0 90 92 01 	lds	r12, 0x0192	; 0x800192 <_ZN7ns_menu10tmIntegralE>
    4290:	d0 90 93 01 	lds	r13, 0x0193	; 0x800193 <_ZN7ns_menu10tmIntegralE+0x1>
    4294:	e1 2c       	mov	r14, r1
    4296:	f1 2c       	mov	r15, r1
    4298:	61 e0       	ldi	r22, 0x01	; 1
    429a:	8a e0       	ldi	r24, 0x0A	; 10
    429c:	0e 94 dd 2a 	call	0x55ba	; 0x55ba <_ZN6ns_lcd11SetPositionEhh>
    42a0:	a7 01       	movw	r20, r14
    42a2:	96 01       	movw	r18, r12
    42a4:	64 e0       	ldi	r22, 0x04	; 4
    42a6:	0e 94 5f 2c 	call	0x58be	; 0x58be <_ZN6ns_lcd6DigitZEhhl>
		}
    42aa:	ff 90       	pop	r15
    42ac:	ef 90       	pop	r14
    42ae:	df 90       	pop	r13
    42b0:	cf 90       	pop	r12
    42b2:	08 95       	ret

000042b4 <_ZN7ns_menu10TmIntegralEh>:
		void TmIntegral(uint8_t k)
		{
			CRITICAL_SECTION { timeOut = 0; }
    42b4:	8f b7       	in	r24, 0x3f	; 63
    return 1;
}

static __inline__ uint8_t __iCliRetVal(void)
{
    cli();
    42b6:	f8 94       	cli
    42b8:	10 92 bf 01 	sts	0x01BF, r1	; 0x8001bf <_ZN7ns_menu7timeOutE>
    42bc:	10 92 c0 01 	sts	0x01C0, r1	; 0x8001c0 <_ZN7ns_menu7timeOutE+0x1>
    42c0:	10 92 c1 01 	sts	0x01C1, r1	; 0x8001c1 <_ZN7ns_menu7timeOutE+0x2>
    42c4:	10 92 c2 01 	sts	0x01C2, r1	; 0x8001c2 <_ZN7ns_menu7timeOutE+0x3>
    (void)__s;
}

static __inline__ void __iRestore(const  uint8_t *__s)
{
    SREG = *__s;
    42c8:	8f bf       	out	0x3f, r24	; 63
			key4->autoRepeat = false;
    42ca:	e0 91 de 01 	lds	r30, 0x01DE	; 0x8001de <key4>
    42ce:	f0 91 df 01 	lds	r31, 0x01DF	; 0x8001df <key4+0x1>
    42d2:	10 82       	st	Z, r1
			tmIntegral =  (uint16_t)( ((uint32_t)eeprom_read_word(&ns_vg::eeInteral)) * ((uint32_t)1000) / ((uint32_t)FtTimerMain) );
    42d4:	8f ee       	ldi	r24, 0xEF	; 239
    42d6:	9c e0       	ldi	r25, 0x0C	; 12
    42d8:	0e 94 e3 32 	call	0x65c6	; 0x65c6 <eeprom_read_word>
    42dc:	9c 01       	movw	r18, r24
    42de:	a8 ee       	ldi	r26, 0xE8	; 232
    42e0:	b3 e0       	ldi	r27, 0x03	; 3
    42e2:	0e 94 3e 30 	call	0x607c	; 0x607c <__umulhisi3>
    42e6:	20 ed       	ldi	r18, 0xD0	; 208
    42e8:	37 e0       	ldi	r19, 0x07	; 7
    42ea:	40 e0       	ldi	r20, 0x00	; 0
    42ec:	50 e0       	ldi	r21, 0x00	; 0
    42ee:	0e 94 00 30 	call	0x6000	; 0x6000 <__udivmodsi4>
    42f2:	30 93 93 01 	sts	0x0193, r19	; 0x800193 <_ZN7ns_menu10tmIntegralE+0x1>
    42f6:	20 93 92 01 	sts	0x0192, r18	; 0x800192 <_ZN7ns_menu10tmIntegralE>
			scr	::Clear();
    42fa:	0e 94 b1 29 	call	0x5362	; 0x5362 <_ZN6ns_lcd5ClearEv>
			scr::String_P(scr::SetPosition(0, 0), PSTR(" .") );
    42fe:	60 e0       	ldi	r22, 0x00	; 0
    4300:	80 e0       	ldi	r24, 0x00	; 0
    4302:	0e 94 dd 2a 	call	0x55ba	; 0x55ba <_ZN6ns_lcd11SetPositionEhh>
    4306:	63 e5       	ldi	r22, 0x53	; 83
    4308:	71 e0       	ldi	r23, 0x01	; 1
    430a:	0e 94 e7 2b 	call	0x57ce	; 0x57ce <_ZN6ns_lcd8String_PEhPKc>
			scr::String_P(scr::SetPosition(0, 1), PSTR(": ") );
    430e:	61 e0       	ldi	r22, 0x01	; 1
    4310:	80 e0       	ldi	r24, 0x00	; 0
    4312:	0e 94 dd 2a 	call	0x55ba	; 0x55ba <_ZN6ns_lcd11SetPositionEhh>
    4316:	68 e4       	ldi	r22, 0x48	; 72
    4318:	71 e0       	ldi	r23, 0x01	; 1
    431a:	0e 94 e7 2b 	call	0x57ce	; 0x57ce <_ZN6ns_lcd8String_PEhPKc>
			TmIntegralView();
    431e:	a5 df       	rcall	.-182    	; 0x426a <_ZN7ns_menu14TmIntegralViewEv>
			CRITICAL_SECTION{ timeOut = TIMEOUT_MENU; }
    4320:	8f b7       	in	r24, 0x3f	; 63
    return 1;
}

static __inline__ uint8_t __iCliRetVal(void)
{
    cli();
    4322:	f8 94       	cli
    4324:	40 e9       	ldi	r20, 0x90	; 144
    4326:	5f e5       	ldi	r21, 0x5F	; 95
    4328:	61 e0       	ldi	r22, 0x01	; 1
    432a:	70 e0       	ldi	r23, 0x00	; 0
    432c:	40 93 bf 01 	sts	0x01BF, r20	; 0x8001bf <_ZN7ns_menu7timeOutE>
    4330:	50 93 c0 01 	sts	0x01C0, r21	; 0x8001c0 <_ZN7ns_menu7timeOutE+0x1>
    4334:	60 93 c1 01 	sts	0x01C1, r22	; 0x8001c1 <_ZN7ns_menu7timeOutE+0x2>
    4338:	70 93 c2 01 	sts	0x01C2, r23	; 0x8001c2 <_ZN7ns_menu7timeOutE+0x3>
    (void)__s;
}

static __inline__ void __iRestore(const  uint8_t *__s)
{
    SREG = *__s;
    433c:	8f bf       	out	0x3f, r24	; 63
    __asm__ volatile ("" ::: "memory");
    433e:	08 95       	ret

00004340 <_ZN7ns_menu12TmIntegralMnEh>:
			ns_line::sensors[4]->porog = di;
			SetMode(MENU_SELECT);
		}
		void TmIntegralMn(uint8_t k)
		{
			key4->autoRepeat = true;
    4340:	e0 91 de 01 	lds	r30, 0x01DE	; 0x8001de <key4>
    4344:	f0 91 df 01 	lds	r31, 0x01DF	; 0x8001df <key4+0x1>
    4348:	81 e0       	ldi	r24, 0x01	; 1
    434a:	80 83       	st	Z, r24
			if (tmIntegral > 1) tmIntegral--;
    434c:	80 91 92 01 	lds	r24, 0x0192	; 0x800192 <_ZN7ns_menu10tmIntegralE>
    4350:	90 91 93 01 	lds	r25, 0x0193	; 0x800193 <_ZN7ns_menu10tmIntegralE+0x1>
    4354:	82 30       	cpi	r24, 0x02	; 2
    4356:	91 05       	cpc	r25, r1
    4358:	28 f0       	brcs	.+10     	; 0x4364 <_ZN7ns_menu12TmIntegralMnEh+0x24>
    435a:	01 97       	sbiw	r24, 0x01	; 1
    435c:	90 93 93 01 	sts	0x0193, r25	; 0x800193 <_ZN7ns_menu10tmIntegralE+0x1>
    4360:	80 93 92 01 	sts	0x0192, r24	; 0x800192 <_ZN7ns_menu10tmIntegralE>
			TmIntegralView();
    4364:	82 df       	rcall	.-252    	; 0x426a <_ZN7ns_menu14TmIntegralViewEv>
			CRITICAL_SECTION{ timeOut = TIMEOUT_MENU; }
    4366:	8f b7       	in	r24, 0x3f	; 63
    return 1;
}

static __inline__ uint8_t __iCliRetVal(void)
{
    cli();
    4368:	f8 94       	cli
    436a:	40 e9       	ldi	r20, 0x90	; 144
    436c:	5f e5       	ldi	r21, 0x5F	; 95
    436e:	61 e0       	ldi	r22, 0x01	; 1
    4370:	70 e0       	ldi	r23, 0x00	; 0
    4372:	40 93 bf 01 	sts	0x01BF, r20	; 0x8001bf <_ZN7ns_menu7timeOutE>
    4376:	50 93 c0 01 	sts	0x01C0, r21	; 0x8001c0 <_ZN7ns_menu7timeOutE+0x1>
    437a:	60 93 c1 01 	sts	0x01C1, r22	; 0x8001c1 <_ZN7ns_menu7timeOutE+0x2>
    437e:	70 93 c2 01 	sts	0x01C2, r23	; 0x8001c2 <_ZN7ns_menu7timeOutE+0x3>
    (void)__s;
}

static __inline__ void __iRestore(const  uint8_t *__s)
{
    SREG = *__s;
    4382:	8f bf       	out	0x3f, r24	; 63
    __asm__ volatile ("" ::: "memory");
    4384:	08 95       	ret

00004386 <_ZN7ns_menu12TmIntegralPlEh>:
		}
		void TmIntegralPl(uint8_t k)
		{
			key4->autoRepeat = true;
    4386:	e0 91 de 01 	lds	r30, 0x01DE	; 0x8001de <key4>
    438a:	f0 91 df 01 	lds	r31, 0x01DF	; 0x8001df <key4+0x1>
    438e:	81 e0       	ldi	r24, 0x01	; 1
    4390:	80 83       	st	Z, r24
			if (tmIntegral < 4000) tmIntegral++;
    4392:	80 91 92 01 	lds	r24, 0x0192	; 0x800192 <_ZN7ns_menu10tmIntegralE>
    4396:	90 91 93 01 	lds	r25, 0x0193	; 0x800193 <_ZN7ns_menu10tmIntegralE+0x1>
    439a:	80 3a       	cpi	r24, 0xA0	; 160
    439c:	2f e0       	ldi	r18, 0x0F	; 15
    439e:	92 07       	cpc	r25, r18
    43a0:	28 f4       	brcc	.+10     	; 0x43ac <_ZN7ns_menu12TmIntegralPlEh+0x26>
    43a2:	01 96       	adiw	r24, 0x01	; 1
    43a4:	90 93 93 01 	sts	0x0193, r25	; 0x800193 <_ZN7ns_menu10tmIntegralE+0x1>
    43a8:	80 93 92 01 	sts	0x0192, r24	; 0x800192 <_ZN7ns_menu10tmIntegralE>
			TmIntegralView();
    43ac:	5e df       	rcall	.-324    	; 0x426a <_ZN7ns_menu14TmIntegralViewEv>
			CRITICAL_SECTION{ timeOut = TIMEOUT_MENU; }
    43ae:	8f b7       	in	r24, 0x3f	; 63
    return 1;
}

static __inline__ uint8_t __iCliRetVal(void)
{
    cli();
    43b0:	f8 94       	cli
    43b2:	40 e9       	ldi	r20, 0x90	; 144
    43b4:	5f e5       	ldi	r21, 0x5F	; 95
    43b6:	61 e0       	ldi	r22, 0x01	; 1
    43b8:	70 e0       	ldi	r23, 0x00	; 0
    43ba:	40 93 bf 01 	sts	0x01BF, r20	; 0x8001bf <_ZN7ns_menu7timeOutE>
    43be:	50 93 c0 01 	sts	0x01C0, r21	; 0x8001c0 <_ZN7ns_menu7timeOutE+0x1>
    43c2:	60 93 c1 01 	sts	0x01C1, r22	; 0x8001c1 <_ZN7ns_menu7timeOutE+0x2>
    43c6:	70 93 c2 01 	sts	0x01C2, r23	; 0x8001c2 <_ZN7ns_menu7timeOutE+0x3>
    (void)__s;
}

static __inline__ void __iRestore(const  uint8_t *__s)
{
    SREG = *__s;
    43ca:	8f bf       	out	0x3f, r24	; 63
    __asm__ volatile ("" ::: "memory");
    43cc:	08 95       	ret

000043ce <_ZN7ns_menu12CorSpeedViewEv>:
		}
		// ==============================
		int8_t corSpeed;
		void CorSpeedView()
		{
    43ce:	cf 92       	push	r12
    43d0:	df 92       	push	r13
    43d2:	ef 92       	push	r14
    43d4:	ff 92       	push	r15
			if (corSpeed < -120) corSpeed = -120;
    43d6:	80 91 91 01 	lds	r24, 0x0191	; 0x800191 <_ZN7ns_menu8corSpeedE>
    43da:	88 38       	cpi	r24, 0x88	; 136
    43dc:	24 f4       	brge	.+8      	; 0x43e6 <_ZN7ns_menu12CorSpeedViewEv+0x18>
    43de:	88 e8       	ldi	r24, 0x88	; 136
    43e0:	80 93 91 01 	sts	0x0191, r24	; 0x800191 <_ZN7ns_menu8corSpeedE>
    43e4:	05 c0       	rjmp	.+10     	; 0x43f0 <_ZN7ns_menu12CorSpeedViewEv+0x22>
			if (corSpeed >  120) corSpeed =  120;
    43e6:	89 37       	cpi	r24, 0x79	; 121
    43e8:	1c f0       	brlt	.+6      	; 0x43f0 <_ZN7ns_menu12CorSpeedViewEv+0x22>
    43ea:	88 e7       	ldi	r24, 0x78	; 120
    43ec:	80 93 91 01 	sts	0x0191, r24	; 0x800191 <_ZN7ns_menu8corSpeedE>
			scr::DigitZ(scr::SetPosition(9, 1), 4, corSpeed);
    43f0:	c0 90 91 01 	lds	r12, 0x0191	; 0x800191 <_ZN7ns_menu8corSpeedE>
    43f4:	0c 2c       	mov	r0, r12
    43f6:	00 0c       	add	r0, r0
    43f8:	dd 08       	sbc	r13, r13
    43fa:	ee 08       	sbc	r14, r14
    43fc:	ff 08       	sbc	r15, r15
    43fe:	61 e0       	ldi	r22, 0x01	; 1
    4400:	89 e0       	ldi	r24, 0x09	; 9
    4402:	0e 94 dd 2a 	call	0x55ba	; 0x55ba <_ZN6ns_lcd11SetPositionEhh>
    4406:	a7 01       	movw	r20, r14
    4408:	96 01       	movw	r18, r12
    440a:	64 e0       	ldi	r22, 0x04	; 4
    440c:	0e 94 5f 2c 	call	0x58be	; 0x58be <_ZN6ns_lcd6DigitZEhhl>
		}
    4410:	ff 90       	pop	r15
    4412:	ef 90       	pop	r14
    4414:	df 90       	pop	r13
    4416:	cf 90       	pop	r12
    4418:	08 95       	ret

0000441a <_ZN7ns_menu8CorSpeedEh>:
		void CorSpeed(uint8_t k)
		{
			CRITICAL_SECTION { timeOut = TIMEOUT_MENU; }
    441a:	8f b7       	in	r24, 0x3f	; 63
    return 1;
}

static __inline__ uint8_t __iCliRetVal(void)
{
    cli();
    441c:	f8 94       	cli
    441e:	40 e9       	ldi	r20, 0x90	; 144
    4420:	5f e5       	ldi	r21, 0x5F	; 95
    4422:	61 e0       	ldi	r22, 0x01	; 1
    4424:	70 e0       	ldi	r23, 0x00	; 0
    4426:	40 93 bf 01 	sts	0x01BF, r20	; 0x8001bf <_ZN7ns_menu7timeOutE>
    442a:	50 93 c0 01 	sts	0x01C0, r21	; 0x8001c0 <_ZN7ns_menu7timeOutE+0x1>
    442e:	60 93 c1 01 	sts	0x01C1, r22	; 0x8001c1 <_ZN7ns_menu7timeOutE+0x2>
    4432:	70 93 c2 01 	sts	0x01C2, r23	; 0x8001c2 <_ZN7ns_menu7timeOutE+0x3>
    (void)__s;
}

static __inline__ void __iRestore(const  uint8_t *__s)
{
    SREG = *__s;
    4436:	8f bf       	out	0x3f, r24	; 63
			key4->autoRepeat = false;
    4438:	e0 91 de 01 	lds	r30, 0x01DE	; 0x8001de <key4>
    443c:	f0 91 df 01 	lds	r31, 0x01DF	; 0x8001df <key4+0x1>
    4440:	10 82       	st	Z, r1
			corSpeed = (int8_t)(eeprom_read_byte(&ns_vg::eeCorSpeed) );
    4442:	8e ee       	ldi	r24, 0xEE	; 238
    4444:	9c e0       	ldi	r25, 0x0C	; 12
    4446:	0e 94 db 32 	call	0x65b6	; 0x65b6 <eeprom_read_byte>
    444a:	80 93 91 01 	sts	0x0191, r24	; 0x800191 <_ZN7ns_menu8corSpeedE>
			scr::Clear();
    444e:	89 d7       	rcall	.+3858   	; 0x5362 <_ZN6ns_lcd5ClearEv>
			scr::String_P(scr::SetPosition(0, 0), PSTR("") );
    4450:	60 e0       	ldi	r22, 0x00	; 0
    4452:	80 e0       	ldi	r24, 0x00	; 0
    4454:	0e 94 dd 2a 	call	0x55ba	; 0x55ba <_ZN6ns_lcd11SetPositionEhh>
    4458:	6e e3       	ldi	r22, 0x3E	; 62
    445a:	71 e0       	ldi	r23, 0x01	; 1
    445c:	0e 94 e7 2b 	call	0x57ce	; 0x57ce <_ZN6ns_lcd8String_PEhPKc>
			scr::String_P(scr::SetPosition(0, 1), PSTR(":") );
    4460:	61 e0       	ldi	r22, 0x01	; 1
    4462:	80 e0       	ldi	r24, 0x00	; 0
    4464:	0e 94 dd 2a 	call	0x55ba	; 0x55ba <_ZN6ns_lcd11SetPositionEhh>
    4468:	64 e3       	ldi	r22, 0x34	; 52
    446a:	71 e0       	ldi	r23, 0x01	; 1
    446c:	0e 94 e7 2b 	call	0x57ce	; 0x57ce <_ZN6ns_lcd8String_PEhPKc>
			CorSpeedView();
    4470:	ae cf       	rjmp	.-164    	; 0x43ce <_ZN7ns_menu12CorSpeedViewEv>
    4472:	08 95       	ret

00004474 <_ZN7ns_menu10CorSpeedMnEh>:
			key4->autoRepeat = false;
			SetMode(MENU_SELECT);
		}
		void CorSpeedMn(uint8_t k)
		{
			CRITICAL_SECTION { timeOut = TIMEOUT_MENU; }
    4474:	8f b7       	in	r24, 0x3f	; 63
    return 1;
}

static __inline__ uint8_t __iCliRetVal(void)
{
    cli();
    4476:	f8 94       	cli
    4478:	40 e9       	ldi	r20, 0x90	; 144
    447a:	5f e5       	ldi	r21, 0x5F	; 95
    447c:	61 e0       	ldi	r22, 0x01	; 1
    447e:	70 e0       	ldi	r23, 0x00	; 0
    4480:	40 93 bf 01 	sts	0x01BF, r20	; 0x8001bf <_ZN7ns_menu7timeOutE>
    4484:	50 93 c0 01 	sts	0x01C0, r21	; 0x8001c0 <_ZN7ns_menu7timeOutE+0x1>
    4488:	60 93 c1 01 	sts	0x01C1, r22	; 0x8001c1 <_ZN7ns_menu7timeOutE+0x2>
    448c:	70 93 c2 01 	sts	0x01C2, r23	; 0x8001c2 <_ZN7ns_menu7timeOutE+0x3>
    (void)__s;
}

static __inline__ void __iRestore(const  uint8_t *__s)
{
    SREG = *__s;
    4490:	8f bf       	out	0x3f, r24	; 63
			key4->autoRepeat = true;
    4492:	e0 91 de 01 	lds	r30, 0x01DE	; 0x8001de <key4>
    4496:	f0 91 df 01 	lds	r31, 0x01DF	; 0x8001df <key4+0x1>
    449a:	81 e0       	ldi	r24, 0x01	; 1
    449c:	80 83       	st	Z, r24
			if (corSpeed > -120) corSpeed--;
    449e:	80 91 91 01 	lds	r24, 0x0191	; 0x800191 <_ZN7ns_menu8corSpeedE>
    44a2:	89 38       	cpi	r24, 0x89	; 137
    44a4:	1c f0       	brlt	.+6      	; 0x44ac <_ZN7ns_menu10CorSpeedMnEh+0x38>
    44a6:	81 50       	subi	r24, 0x01	; 1
    44a8:	80 93 91 01 	sts	0x0191, r24	; 0x800191 <_ZN7ns_menu8corSpeedE>
			CorSpeedView();
    44ac:	90 cf       	rjmp	.-224    	; 0x43ce <_ZN7ns_menu12CorSpeedViewEv>
    44ae:	08 95       	ret

000044b0 <_ZN7ns_menu10CorSpeedPlEh>:
		}
		void CorSpeedPl(uint8_t k)
		{
			CRITICAL_SECTION { timeOut = TIMEOUT_MENU; }
    44b0:	8f b7       	in	r24, 0x3f	; 63
    return 1;
}

static __inline__ uint8_t __iCliRetVal(void)
{
    cli();
    44b2:	f8 94       	cli
    44b4:	40 e9       	ldi	r20, 0x90	; 144
    44b6:	5f e5       	ldi	r21, 0x5F	; 95
    44b8:	61 e0       	ldi	r22, 0x01	; 1
    44ba:	70 e0       	ldi	r23, 0x00	; 0
    44bc:	40 93 bf 01 	sts	0x01BF, r20	; 0x8001bf <_ZN7ns_menu7timeOutE>
    44c0:	50 93 c0 01 	sts	0x01C0, r21	; 0x8001c0 <_ZN7ns_menu7timeOutE+0x1>
    44c4:	60 93 c1 01 	sts	0x01C1, r22	; 0x8001c1 <_ZN7ns_menu7timeOutE+0x2>
    44c8:	70 93 c2 01 	sts	0x01C2, r23	; 0x8001c2 <_ZN7ns_menu7timeOutE+0x3>
    (void)__s;
}

static __inline__ void __iRestore(const  uint8_t *__s)
{
    SREG = *__s;
    44cc:	8f bf       	out	0x3f, r24	; 63
			key4->autoRepeat = true;
    44ce:	e0 91 de 01 	lds	r30, 0x01DE	; 0x8001de <key4>
    44d2:	f0 91 df 01 	lds	r31, 0x01DF	; 0x8001df <key4+0x1>
    44d6:	81 e0       	ldi	r24, 0x01	; 1
    44d8:	80 83       	st	Z, r24
			if (corSpeed < 120) corSpeed++;
    44da:	80 91 91 01 	lds	r24, 0x0191	; 0x800191 <_ZN7ns_menu8corSpeedE>
    44de:	88 37       	cpi	r24, 0x78	; 120
    44e0:	1c f4       	brge	.+6      	; 0x44e8 <_ZN7ns_menu10CorSpeedPlEh+0x38>
    44e2:	8f 5f       	subi	r24, 0xFF	; 255
    44e4:	80 93 91 01 	sts	0x0191, r24	; 0x800191 <_ZN7ns_menu8corSpeedE>
			CorSpeedView();
    44e8:	72 cf       	rjmp	.-284    	; 0x43ce <_ZN7ns_menu12CorSpeedViewEv>
    44ea:	08 95       	ret

000044ec <_ZN7ns_menu13CalibScrViewQEv>:
		// ==============================
		uint8_t calSq[2];
		uint8_t calSqX;
		uint16_t calBas[2];
		void CalibScrViewQ()
		{
    44ec:	cf 92       	push	r12
    44ee:	df 92       	push	r13
    44f0:	ef 92       	push	r14
    44f2:	ff 92       	push	r15
    44f4:	cf 93       	push	r28
    44f6:	df 93       	push	r29
			// sq2
			scr::DigitZ(scr::SetPosition(11, 0), 5, calBas[0]);
    44f8:	ca e8       	ldi	r28, 0x8A	; 138
    44fa:	d1 e0       	ldi	r29, 0x01	; 1
    44fc:	c8 80       	ld	r12, Y
    44fe:	d9 80       	ldd	r13, Y+1	; 0x01
    4500:	e1 2c       	mov	r14, r1
    4502:	f1 2c       	mov	r15, r1
    4504:	60 e0       	ldi	r22, 0x00	; 0
    4506:	8b e0       	ldi	r24, 0x0B	; 11
    4508:	0e 94 dd 2a 	call	0x55ba	; 0x55ba <_ZN6ns_lcd11SetPositionEhh>
    450c:	a7 01       	movw	r20, r14
    450e:	96 01       	movw	r18, r12
    4510:	65 e0       	ldi	r22, 0x05	; 5
    4512:	0e 94 5f 2c 	call	0x58be	; 0x58be <_ZN6ns_lcd6DigitZEhhl>
			// sqX
			scr::DigitZ(scr::SetPosition( 1, 1), 5, calBas[1]);
    4516:	ca 80       	ldd	r12, Y+2	; 0x02
    4518:	db 80       	ldd	r13, Y+3	; 0x03
    451a:	e1 2c       	mov	r14, r1
    451c:	f1 2c       	mov	r15, r1
    451e:	61 e0       	ldi	r22, 0x01	; 1
    4520:	81 e0       	ldi	r24, 0x01	; 1
    4522:	0e 94 dd 2a 	call	0x55ba	; 0x55ba <_ZN6ns_lcd11SetPositionEhh>
    4526:	a7 01       	movw	r20, r14
    4528:	96 01       	movw	r18, r12
    452a:	65 e0       	ldi	r22, 0x05	; 5
    452c:	0e 94 5f 2c 	call	0x58be	; 0x58be <_ZN6ns_lcd6DigitZEhhl>
			if (calSqX == 0)
    4530:	80 91 8e 01 	lds	r24, 0x018E	; 0x80018e <_ZN7ns_menu6calSqXE>
    4534:	81 11       	cpse	r24, r1
    4536:	0f c0       	rjmp	.+30     	; 0x4556 <_ZN7ns_menu13CalibScrViewQEv+0x6a>
			{
				scr::PutChar(scr::SetPosition(10, 0), '*');
    4538:	60 e0       	ldi	r22, 0x00	; 0
    453a:	8a e0       	ldi	r24, 0x0A	; 10
    453c:	0e 94 dd 2a 	call	0x55ba	; 0x55ba <_ZN6ns_lcd11SetPositionEhh>
    4540:	6a e2       	ldi	r22, 0x2A	; 42
    4542:	0e 94 64 2b 	call	0x56c8	; 0x56c8 <_ZN6ns_lcd7PutCharEhc>
				scr::PutChar(scr::SetPosition( 0, 1), ' ');
    4546:	61 e0       	ldi	r22, 0x01	; 1
    4548:	80 e0       	ldi	r24, 0x00	; 0
    454a:	0e 94 dd 2a 	call	0x55ba	; 0x55ba <_ZN6ns_lcd11SetPositionEhh>
    454e:	60 e2       	ldi	r22, 0x20	; 32
    4550:	0e 94 64 2b 	call	0x56c8	; 0x56c8 <_ZN6ns_lcd7PutCharEhc>
    4554:	0e c0       	rjmp	.+28     	; 0x4572 <_ZN7ns_menu13CalibScrViewQEv+0x86>
			}
			else
			{
				scr::PutChar(scr::SetPosition(10, 0), ' ');
    4556:	60 e0       	ldi	r22, 0x00	; 0
    4558:	8a e0       	ldi	r24, 0x0A	; 10
    455a:	0e 94 dd 2a 	call	0x55ba	; 0x55ba <_ZN6ns_lcd11SetPositionEhh>
    455e:	60 e2       	ldi	r22, 0x20	; 32
    4560:	0e 94 64 2b 	call	0x56c8	; 0x56c8 <_ZN6ns_lcd7PutCharEhc>
				scr::PutChar(scr::SetPosition( 0, 1), '*');
    4564:	61 e0       	ldi	r22, 0x01	; 1
    4566:	80 e0       	ldi	r24, 0x00	; 0
    4568:	0e 94 dd 2a 	call	0x55ba	; 0x55ba <_ZN6ns_lcd11SetPositionEhh>
    456c:	6a e2       	ldi	r22, 0x2A	; 42
    456e:	0e 94 64 2b 	call	0x56c8	; 0x56c8 <_ZN6ns_lcd7PutCharEhc>
			}
		}
    4572:	df 91       	pop	r29
    4574:	cf 91       	pop	r28
    4576:	ff 90       	pop	r15
    4578:	ef 90       	pop	r14
    457a:	df 90       	pop	r13
    457c:	cf 90       	pop	r12
    457e:	08 95       	ret

00004580 <_ZN7ns_menu8CalibScrEh>:
		void CalibScr(uint8_t k)
		{
    4580:	ef 92       	push	r14
    4582:	ff 92       	push	r15
    4584:	0f 93       	push	r16
    4586:	1f 93       	push	r17
    4588:	cf 93       	push	r28
    458a:	df 93       	push	r29
    458c:	1f 92       	push	r1
    458e:	cd b7       	in	r28, 0x3d	; 61
    4590:	de b7       	in	r29, 0x3e	; 62
			CRITICAL_SECTION { timeOut = 0; }
    4592:	8f b7       	in	r24, 0x3f	; 63
    return 1;
}

static __inline__ uint8_t __iCliRetVal(void)
{
    cli();
    4594:	f8 94       	cli
    4596:	10 92 bf 01 	sts	0x01BF, r1	; 0x8001bf <_ZN7ns_menu7timeOutE>
    459a:	10 92 c0 01 	sts	0x01C0, r1	; 0x8001c0 <_ZN7ns_menu7timeOutE+0x1>
    459e:	10 92 c1 01 	sts	0x01C1, r1	; 0x8001c1 <_ZN7ns_menu7timeOutE+0x2>
    45a2:	10 92 c2 01 	sts	0x01C2, r1	; 0x8001c2 <_ZN7ns_menu7timeOutE+0x3>
    (void)__s;
}

static __inline__ void __iRestore(const  uint8_t *__s)
{
    SREG = *__s;
    45a6:	8f bf       	out	0x3f, r24	; 63
			key4->autoRepeat = false;
    45a8:	e0 91 de 01 	lds	r30, 0x01DE	; 0x8001de <key4>
    45ac:	f0 91 df 01 	lds	r31, 0x01DF	; 0x8001df <key4+0x1>
    45b0:	10 82       	st	Z, r1
			scr::Clear();
    45b2:	d7 d6       	rcall	.+3502   	; 0x5362 <_ZN6ns_lcd5ClearEv>
			uint8_t pos = scr::SetPosition(0,0);
    45b4:	60 e0       	ldi	r22, 0x00	; 0
    45b6:	80 e0       	ldi	r24, 0x00	; 0
    45b8:	0e 94 dd 2a 	call	0x55ba	; 0x55ba <_ZN6ns_lcd11SetPositionEhh>
    45bc:	89 83       	std	Y+1, r24	; 0x01
			if ( (ns_archive::len == 0) && (eeprom_read_word(&ns_archive::lenEE) == 0) )
    45be:	80 91 3d 01 	lds	r24, 0x013D	; 0x80013d <_ZN10ns_archive3lenE>
    45c2:	90 91 3e 01 	lds	r25, 0x013E	; 0x80013e <_ZN10ns_archive3lenE+0x1>
    45c6:	89 2b       	or	r24, r25
    45c8:	61 f4       	brne	.+24     	; 0x45e2 <_ZN7ns_menu8CalibScrEh+0x62>
    45ca:	80 e0       	ldi	r24, 0x00	; 0
    45cc:	90 e0       	ldi	r25, 0x00	; 0
    45ce:	0e 94 e3 32 	call	0x65c6	; 0x65c6 <eeprom_read_word>
    45d2:	89 2b       	or	r24, r25
    45d4:	31 f4       	brne	.+12     	; 0x45e2 <_ZN7ns_menu8CalibScrEh+0x62>
			{
				scr::PutChar(&pos, '-');
    45d6:	6d e2       	ldi	r22, 0x2D	; 45
    45d8:	ce 01       	movw	r24, r28
    45da:	01 96       	adiw	r24, 0x01	; 1
    45dc:	0e 94 44 2b 	call	0x5688	; 0x5688 <_ZN6ns_lcd7PutCharEPhc>
    45e0:	6f c0       	rjmp	.+222    	; 0x46c0 <_ZN7ns_menu8CalibScrEh+0x140>
			}
			else
			{
				corCurTube_idx = ns_archive::idx;
    45e2:	80 91 3f 01 	lds	r24, 0x013F	; 0x80013f <_ZN10ns_archive3idxE>
    45e6:	90 91 40 01 	lds	r25, 0x0140	; 0x800140 <_ZN10ns_archive3idxE+0x1>
				if (corCurTube_idx == 0) corCurTube_idx = ARCHIVE_LEN - 1;
    45ea:	00 97       	sbiw	r24, 0x00	; 0
    45ec:	39 f4       	brne	.+14     	; 0x45fc <_ZN7ns_menu8CalibScrEh+0x7c>
    45ee:	8b e2       	ldi	r24, 0x2B	; 43
    45f0:	91 e0       	ldi	r25, 0x01	; 1
    45f2:	90 93 a0 01 	sts	0x01A0, r25	; 0x8001a0 <_ZN7ns_menu14corCurTube_idxE+0x1>
    45f6:	80 93 9f 01 	sts	0x019F, r24	; 0x80019f <_ZN7ns_menu14corCurTube_idxE>
    45fa:	05 c0       	rjmp	.+10     	; 0x4606 <_ZN7ns_menu8CalibScrEh+0x86>
				else corCurTube_idx--;
    45fc:	01 97       	sbiw	r24, 0x01	; 1
    45fe:	90 93 a0 01 	sts	0x01A0, r25	; 0x8001a0 <_ZN7ns_menu14corCurTube_idxE+0x1>
    4602:	80 93 9f 01 	sts	0x019F, r24	; 0x80019f <_ZN7ns_menu14corCurTube_idxE>
				eeprom_read_block(&corCurTube_cell, &ns_archive::archive[corCurTube_idx], sizeof(archiveStruct));
    4606:	80 91 9f 01 	lds	r24, 0x019F	; 0x80019f <_ZN7ns_menu14corCurTube_idxE>
    460a:	90 91 a0 01 	lds	r25, 0x01A0	; 0x8001a0 <_ZN7ns_menu14corCurTube_idxE+0x1>
    460e:	2b e0       	ldi	r18, 0x0B	; 11
    4610:	28 9f       	mul	r18, r24
    4612:	b0 01       	movw	r22, r0
    4614:	29 9f       	mul	r18, r25
    4616:	70 0d       	add	r23, r0
    4618:	11 24       	eor	r1, r1
    461a:	6c 5f       	subi	r22, 0xFC	; 252
    461c:	7f 4f       	sbci	r23, 0xFF	; 255
    461e:	4b e0       	ldi	r20, 0x0B	; 11
    4620:	50 e0       	ldi	r21, 0x00	; 0
    4622:	81 ea       	ldi	r24, 0xA1	; 161
    4624:	91 e0       	ldi	r25, 0x01	; 1
    4626:	0e 94 cb 32 	call	0x6596	; 0x6596 <eeprom_read_block>
				scr::DigitZ(&pos, 3, corCurTube_cell.nTube);
    462a:	01 ea       	ldi	r16, 0xA1	; 161
    462c:	11 e0       	ldi	r17, 0x01	; 1
    462e:	f8 01       	movw	r30, r16
    4630:	25 81       	ldd	r18, Z+5	; 0x05
    4632:	36 81       	ldd	r19, Z+6	; 0x06
    4634:	40 e0       	ldi	r20, 0x00	; 0
    4636:	50 e0       	ldi	r21, 0x00	; 0
    4638:	63 e0       	ldi	r22, 0x03	; 3
    463a:	ce 01       	movw	r24, r28
    463c:	01 96       	adiw	r24, 0x01	; 1
    463e:	0e 94 f4 2b 	call	0x57e8	; 0x57e8 <_ZN6ns_lcd6DigitZEPhhl>
				scr::PutChar(&pos, ':');
    4642:	6a e3       	ldi	r22, 0x3A	; 58
    4644:	ce 01       	movw	r24, r28
    4646:	01 96       	adiw	r24, 0x01	; 1
    4648:	0e 94 44 2b 	call	0x5688	; 0x5688 <_ZN6ns_lcd7PutCharEPhc>
				scr::Digit(&pos, 5, corCurTube_cell.len);
    464c:	f8 01       	movw	r30, r16
    464e:	27 81       	ldd	r18, Z+7	; 0x07
    4650:	30 85       	ldd	r19, Z+8	; 0x08
    4652:	40 e0       	ldi	r20, 0x00	; 0
    4654:	50 e0       	ldi	r21, 0x00	; 0
    4656:	65 e0       	ldi	r22, 0x05	; 5
    4658:	ce 01       	movw	r24, r28
    465a:	01 96       	adiw	r24, 0x01	; 1
    465c:	0e 94 6c 2c 	call	0x58d8	; 0x58d8 <_ZN6ns_lcd5DigitEPhhl>
				//
				int8_t sq = corCurTube_cell.sqBas;
    4660:	f8 01       	movw	r30, r16
    4662:	82 85       	ldd	r24, Z+10	; 0x0a
				if (sq < 0) sq = -sq;
    4664:	87 fd       	sbrc	r24, 7
    4666:	81 95       	neg	r24
				calSq[0] = sq / 10;
    4668:	ef e8       	ldi	r30, 0x8F	; 143
    466a:	f1 e0       	ldi	r31, 0x01	; 1
    466c:	97 e6       	ldi	r25, 0x67	; 103
    466e:	89 02       	muls	r24, r25
    4670:	91 2d       	mov	r25, r1
    4672:	11 24       	eor	r1, r1
    4674:	95 95       	asr	r25
    4676:	95 95       	asr	r25
    4678:	87 fd       	sbrc	r24, 7
    467a:	93 95       	inc	r25
    467c:	90 83       	st	Z, r25
				calSq[1] = sq % 10;
    467e:	99 0f       	add	r25, r25
    4680:	29 2f       	mov	r18, r25
    4682:	22 0f       	add	r18, r18
    4684:	22 0f       	add	r18, r18
    4686:	92 0f       	add	r25, r18
    4688:	18 2f       	mov	r17, r24
    468a:	19 1b       	sub	r17, r25
    468c:	11 83       	std	Z+1, r17	; 0x01
				calBas[0] = eeprom_read_word(&ns_vg::eeDistance[1]);
    468e:	85 ef       	ldi	r24, 0xF5	; 245
    4690:	9c e0       	ldi	r25, 0x0C	; 12
    4692:	0e 94 e3 32 	call	0x65c6	; 0x65c6 <eeprom_read_word>
    4696:	0f 2e       	mov	r0, r31
    4698:	fa e8       	ldi	r31, 0x8A	; 138
    469a:	ef 2e       	mov	r14, r31
    469c:	f1 e0       	ldi	r31, 0x01	; 1
    469e:	ff 2e       	mov	r15, r31
    46a0:	f0 2d       	mov	r31, r0
    46a2:	f7 01       	movw	r30, r14
    46a4:	91 83       	std	Z+1, r25	; 0x01
    46a6:	80 83       	st	Z, r24
				calBas[1] = eeprom_read_word(&ns_vg::eeDistance[calSq[1]]);
    46a8:	81 2f       	mov	r24, r17
    46aa:	90 e0       	ldi	r25, 0x00	; 0
    46ac:	88 0f       	add	r24, r24
    46ae:	99 1f       	adc	r25, r25
    46b0:	8d 50       	subi	r24, 0x0D	; 13
    46b2:	93 4f       	sbci	r25, 0xF3	; 243
    46b4:	0e 94 e3 32 	call	0x65c6	; 0x65c6 <eeprom_read_word>
    46b8:	f7 01       	movw	r30, r14
    46ba:	93 83       	std	Z+3, r25	; 0x03
    46bc:	82 83       	std	Z+2, r24	; 0x02
				CalibScrViewQ();
    46be:	16 df       	rcall	.-468    	; 0x44ec <_ZN7ns_menu13CalibScrViewQEv>
			}
			calSqX = 0;
    46c0:	10 92 8e 01 	sts	0x018E, r1	; 0x80018e <_ZN7ns_menu6calSqXE>
		}
    46c4:	0f 90       	pop	r0
    46c6:	df 91       	pop	r29
    46c8:	cf 91       	pop	r28
    46ca:	1f 91       	pop	r17
    46cc:	0f 91       	pop	r16
    46ce:	ff 90       	pop	r15
    46d0:	ef 90       	pop	r14
    46d2:	08 95       	ret

000046d4 <_ZN7ns_menu12CalibScrViewEh>:
		void CalibScrView(uint8_t k)
		{
    46d4:	cf 92       	push	r12
    46d6:	df 92       	push	r13
    46d8:	ef 92       	push	r14
    46da:	ff 92       	push	r15
    46dc:	0f 93       	push	r16
    46de:	1f 93       	push	r17
    46e0:	cf 93       	push	r28
    46e2:	df 93       	push	r29
    46e4:	00 d0       	rcall	.+0      	; 0x46e6 <_ZN7ns_menu12CalibScrViewEh+0x12>
    46e6:	cd b7       	in	r28, 0x3d	; 61
    46e8:	de b7       	in	r29, 0x3e	; 62
			uint8_t pos;
			//  
			if ( ns_vg::lenTubeNew )
    46ea:	80 91 04 02 	lds	r24, 0x0204	; 0x800204 <_ZN5ns_vg10lenTubeNewE>
    46ee:	88 23       	and	r24, r24
    46f0:	09 f4       	brne	.+2      	; 0x46f4 <_ZN7ns_menu12CalibScrViewEh+0x20>
    46f2:	95 c0       	rjmp	.+298    	; 0x481e <_ZN7ns_menu12CalibScrViewEh+0x14a>
			{
				ns_vg::lenTubeNew = 0;
    46f4:	10 92 04 02 	sts	0x0204, r1	; 0x800204 <_ZN5ns_vg10lenTubeNewE>
				scr::Clear();
    46f8:	34 d6       	rcall	.+3176   	; 0x5362 <_ZN6ns_lcd5ClearEv>
				pos = scr::SetPosition(0, 0);
    46fa:	60 e0       	ldi	r22, 0x00	; 0
    46fc:	80 e0       	ldi	r24, 0x00	; 0
    46fe:	5d d7       	rcall	.+3770   	; 0x55ba <_ZN6ns_lcd11SetPositionEhh>
    4700:	8a 83       	std	Y+2, r24	; 0x02
				if ( ns_vg::lenTubuStat == 10 )
    4702:	80 91 03 02 	lds	r24, 0x0203	; 0x800203 <_ZN5ns_vg11lenTubuStatE>
    4706:	8a 30       	cpi	r24, 0x0A	; 10
    4708:	31 f4       	brne	.+12     	; 0x4716 <_ZN7ns_menu12CalibScrViewEh+0x42>
				{
					scr::String_P(&pos, PSTR("ERROR   "));
    470a:	6b e2       	ldi	r22, 0x2B	; 43
    470c:	71 e0       	ldi	r23, 0x01	; 1
    470e:	ce 01       	movw	r24, r28
    4710:	02 96       	adiw	r24, 0x02	; 2
    4712:	0e 94 b2 2b 	call	0x5764	; 0x5764 <_ZN6ns_lcd8String_PEPhPKc>
				}
				if ( ns_vg::lenTubuStat == 1 )
    4716:	80 91 03 02 	lds	r24, 0x0203	; 0x800203 <_ZN5ns_vg11lenTubuStatE>
    471a:	81 30       	cpi	r24, 0x01	; 1
    471c:	d1 f4       	brne	.+52     	; 0x4752 <_ZN7ns_menu12CalibScrViewEh+0x7e>
				{
					scr::DigitZ(&pos, 3, ns_vg::nTube);
    471e:	20 91 07 02 	lds	r18, 0x0207	; 0x800207 <_ZN5ns_vg5nTubeE>
    4722:	30 91 08 02 	lds	r19, 0x0208	; 0x800208 <_ZN5ns_vg5nTubeE+0x1>
    4726:	40 e0       	ldi	r20, 0x00	; 0
    4728:	50 e0       	ldi	r21, 0x00	; 0
    472a:	63 e0       	ldi	r22, 0x03	; 3
    472c:	ce 01       	movw	r24, r28
    472e:	02 96       	adiw	r24, 0x02	; 2
    4730:	0e 94 f4 2b 	call	0x57e8	; 0x57e8 <_ZN6ns_lcd6DigitZEPhhl>
					scr::PutChar(&pos, ':');
    4734:	6a e3       	ldi	r22, 0x3A	; 58
    4736:	ce 01       	movw	r24, r28
    4738:	02 96       	adiw	r24, 0x02	; 2
    473a:	a6 d7       	rcall	.+3916   	; 0x5688 <_ZN6ns_lcd7PutCharEPhc>
					scr::Digit(&pos, 5, ns_vg::lenTube);
    473c:	20 91 2f 01 	lds	r18, 0x012F	; 0x80012f <_ZN5ns_vg7lenTubeE>
    4740:	30 91 30 01 	lds	r19, 0x0130	; 0x800130 <_ZN5ns_vg7lenTubeE+0x1>
    4744:	40 e0       	ldi	r20, 0x00	; 0
    4746:	50 e0       	ldi	r21, 0x00	; 0
    4748:	65 e0       	ldi	r22, 0x05	; 5
    474a:	ce 01       	movw	r24, r28
    474c:	02 96       	adiw	r24, 0x02	; 2
    474e:	0e 94 6c 2c 	call	0x58d8	; 0x58d8 <_ZN6ns_lcd5DigitEPhhl>
				}
				//   
				uint8_t pos = scr::SetPosition(7, 1);
    4752:	61 e0       	ldi	r22, 0x01	; 1
    4754:	87 e0       	ldi	r24, 0x07	; 7
    4756:	31 d7       	rcall	.+3682   	; 0x55ba <_ZN6ns_lcd11SetPositionEhh>
    4758:	89 83       	std	Y+1, r24	; 0x01
				int8_t sq = ns_vg::sqBas;
    475a:	80 91 02 02 	lds	r24, 0x0202	; 0x800202 <_ZN5ns_vg5sqBasE>
				if (sq < 0) sq = -sq;
    475e:	87 fd       	sbrc	r24, 7
    4760:	81 95       	neg	r24
				calSq[0] = sq / 10;
    4762:	07 e6       	ldi	r16, 0x67	; 103
    4764:	80 02       	muls	r24, r16
    4766:	01 2d       	mov	r16, r1
    4768:	11 24       	eor	r1, r1
    476a:	05 95       	asr	r16
    476c:	05 95       	asr	r16
    476e:	87 fd       	sbrc	r24, 7
    4770:	03 95       	inc	r16
    4772:	0f 2e       	mov	r0, r31
    4774:	ff e8       	ldi	r31, 0x8F	; 143
    4776:	ef 2e       	mov	r14, r31
    4778:	f1 e0       	ldi	r31, 0x01	; 1
    477a:	ff 2e       	mov	r15, r31
    477c:	f0 2d       	mov	r31, r0
    477e:	f7 01       	movw	r30, r14
    4780:	00 83       	st	Z, r16
				calSq[1] = sq % 10;
    4782:	20 2f       	mov	r18, r16
    4784:	22 0f       	add	r18, r18
    4786:	92 2f       	mov	r25, r18
    4788:	99 0f       	add	r25, r25
    478a:	99 0f       	add	r25, r25
    478c:	92 0f       	add	r25, r18
    478e:	18 2f       	mov	r17, r24
    4790:	19 1b       	sub	r17, r25
    4792:	11 83       	std	Z+1, r17	; 0x01
				calSqX = 0;
    4794:	10 92 8e 01 	sts	0x018E, r1	; 0x80018e <_ZN7ns_menu6calSqXE>
				calBas[0] = eeprom_read_word(&ns_vg::eeDistance[1]);
    4798:	85 ef       	ldi	r24, 0xF5	; 245
    479a:	9c e0       	ldi	r25, 0x0C	; 12
    479c:	0e 94 e3 32 	call	0x65c6	; 0x65c6 <eeprom_read_word>
    47a0:	0f 2e       	mov	r0, r31
    47a2:	fa e8       	ldi	r31, 0x8A	; 138
    47a4:	cf 2e       	mov	r12, r31
    47a6:	f1 e0       	ldi	r31, 0x01	; 1
    47a8:	df 2e       	mov	r13, r31
    47aa:	f0 2d       	mov	r31, r0
    47ac:	f6 01       	movw	r30, r12
    47ae:	91 83       	std	Z+1, r25	; 0x01
    47b0:	80 83       	st	Z, r24
				calBas[1] = eeprom_read_word(&ns_vg::eeDistance[calSq[1]]);
    47b2:	81 2f       	mov	r24, r17
    47b4:	90 e0       	ldi	r25, 0x00	; 0
    47b6:	88 0f       	add	r24, r24
    47b8:	99 1f       	adc	r25, r25
    47ba:	8d 50       	subi	r24, 0x0D	; 13
    47bc:	93 4f       	sbci	r25, 0xF3	; 243
    47be:	0e 94 e3 32 	call	0x65c6	; 0x65c6 <eeprom_read_word>
    47c2:	f6 01       	movw	r30, r12
    47c4:	93 83       	std	Z+3, r25	; 0x03
    47c6:	82 83       	std	Z+2, r24	; 0x02
				//scr::DigitZ(&pos, 2, sq);
				scr::PutChar(&pos, '0' + calSq[0]);
    47c8:	60 e3       	ldi	r22, 0x30	; 48
    47ca:	60 0f       	add	r22, r16
    47cc:	ce 01       	movw	r24, r28
    47ce:	01 96       	adiw	r24, 0x01	; 1
    47d0:	5b d7       	rcall	.+3766   	; 0x5688 <_ZN6ns_lcd7PutCharEPhc>
				scr::PutChar(&pos, '0' + calSq[1]);
    47d2:	f7 01       	movw	r30, r14
    47d4:	61 81       	ldd	r22, Z+1	; 0x01
    47d6:	60 5d       	subi	r22, 0xD0	; 208
    47d8:	ce 01       	movw	r24, r28
    47da:	01 96       	adiw	r24, 0x01	; 1
    47dc:	55 d7       	rcall	.+3754   	; 0x5688 <_ZN6ns_lcd7PutCharEPhc>
				scr::String_P(&pos, PSTR(": "));
    47de:	68 e2       	ldi	r22, 0x28	; 40
    47e0:	71 e0       	ldi	r23, 0x01	; 1
    47e2:	ce 01       	movw	r24, r28
    47e4:	01 96       	adiw	r24, 0x01	; 1
    47e6:	be d7       	rcall	.+3964   	; 0x5764 <_ZN6ns_lcd8String_PEPhPKc>
				int16_t exl = ns_vg::lenTubuExl;
    47e8:	00 91 05 02 	lds	r16, 0x0205	; 0x800205 <_ZN5ns_vg10lenTubuExlE>
    47ec:	10 91 06 02 	lds	r17, 0x0206	; 0x800206 <_ZN5ns_vg10lenTubuExlE+0x1>
				if (exl < 0 )
    47f0:	11 23       	and	r17, r17
    47f2:	44 f4       	brge	.+16     	; 0x4804 <_ZN7ns_menu12CalibScrViewEh+0x130>
				{
					scr::PutChar(&pos, '-');
    47f4:	6d e2       	ldi	r22, 0x2D	; 45
    47f6:	ce 01       	movw	r24, r28
    47f8:	01 96       	adiw	r24, 0x01	; 1
    47fa:	46 d7       	rcall	.+3724   	; 0x5688 <_ZN6ns_lcd7PutCharEPhc>
					exl = -exl;
    47fc:	11 95       	neg	r17
    47fe:	01 95       	neg	r16
    4800:	11 09       	sbc	r17, r1
    4802:	04 c0       	rjmp	.+8      	; 0x480c <_ZN7ns_menu12CalibScrViewEh+0x138>
				}
				else scr::PutChar(&pos, '+');
    4804:	6b e2       	ldi	r22, 0x2B	; 43
    4806:	ce 01       	movw	r24, r28
    4808:	01 96       	adiw	r24, 0x01	; 1
    480a:	3e d7       	rcall	.+3708   	; 0x5688 <_ZN6ns_lcd7PutCharEPhc>
				scr::DigitZ(&pos, 4, exl);
    480c:	98 01       	movw	r18, r16
    480e:	11 0f       	add	r17, r17
    4810:	44 0b       	sbc	r20, r20
    4812:	55 0b       	sbc	r21, r21
    4814:	64 e0       	ldi	r22, 0x04	; 4
    4816:	ce 01       	movw	r24, r28
    4818:	01 96       	adiw	r24, 0x01	; 1
    481a:	e6 d7       	rcall	.+4044   	; 0x57e8 <_ZN6ns_lcd6DigitZEPhhl>

				CalibScrViewQ();
    481c:	67 de       	rcall	.-818    	; 0x44ec <_ZN7ns_menu13CalibScrViewQEv>
			}

		}
    481e:	0f 90       	pop	r0
    4820:	0f 90       	pop	r0
    4822:	df 91       	pop	r29
    4824:	cf 91       	pop	r28
    4826:	1f 91       	pop	r17
    4828:	0f 91       	pop	r16
    482a:	ff 90       	pop	r15
    482c:	ef 90       	pop	r14
    482e:	df 90       	pop	r13
    4830:	cf 90       	pop	r12
    4832:	08 95       	ret

00004834 <_ZN7ns_menu10CalibScrVVEh>:
		void CalibScrVV(uint8_t k)
		{
			key4->autoRepeat = false;
    4834:	e0 91 de 01 	lds	r30, 0x01DE	; 0x8001de <key4>
    4838:	f0 91 df 01 	lds	r31, 0x01DF	; 0x8001df <key4+0x1>
    483c:	10 82       	st	Z, r1
			if (calSqX > 1) calSqX = 1;
    483e:	80 91 8e 01 	lds	r24, 0x018E	; 0x80018e <_ZN7ns_menu6calSqXE>
    4842:	82 30       	cpi	r24, 0x02	; 2
    4844:	20 f0       	brcs	.+8      	; 0x484e <_ZN7ns_menu10CalibScrVVEh+0x1a>
    4846:	81 e0       	ldi	r24, 0x01	; 1
    4848:	80 93 8e 01 	sts	0x018E, r24	; 0x80018e <_ZN7ns_menu6calSqXE>
    484c:	0b c0       	rjmp	.+22     	; 0x4864 <_ZN7ns_menu10CalibScrVVEh+0x30>
			if (calSqX == 0)
    484e:	81 11       	cpse	r24, r1
    4850:	09 c0       	rjmp	.+18     	; 0x4864 <_ZN7ns_menu10CalibScrVVEh+0x30>
			{
				eeprom_update_word(&ns_vg::eeDistance[1], calBas[0]);
    4852:	60 91 8a 01 	lds	r22, 0x018A	; 0x80018a <_ZN7ns_menu6calBasE>
    4856:	70 91 8b 01 	lds	r23, 0x018B	; 0x80018b <_ZN7ns_menu6calBasE+0x1>
    485a:	85 ef       	ldi	r24, 0xF5	; 245
    485c:	9c e0       	ldi	r25, 0x0C	; 12
    485e:	0e 94 f9 32 	call	0x65f2	; 0x65f2 <eeprom_update_word>
    4862:	0d c0       	rjmp	.+26     	; 0x487e <_ZN7ns_menu10CalibScrVVEh+0x4a>
			}
			else
			{
				eeprom_update_word(&ns_vg::eeDistance[calSq[1]], calBas[1]);
    4864:	60 91 8c 01 	lds	r22, 0x018C	; 0x80018c <_ZN7ns_menu6calBasE+0x2>
    4868:	70 91 8d 01 	lds	r23, 0x018D	; 0x80018d <_ZN7ns_menu6calBasE+0x3>
    486c:	80 91 90 01 	lds	r24, 0x0190	; 0x800190 <_ZN7ns_menu5calSqE+0x1>
    4870:	90 e0       	ldi	r25, 0x00	; 0
    4872:	88 0f       	add	r24, r24
    4874:	99 1f       	adc	r25, r25
    4876:	8d 50       	subi	r24, 0x0D	; 13
    4878:	93 4f       	sbci	r25, 0xF3	; 243
    487a:	0e 94 f9 32 	call	0x65f2	; 0x65f2 <eeprom_update_word>
			}
			calSqX = 1 - calSqX;
    487e:	90 91 8e 01 	lds	r25, 0x018E	; 0x80018e <_ZN7ns_menu6calSqXE>
    4882:	81 e0       	ldi	r24, 0x01	; 1
    4884:	89 1b       	sub	r24, r25
    4886:	80 93 8e 01 	sts	0x018E, r24	; 0x80018e <_ZN7ns_menu6calSqXE>
			CalibScrViewQ();
    488a:	30 ce       	rjmp	.-928    	; 0x44ec <_ZN7ns_menu13CalibScrViewQEv>
    488c:	08 95       	ret

0000488e <_ZN7ns_menu10CalibScrMnEh>:
			key4->autoRepeat = false;
			SetMode(MAIN);
		}
		void CalibScrMn(uint8_t k)
		{
			key4->autoRepeat = true;
    488e:	e0 91 de 01 	lds	r30, 0x01DE	; 0x8001de <key4>
    4892:	f0 91 df 01 	lds	r31, 0x01DF	; 0x8001df <key4+0x1>
    4896:	81 e0       	ldi	r24, 0x01	; 1
    4898:	80 83       	st	Z, r24
			if (calBas[calSqX] > 0) calBas[calSqX]--;
    489a:	80 91 8e 01 	lds	r24, 0x018E	; 0x80018e <_ZN7ns_menu6calSqXE>
    489e:	90 e0       	ldi	r25, 0x00	; 0
    48a0:	fc 01       	movw	r30, r24
    48a2:	ee 0f       	add	r30, r30
    48a4:	ff 1f       	adc	r31, r31
    48a6:	e6 57       	subi	r30, 0x76	; 118
    48a8:	fe 4f       	sbci	r31, 0xFE	; 254
    48aa:	20 81       	ld	r18, Z
    48ac:	31 81       	ldd	r19, Z+1	; 0x01
    48ae:	21 15       	cp	r18, r1
    48b0:	31 05       	cpc	r19, r1
    48b2:	49 f0       	breq	.+18     	; 0x48c6 <_ZN7ns_menu10CalibScrMnEh+0x38>
    48b4:	88 0f       	add	r24, r24
    48b6:	99 1f       	adc	r25, r25
    48b8:	fc 01       	movw	r30, r24
    48ba:	e6 57       	subi	r30, 0x76	; 118
    48bc:	fe 4f       	sbci	r31, 0xFE	; 254
    48be:	21 50       	subi	r18, 0x01	; 1
    48c0:	31 09       	sbc	r19, r1
    48c2:	31 83       	std	Z+1, r19	; 0x01
    48c4:	20 83       	st	Z, r18
			CalibScrViewQ();
    48c6:	12 ce       	rjmp	.-988    	; 0x44ec <_ZN7ns_menu13CalibScrViewQEv>
    48c8:	08 95       	ret

000048ca <_ZN7ns_menu10CalibScrPlEh>:
		}
		void CalibScrPl(uint8_t k)
		{
			key4->autoRepeat = true;
    48ca:	e0 91 de 01 	lds	r30, 0x01DE	; 0x8001de <key4>
    48ce:	f0 91 df 01 	lds	r31, 0x01DF	; 0x8001df <key4+0x1>
    48d2:	81 e0       	ldi	r24, 0x01	; 1
    48d4:	80 83       	st	Z, r24
			if (calBas[calSqX] > 15000) calBas[calSqX] = 15000;
    48d6:	80 91 8e 01 	lds	r24, 0x018E	; 0x80018e <_ZN7ns_menu6calSqXE>
    48da:	90 e0       	ldi	r25, 0x00	; 0
    48dc:	fc 01       	movw	r30, r24
    48de:	ee 0f       	add	r30, r30
    48e0:	ff 1f       	adc	r31, r31
    48e2:	e6 57       	subi	r30, 0x76	; 118
    48e4:	fe 4f       	sbci	r31, 0xFE	; 254
    48e6:	20 81       	ld	r18, Z
    48e8:	31 81       	ldd	r19, Z+1	; 0x01
    48ea:	29 39       	cpi	r18, 0x99	; 153
    48ec:	4a e3       	ldi	r20, 0x3A	; 58
    48ee:	34 07       	cpc	r19, r20
    48f0:	50 f0       	brcs	.+20     	; 0x4906 <_ZN7ns_menu10CalibScrPlEh+0x3c>
    48f2:	88 0f       	add	r24, r24
    48f4:	99 1f       	adc	r25, r25
    48f6:	fc 01       	movw	r30, r24
    48f8:	e6 57       	subi	r30, 0x76	; 118
    48fa:	fe 4f       	sbci	r31, 0xFE	; 254
    48fc:	88 e9       	ldi	r24, 0x98	; 152
    48fe:	9a e3       	ldi	r25, 0x3A	; 58
    4900:	91 83       	std	Z+1, r25	; 0x01
    4902:	80 83       	st	Z, r24
    4904:	0d c0       	rjmp	.+26     	; 0x4920 <_ZN7ns_menu10CalibScrPlEh+0x56>
			if (calBas[calSqX] < 15000) calBas[calSqX]++;
    4906:	28 39       	cpi	r18, 0x98	; 152
    4908:	4a e3       	ldi	r20, 0x3A	; 58
    490a:	34 07       	cpc	r19, r20
    490c:	48 f4       	brcc	.+18     	; 0x4920 <_ZN7ns_menu10CalibScrPlEh+0x56>
    490e:	88 0f       	add	r24, r24
    4910:	99 1f       	adc	r25, r25
    4912:	fc 01       	movw	r30, r24
    4914:	e6 57       	subi	r30, 0x76	; 118
    4916:	fe 4f       	sbci	r31, 0xFE	; 254
    4918:	2f 5f       	subi	r18, 0xFF	; 255
    491a:	3f 4f       	sbci	r19, 0xFF	; 255
    491c:	31 83       	std	Z+1, r19	; 0x01
    491e:	20 83       	st	Z, r18
			CalibScrViewQ();
    4920:	e5 cd       	rjmp	.-1078   	; 0x44ec <_ZN7ns_menu13CalibScrViewQEv>
    4922:	08 95       	ret

00004924 <_ZN7ns_menu12Sq2OnOffViewEv>:
		}
		// ==============================
		uint8_t sq2OnOffFl = 0;
		void Sq2OnOffView()
		{
			if (sq2OnOffFl == 0)
    4924:	80 91 89 01 	lds	r24, 0x0189	; 0x800189 <_ZN7ns_menu10sq2OnOffFlE>
    4928:	81 11       	cpse	r24, r1
    492a:	07 c0       	rjmp	.+14     	; 0x493a <_ZN7ns_menu12Sq2OnOffViewEv+0x16>
			{
				scr::String_P(scr::SetPosition(9, 1), PSTR("off") );
    492c:	61 e0       	ldi	r22, 0x01	; 1
    492e:	89 e0       	ldi	r24, 0x09	; 9
    4930:	44 d6       	rcall	.+3208   	; 0x55ba <_ZN6ns_lcd11SetPositionEhh>
    4932:	64 e2       	ldi	r22, 0x24	; 36
    4934:	71 e0       	ldi	r23, 0x01	; 1
    4936:	4b c7       	rjmp	.+3734   	; 0x57ce <_ZN6ns_lcd8String_PEhPKc>
    4938:	08 95       	ret
			}
			else
			{
				scr::String_P(scr::SetPosition(9, 1), PSTR("on ") );
    493a:	61 e0       	ldi	r22, 0x01	; 1
    493c:	89 e0       	ldi	r24, 0x09	; 9
    493e:	3d d6       	rcall	.+3194   	; 0x55ba <_ZN6ns_lcd11SetPositionEhh>
    4940:	60 e2       	ldi	r22, 0x20	; 32
    4942:	71 e0       	ldi	r23, 0x01	; 1
    4944:	44 d7       	rcall	.+3720   	; 0x57ce <_ZN6ns_lcd8String_PEhPKc>
				sq2OnOffFl = 1;
    4946:	81 e0       	ldi	r24, 0x01	; 1
    4948:	80 93 89 01 	sts	0x0189, r24	; 0x800189 <_ZN7ns_menu10sq2OnOffFlE>
    494c:	08 95       	ret

0000494e <_ZN7ns_menu8Sq2OnOffEh>:
			}
		}
		void Sq2OnOff(uint8_t k)
		{
			CRITICAL_SECTION { timeOut = 0; }
    494e:	8f b7       	in	r24, 0x3f	; 63
    return 1;
}

static __inline__ uint8_t __iCliRetVal(void)
{
    cli();
    4950:	f8 94       	cli
    4952:	10 92 bf 01 	sts	0x01BF, r1	; 0x8001bf <_ZN7ns_menu7timeOutE>
    4956:	10 92 c0 01 	sts	0x01C0, r1	; 0x8001c0 <_ZN7ns_menu7timeOutE+0x1>
    495a:	10 92 c1 01 	sts	0x01C1, r1	; 0x8001c1 <_ZN7ns_menu7timeOutE+0x2>
    495e:	10 92 c2 01 	sts	0x01C2, r1	; 0x8001c2 <_ZN7ns_menu7timeOutE+0x3>
    (void)__s;
}

static __inline__ void __iRestore(const  uint8_t *__s)
{
    SREG = *__s;
    4962:	8f bf       	out	0x3f, r24	; 63
			key4->autoRepeat = false;
    4964:	e0 91 de 01 	lds	r30, 0x01DE	; 0x8001de <key4>
    4968:	f0 91 df 01 	lds	r31, 0x01DF	; 0x8001df <key4+0x1>
    496c:	10 82       	st	Z, r1
			sq2OnOffFl = eeprom_read_byte(&ns_vg::eeFlSq2);
    496e:	8d ee       	ldi	r24, 0xED	; 237
    4970:	9c e0       	ldi	r25, 0x0C	; 12
    4972:	0e 94 db 32 	call	0x65b6	; 0x65b6 <eeprom_read_byte>
    4976:	80 93 89 01 	sts	0x0189, r24	; 0x800189 <_ZN7ns_menu10sq2OnOffFlE>
			scr::Clear();
    497a:	f3 d4       	rcall	.+2534   	; 0x5362 <_ZN6ns_lcd5ClearEv>
			scr::String_P(scr::SetPosition(0, 0), PSTR("mode render len") );
    497c:	60 e0       	ldi	r22, 0x00	; 0
    497e:	80 e0       	ldi	r24, 0x00	; 0
    4980:	1c d6       	rcall	.+3128   	; 0x55ba <_ZN6ns_lcd11SetPositionEhh>
    4982:	60 e1       	ldi	r22, 0x10	; 16
    4984:	71 e0       	ldi	r23, 0x01	; 1
    4986:	23 d7       	rcall	.+3654   	; 0x57ce <_ZN6ns_lcd8String_PEhPKc>
			scr::String_P(scr::SetPosition(0, 1), PSTR("from SQ2 ") );
    4988:	61 e0       	ldi	r22, 0x01	; 1
    498a:	80 e0       	ldi	r24, 0x00	; 0
    498c:	16 d6       	rcall	.+3116   	; 0x55ba <_ZN6ns_lcd11SetPositionEhh>
    498e:	66 e0       	ldi	r22, 0x06	; 6
    4990:	71 e0       	ldi	r23, 0x01	; 1
    4992:	1d d7       	rcall	.+3642   	; 0x57ce <_ZN6ns_lcd8String_PEhPKc>
			Sq2OnOffView();
    4994:	c7 df       	rcall	.-114    	; 0x4924 <_ZN7ns_menu12Sq2OnOffViewEv>
			CRITICAL_SECTION { timeOut = TIMEOUT_MENU; }
    4996:	8f b7       	in	r24, 0x3f	; 63
    return 1;
}

static __inline__ uint8_t __iCliRetVal(void)
{
    cli();
    4998:	f8 94       	cli
    499a:	40 e9       	ldi	r20, 0x90	; 144
    499c:	5f e5       	ldi	r21, 0x5F	; 95
    499e:	61 e0       	ldi	r22, 0x01	; 1
    49a0:	70 e0       	ldi	r23, 0x00	; 0
    49a2:	40 93 bf 01 	sts	0x01BF, r20	; 0x8001bf <_ZN7ns_menu7timeOutE>
    49a6:	50 93 c0 01 	sts	0x01C0, r21	; 0x8001c0 <_ZN7ns_menu7timeOutE+0x1>
    49aa:	60 93 c1 01 	sts	0x01C1, r22	; 0x8001c1 <_ZN7ns_menu7timeOutE+0x2>
    49ae:	70 93 c2 01 	sts	0x01C2, r23	; 0x8001c2 <_ZN7ns_menu7timeOutE+0x3>
    (void)__s;
}

static __inline__ void __iRestore(const  uint8_t *__s)
{
    SREG = *__s;
    49b2:	8f bf       	out	0x3f, r24	; 63
    __asm__ volatile ("" ::: "memory");
    49b4:	08 95       	ret

000049b6 <_ZN7ns_menu10Sq2OnOffMnEh>:
			key4->autoRepeat = false;
			SetMode(MENU_SELECT);
		}
		void Sq2OnOffMn(uint8_t k)
		{
			CRITICAL_SECTION { timeOut = TIMEOUT_MENU; }
    49b6:	8f b7       	in	r24, 0x3f	; 63
    return 1;
}

static __inline__ uint8_t __iCliRetVal(void)
{
    cli();
    49b8:	f8 94       	cli
    49ba:	40 e9       	ldi	r20, 0x90	; 144
    49bc:	5f e5       	ldi	r21, 0x5F	; 95
    49be:	61 e0       	ldi	r22, 0x01	; 1
    49c0:	70 e0       	ldi	r23, 0x00	; 0
    49c2:	40 93 bf 01 	sts	0x01BF, r20	; 0x8001bf <_ZN7ns_menu7timeOutE>
    49c6:	50 93 c0 01 	sts	0x01C0, r21	; 0x8001c0 <_ZN7ns_menu7timeOutE+0x1>
    49ca:	60 93 c1 01 	sts	0x01C1, r22	; 0x8001c1 <_ZN7ns_menu7timeOutE+0x2>
    49ce:	70 93 c2 01 	sts	0x01C2, r23	; 0x8001c2 <_ZN7ns_menu7timeOutE+0x3>
    (void)__s;
}

static __inline__ void __iRestore(const  uint8_t *__s)
{
    SREG = *__s;
    49d2:	8f bf       	out	0x3f, r24	; 63
			key4->autoRepeat = false;
    49d4:	e0 91 de 01 	lds	r30, 0x01DE	; 0x8001de <key4>
    49d8:	f0 91 df 01 	lds	r31, 0x01DF	; 0x8001df <key4+0x1>
    49dc:	10 82       	st	Z, r1
			sq2OnOffFl = 0;
    49de:	10 92 89 01 	sts	0x0189, r1	; 0x800189 <_ZN7ns_menu10sq2OnOffFlE>
			Sq2OnOffView();
    49e2:	a0 cf       	rjmp	.-192    	; 0x4924 <_ZN7ns_menu12Sq2OnOffViewEv>
    49e4:	08 95       	ret

000049e6 <_ZN7ns_menu10Sq2OnOffPlEh>:
		}
		void Sq2OnOffPl(uint8_t k)
		{
			CRITICAL_SECTION { timeOut = TIMEOUT_MENU; }
    49e6:	8f b7       	in	r24, 0x3f	; 63
    return 1;
}

static __inline__ uint8_t __iCliRetVal(void)
{
    cli();
    49e8:	f8 94       	cli
    49ea:	40 e9       	ldi	r20, 0x90	; 144
    49ec:	5f e5       	ldi	r21, 0x5F	; 95
    49ee:	61 e0       	ldi	r22, 0x01	; 1
    49f0:	70 e0       	ldi	r23, 0x00	; 0
    49f2:	40 93 bf 01 	sts	0x01BF, r20	; 0x8001bf <_ZN7ns_menu7timeOutE>
    49f6:	50 93 c0 01 	sts	0x01C0, r21	; 0x8001c0 <_ZN7ns_menu7timeOutE+0x1>
    49fa:	60 93 c1 01 	sts	0x01C1, r22	; 0x8001c1 <_ZN7ns_menu7timeOutE+0x2>
    49fe:	70 93 c2 01 	sts	0x01C2, r23	; 0x8001c2 <_ZN7ns_menu7timeOutE+0x3>
    (void)__s;
}

static __inline__ void __iRestore(const  uint8_t *__s)
{
    SREG = *__s;
    4a02:	8f bf       	out	0x3f, r24	; 63
			key4->autoRepeat = false;
    4a04:	e0 91 de 01 	lds	r30, 0x01DE	; 0x8001de <key4>
    4a08:	f0 91 df 01 	lds	r31, 0x01DF	; 0x8001df <key4+0x1>
    4a0c:	10 82       	st	Z, r1
			sq2OnOffFl = 1;
    4a0e:	81 e0       	ldi	r24, 0x01	; 1
    4a10:	80 93 89 01 	sts	0x0189, r24	; 0x800189 <_ZN7ns_menu10sq2OnOffFlE>
			Sq2OnOffView();
    4a14:	87 cf       	rjmp	.-242    	; 0x4924 <_ZN7ns_menu12Sq2OnOffViewEv>
    4a16:	08 95       	ret

00004a18 <_ZN9ns_module4InitEv>:
{
	uint16_t mSec = 0;
	uint8_t sec = 0;
	void Init()
	{
		ns_archive::Init();
    4a18:	0e 94 a6 02 	call	0x54c	; 0x54c <_ZN10ns_archive4InitEv>
		ns_menu::Init();
    4a1c:	0e 94 fa 17 	call	0x2ff4	; 0x2ff4 <_ZN7ns_menu4InitEv>
		ns_line::Init();
    4a20:	0c 94 1f 04 	jmp	0x83e	; 0x83e <_ZN7ns_line4InitEv>
    4a24:	08 95       	ret

00004a26 <_ZN9ns_module17InterruptLcdTimerEv>:
	}
	void InterruptLcdTimer()
	{
		ns_menu::Interrupt();
    4a26:	0e 94 4b 18 	call	0x3096	; 0x3096 <_ZN7ns_menu9InterruptEv>
		ns_archive::Interrupt();
    4a2a:	0c 94 d0 03 	jmp	0x7a0	; 0x7a0 <_ZN10ns_archive9InterruptEv>
    4a2e:	08 95       	ret

00004a30 <_ZN9ns_module18InterruptMainTimerEv>:
	}
	void InterruptMainTimer()
	{
		ns_line::Interrupt();
    4a30:	0c 94 cf 05 	jmp	0xb9e	; 0xb9e <_ZN7ns_line9InterruptEv>
    4a34:	08 95       	ret

00004a36 <_ZN8ns_clock5StartEv>:
	uint8_t level_sda;
	// ==============================
	//          I2C
	void Start()  //    
	{
		SDA_SCLK_HI;
    4a36:	df 9a       	sbi	0x1b, 7	; 27
    4a38:	de 9a       	sbi	0x1b, 6	; 27
		__delay_us(clc_zad);	//  
    4a3a:	85 e1       	ldi	r24, 0x15	; 21
    4a3c:	8a 95       	dec	r24
    4a3e:	f1 f7       	brne	.-4      	; 0x4a3c <_ZN8ns_clock5StartEv+0x6>
    4a40:	00 00       	nop
		SDA_WR = 0;				//  "0"    I2C
    4a42:	de 98       	cbi	0x1b, 6	; 27
		__delay_us(clc_zad);	//  
    4a44:	85 e1       	ldi	r24, 0x15	; 21
    4a46:	8a 95       	dec	r24
    4a48:	f1 f7       	brne	.-4      	; 0x4a46 <_ZN8ns_clock5StartEv+0x10>
    4a4a:	00 00       	nop
		SCLK_WR = 0;			//  "0"    I2C
    4a4c:	df 98       	cbi	0x1b, 7	; 27
    4a4e:	08 95       	ret

00004a50 <_ZN8ns_clock4StopEv>:
	}
	void Stop()						//    
	{
		SDA_WR = 0;				//  "0"    I2C
    4a50:	de 98       	cbi	0x1b, 6	; 27
		__delay_us(clc_zad);	//  
    4a52:	85 e1       	ldi	r24, 0x15	; 21
    4a54:	8a 95       	dec	r24
    4a56:	f1 f7       	brne	.-4      	; 0x4a54 <_ZN8ns_clock4StopEv+0x4>
    4a58:	00 00       	nop
		SCLK_WR = 1;			//  "1"      I2C
    4a5a:	df 9a       	sbi	0x1b, 7	; 27
		__delay_us(clc_zad);	//  
    4a5c:	85 e1       	ldi	r24, 0x15	; 21
    4a5e:	8a 95       	dec	r24
    4a60:	f1 f7       	brne	.-4      	; 0x4a5e <_ZN8ns_clock4StopEv+0xe>
    4a62:	00 00       	nop
		SDA_WR = 1;				//  "1"    I2C
    4a64:	de 9a       	sbi	0x1b, 6	; 27
    4a66:	08 95       	ret

00004a68 <_ZN8ns_clock5ClockEv>:
	}
	void Clock()				//   
	{								//   SDA    level_sda
		SCLK_WR = 1;			//  "1"      I2C
    4a68:	df 9a       	sbi	0x1b, 7	; 27
		level_sda = 1;			//      eeprom level_sda=1
    4a6a:	81 e0       	ldi	r24, 0x01	; 1
    4a6c:	80 93 dd 01 	sts	0x01DD, r24	; 0x8001dd <_ZN8ns_clock9level_sdaE>
		__delay_us(clc_zad);	//  
    4a70:	85 e1       	ldi	r24, 0x15	; 21
    4a72:	8a 95       	dec	r24
    4a74:	f1 f7       	brne	.-4      	; 0x4a72 <_ZN8ns_clock5ClockEv+0xa>
    4a76:	00 00       	nop
		if (!SDA_RD)
    4a78:	ce 9b       	sbis	0x19, 6	; 25
			level_sda = 0;		// SDA = 0,     eeprom
    4a7a:	10 92 dd 01 	sts	0x01DD, r1	; 0x8001dd <_ZN8ns_clock9level_sdaE>
		SCLK_WR = 0;			//  "0"    I2C
    4a7e:	df 98       	cbi	0x1b, 7	; 27
		__delay_us(clc_zad);	//  
    4a80:	85 e1       	ldi	r24, 0x15	; 21
    4a82:	8a 95       	dec	r24
    4a84:	f1 f7       	brne	.-4      	; 0x4a82 <_ZN8ns_clock5ClockEv+0x1a>
    4a86:	00 00       	nop
    4a88:	08 95       	ret

00004a8a <_ZN8ns_clock3AckEv>:
	}
	void Ack()						//   ack -   
	{
		SDA_WR = 0;					//  "0"    I2C
    4a8a:	de 98       	cbi	0x1b, 6	; 27
		Clock();					//   
    4a8c:	ed df       	rcall	.-38     	; 0x4a68 <_ZN8ns_clock5ClockEv>
		SDA_WR = 1;					//  "1"    I2C
    4a8e:	de 9a       	sbi	0x1b, 6	; 27
    4a90:	08 95       	ret

00004a92 <_ZN8ns_clock4NackEv>:
	}
	void Nack()						//   nack -   
	{
		SDA_WR = 1;					//  "1"    I2C
    4a92:	de 9a       	sbi	0x1b, 6	; 27
		Clock();					//   
    4a94:	e9 cf       	rjmp	.-46     	; 0x4a68 <_ZN8ns_clock5ClockEv>
    4a96:	08 95       	ret

00004a98 <_ZN8ns_clock6RecAckEv>:
	}
	void RecAck() //      eeprom (  level_sda)
	{
		SDA_IO = 0;       //   I2C  
    4a98:	d6 98       	cbi	0x1a, 6	; 26
		Clock();        //   
    4a9a:	e6 df       	rcall	.-52     	; 0x4a68 <_ZN8ns_clock5ClockEv>
		SDA_IO = 1;       //   I2C  
    4a9c:	d6 9a       	sbi	0x1a, 6	; 26
    4a9e:	08 95       	ret

00004aa0 <_ZN8ns_clock6InByteEv>:
	uint8_t InByte()
	{
		uint8_t bit_count;
		uint8_t data_i2c;
		data_i2c = 0;
		SDA_IO = 0;						//   I2C  
    4aa0:	d6 98       	cbi	0x1a, 6	; 26
    4aa2:	98 e0       	ldi	r25, 0x08	; 8
	}
	uint8_t InByte()
	{
		uint8_t bit_count;
		uint8_t data_i2c;
		data_i2c = 0;
    4aa4:	80 e0       	ldi	r24, 0x00	; 0
		SDA_IO = 0;						//   I2C  
		for(bit_count = 0; bit_count < 8; bit_count++) {
			SCLK_WR = 1;				//  "1"      I2C
    4aa6:	df 9a       	sbi	0x1b, 7	; 27
			__delay_us(clc_zad);		//  
    4aa8:	25 e1       	ldi	r18, 0x15	; 21
    4aaa:	2a 95       	dec	r18
    4aac:	f1 f7       	brne	.-4      	; 0x4aaa <_ZN8ns_clock6InByteEv+0xa>
    4aae:	00 00       	nop
			data_i2c <<= 1;
    4ab0:	88 0f       	add	r24, r24
			if(SDA_RD == 1)				//  SDA = 0,     eeprom
    4ab2:	ce 99       	sbic	0x19, 6	; 25
			  data_i2c += 1;
    4ab4:	8f 5f       	subi	r24, 0xFF	; 255
			SCLK_WR = 0;				//  "0"    I2C
    4ab6:	df 98       	cbi	0x1b, 7	; 27
			__delay_us(clc_zad);		//  
    4ab8:	25 e1       	ldi	r18, 0x15	; 21
    4aba:	2a 95       	dec	r18
    4abc:	f1 f7       	brne	.-4      	; 0x4aba <_ZN8ns_clock6InByteEv+0x1a>
    4abe:	00 00       	nop
    4ac0:	91 50       	subi	r25, 0x01	; 1
	{
		uint8_t bit_count;
		uint8_t data_i2c;
		data_i2c = 0;
		SDA_IO = 0;						//   I2C  
		for(bit_count = 0; bit_count < 8; bit_count++) {
    4ac2:	89 f7       	brne	.-30     	; 0x4aa6 <_ZN8ns_clock6InByteEv+0x6>
			if(SDA_RD == 1)				//  SDA = 0,     eeprom
			  data_i2c += 1;
			SCLK_WR = 0;				//  "0"    I2C
			__delay_us(clc_zad);		//  
		}
		SDA_IO=1;						//   I2C  
    4ac4:	d6 9a       	sbi	0x1a, 6	; 26
		return data_i2c;
	}
    4ac6:	08 95       	ret

00004ac8 <_ZN8ns_clock7OutByteEh>:
	void OutByte(uint8_t data_i2c)			//   
	{
    4ac8:	cf 93       	push	r28
    4aca:	df 93       	push	r29
    4acc:	d8 2f       	mov	r29, r24
    4ace:	c8 e0       	ldi	r28, 0x08	; 8
		uint8_t bit_count;
		for(bit_count = 0; bit_count < 8; bit_count++) {
			if(data_i2c & 0x80)
    4ad0:	dd 23       	and	r29, r29
    4ad2:	14 f4       	brge	.+4      	; 0x4ad8 <_ZN8ns_clock7OutByteEh+0x10>
				SDA_WR = 1;					//  "1"    I2C
    4ad4:	de 9a       	sbi	0x1b, 6	; 27
    4ad6:	01 c0       	rjmp	.+2      	; 0x4ada <_ZN8ns_clock7OutByteEh+0x12>
			else
				SDA_WR = 0;					//  "0"    I2C
    4ad8:	de 98       	cbi	0x1b, 6	; 27
			Clock();						//   
    4ada:	c6 df       	rcall	.-116    	; 0x4a68 <_ZN8ns_clock5ClockEv>
			data_i2c <<= 1;
    4adc:	dd 0f       	add	r29, r29
    4ade:	c1 50       	subi	r28, 0x01	; 1
		return data_i2c;
	}
	void OutByte(uint8_t data_i2c)			//   
	{
		uint8_t bit_count;
		for(bit_count = 0; bit_count < 8; bit_count++) {
    4ae0:	b9 f7       	brne	.-18     	; 0x4ad0 <_ZN8ns_clock7OutByteEh+0x8>
			else
				SDA_WR = 0;					//  "0"    I2C
			Clock();						//   
			data_i2c <<= 1;
		}
	}
    4ae2:	df 91       	pop	r29
    4ae4:	cf 91       	pop	r28
    4ae6:	08 95       	ret

00004ae8 <_ZN8ns_clock6WrPollEv>:
	void WrPoll()
	{
		Start();          //    
    4ae8:	a6 df       	rcall	.-180    	; 0x4a36 <_ZN8ns_clock5StartEv>
		OutByte(0xD0);    //   
    4aea:	80 ed       	ldi	r24, 0xD0	; 208
    4aec:	ed df       	rcall	.-38     	; 0x4ac8 <_ZN8ns_clock7OutByteEh>
		RecAck();         //      eeprom (  level_sda)
    4aee:	d4 cf       	rjmp	.-88     	; 0x4a98 <_ZN8ns_clock6RecAckEv>
    4af0:	08 95       	ret

00004af2 <_ZN8ns_clock14ClockBuffWriteEv>:
	uint16_t tik_count = 1;
	uint8_t tik_cn = 0;
	uint8_t tik = 0;
	uint8_t old_sec = 255;
	void ClockBuffWrite() //      
	{
    4af2:	ff 92       	push	r15
    4af4:	0f 93       	push	r16
    4af6:	1f 93       	push	r17
    4af8:	cf 93       	push	r28
    4afa:	df 93       	push	r29
		CRITICAL_SECTION
    4afc:	ff b6       	in	r15, 0x3f	; 63
    return 1;
}

static __inline__ uint8_t __iCliRetVal(void)
{
    cli();
    4afe:	f8 94       	cli
		{
			uint8_t count_byte;
			WrPoll();
    4b00:	f3 df       	rcall	.-26     	; 0x4ae8 <_ZN8ns_clock6WrPollEv>
			OutByte(0);       //  
    4b02:	80 e0       	ldi	r24, 0x00	; 0
    4b04:	e1 df       	rcall	.-62     	; 0x4ac8 <_ZN8ns_clock7OutByteEh>
			RecAck();         //      eeprom (  level_sda)
    4b06:	c8 df       	rcall	.-112    	; 0x4a98 <_ZN8ns_clock6RecAckEv>
    4b08:	c6 ec       	ldi	r28, 0xC6	; 198
    4b0a:	d1 e0       	ldi	r29, 0x01	; 1
    4b0c:	0e ec       	ldi	r16, 0xCE	; 206
    4b0e:	11 e0       	ldi	r17, 0x01	; 1
			for (count_byte = 0; count_byte < 8; count_byte++)
			{
				OutByte(clock_datas[count_byte]);	//    -
    4b10:	89 91       	ld	r24, Y+
    4b12:	da df       	rcall	.-76     	; 0x4ac8 <_ZN8ns_clock7OutByteEh>
				RecAck();							//      eeprom (  level_sda)
    4b14:	c1 df       	rcall	.-126    	; 0x4a98 <_ZN8ns_clock6RecAckEv>
		{
			uint8_t count_byte;
			WrPoll();
			OutByte(0);       //  
			RecAck();         //      eeprom (  level_sda)
			for (count_byte = 0; count_byte < 8; count_byte++)
    4b16:	c0 17       	cp	r28, r16
    4b18:	d1 07       	cpc	r29, r17
    4b1a:	d1 f7       	brne	.-12     	; 0x4b10 <_ZN8ns_clock14ClockBuffWriteEv+0x1e>
			{
				OutByte(clock_datas[count_byte]);	//    -
				RecAck();							//      eeprom (  level_sda)
			}
			Stop();         //    
    4b1c:	99 df       	rcall	.-206    	; 0x4a50 <_ZN8ns_clock4StopEv>
    (void)__s;
}

static __inline__ void __iRestore(const  uint8_t *__s)
{
    SREG = *__s;
    4b1e:	ff be       	out	0x3f, r15	; 63
		}
	}
    4b20:	df 91       	pop	r29
    4b22:	cf 91       	pop	r28
    4b24:	1f 91       	pop	r17
    4b26:	0f 91       	pop	r16
    4b28:	ff 90       	pop	r15
    4b2a:	08 95       	ret

00004b2c <_ZN8ns_clock13ClockBuffReadEv>:
	void ClockBuffRead() //      
	{
    4b2c:	ff 92       	push	r15
    4b2e:	0f 93       	push	r16
    4b30:	1f 93       	push	r17
    4b32:	cf 93       	push	r28
    4b34:	df 93       	push	r29
		CRITICAL_SECTION
    4b36:	ff b6       	in	r15, 0x3f	; 63
    return 1;
}

static __inline__ uint8_t __iCliRetVal(void)
{
    cli();
    4b38:	f8 94       	cli
		{
			uint8_t count_byte;
			WrPoll();
    4b3a:	d6 df       	rcall	.-84     	; 0x4ae8 <_ZN8ns_clock6WrPollEv>
			OutByte(0x00);  //  
    4b3c:	80 e0       	ldi	r24, 0x00	; 0
    4b3e:	c4 df       	rcall	.-120    	; 0x4ac8 <_ZN8ns_clock7OutByteEh>
			RecAck();       //      eeprom (  level_sda)
    4b40:	ab df       	rcall	.-170    	; 0x4a98 <_ZN8ns_clock6RecAckEv>
			Start();        //    
    4b42:	79 df       	rcall	.-270    	; 0x4a36 <_ZN8ns_clock5StartEv>
			OutByte(0xD1);  //   
    4b44:	81 ed       	ldi	r24, 0xD1	; 209
    4b46:	c0 df       	rcall	.-128    	; 0x4ac8 <_ZN8ns_clock7OutByteEh>
			RecAck();       //      eeprom (  level_sda)
    4b48:	a7 df       	rcall	.-178    	; 0x4a98 <_ZN8ns_clock6RecAckEv>
			for (count_byte = 0; count_byte < 8; count_byte++)
			{
				clock_data[count_byte] = InByte();    //    -
    4b4a:	aa df       	rcall	.-172    	; 0x4aa0 <_ZN8ns_clock6InByteEv>
    4b4c:	80 93 d5 01 	sts	0x01D5, r24	; 0x8001d5 <_ZN8ns_clock10clock_dataE>
    4b50:	c6 ed       	ldi	r28, 0xD6	; 214
    4b52:	d1 e0       	ldi	r29, 0x01	; 1
    4b54:	0d ed       	ldi	r16, 0xDD	; 221
    4b56:	11 e0       	ldi	r17, 0x01	; 1
				if (count_byte != 7)
				Ack();      //   ack -   
    4b58:	98 df       	rcall	.-208    	; 0x4a8a <_ZN8ns_clock3AckEv>
			Start();        //    
			OutByte(0xD1);  //   
			RecAck();       //      eeprom (  level_sda)
			for (count_byte = 0; count_byte < 8; count_byte++)
			{
				clock_data[count_byte] = InByte();    //    -
    4b5a:	a2 df       	rcall	.-188    	; 0x4aa0 <_ZN8ns_clock6InByteEv>
    4b5c:	89 93       	st	Y+, r24
				if (count_byte != 7)
    4b5e:	c0 17       	cp	r28, r16
    4b60:	d1 07       	cpc	r29, r17
    4b62:	d1 f7       	brne	.-12     	; 0x4b58 <_ZN8ns_clock13ClockBuffReadEv+0x2c>
				Ack();      //   ack -   
				else
				Nack();     //   nack -   
    4b64:	96 df       	rcall	.-212    	; 0x4a92 <_ZN8ns_clock4NackEv>
			}
			Stop(); //    
    4b66:	74 df       	rcall	.-280    	; 0x4a50 <_ZN8ns_clock4StopEv>
    (void)__s;
}

static __inline__ void __iRestore(const  uint8_t *__s)
{
    SREG = *__s;
    4b68:	ff be       	out	0x3f, r15	; 63
		}
	}
    4b6a:	df 91       	pop	r29
    4b6c:	cf 91       	pop	r28
    4b6e:	1f 91       	pop	r17
    4b70:	0f 91       	pop	r16
    4b72:	ff 90       	pop	r15
    4b74:	08 95       	ret

00004b76 <_ZN8ns_clock11RefreshTimeEv>:
	void RefreshTime(void) //      time[]
	{
    4b76:	cf 93       	push	r28
		CRITICAL_SECTION
    4b78:	cf b7       	in	r28, 0x3f	; 63
    return 1;
}

static __inline__ uint8_t __iCliRetVal(void)
{
    cli();
    4b7a:	f8 94       	cli
		{
			ClockBuffRead();		//   /  
    4b7c:	d7 df       	rcall	.-82     	; 0x4b2c <_ZN8ns_clock13ClockBuffReadEv>
			time[CT_SECOND] = (clock_data[CC_SECOND] & 0x0F) + (clock_data[CC_SECOND] >> 4) * 10;			// 
    4b7e:	a5 ed       	ldi	r26, 0xD5	; 213
    4b80:	b1 e0       	ldi	r27, 0x01	; 1
    4b82:	8c 91       	ld	r24, X
    4b84:	ee ec       	ldi	r30, 0xCE	; 206
    4b86:	f1 e0       	ldi	r31, 0x01	; 1
    4b88:	98 2f       	mov	r25, r24
    4b8a:	96 95       	lsr	r25
    4b8c:	96 95       	lsr	r25
    4b8e:	96 95       	lsr	r25
    4b90:	9e 71       	andi	r25, 0x1E	; 30
    4b92:	29 2f       	mov	r18, r25
    4b94:	22 0f       	add	r18, r18
    4b96:	22 0f       	add	r18, r18
    4b98:	92 0f       	add	r25, r18
    4b9a:	8f 70       	andi	r24, 0x0F	; 15
    4b9c:	89 0f       	add	r24, r25
    4b9e:	80 83       	st	Z, r24
			time[CT_MINUTE] = (clock_data[CC_MINUTE] & 0x0F) + (clock_data[CC_MINUTE] >> 4) * 10;			// 
    4ba0:	11 96       	adiw	r26, 0x01	; 1
    4ba2:	8c 91       	ld	r24, X
    4ba4:	11 97       	sbiw	r26, 0x01	; 1
    4ba6:	98 2f       	mov	r25, r24
    4ba8:	96 95       	lsr	r25
    4baa:	96 95       	lsr	r25
    4bac:	96 95       	lsr	r25
    4bae:	9e 71       	andi	r25, 0x1E	; 30
    4bb0:	29 2f       	mov	r18, r25
    4bb2:	22 0f       	add	r18, r18
    4bb4:	22 0f       	add	r18, r18
    4bb6:	92 0f       	add	r25, r18
    4bb8:	8f 70       	andi	r24, 0x0F	; 15
    4bba:	89 0f       	add	r24, r25
    4bbc:	81 83       	std	Z+1, r24	; 0x01
			time[CT_HOUR]   = (clock_data[CC_HOUR]   & 0x0F) + ((clock_data[CC_HOUR] >> 4) & 0x03) * 10;	// 
    4bbe:	12 96       	adiw	r26, 0x02	; 2
    4bc0:	2c 91       	ld	r18, X
    4bc2:	12 97       	sbiw	r26, 0x02	; 2
    4bc4:	82 2f       	mov	r24, r18
    4bc6:	90 e0       	ldi	r25, 0x00	; 0
    4bc8:	95 95       	asr	r25
    4bca:	87 95       	ror	r24
    4bcc:	95 95       	asr	r25
    4bce:	87 95       	ror	r24
    4bd0:	95 95       	asr	r25
    4bd2:	87 95       	ror	r24
    4bd4:	95 95       	asr	r25
    4bd6:	87 95       	ror	r24
    4bd8:	83 70       	andi	r24, 0x03	; 3
    4bda:	88 0f       	add	r24, r24
    4bdc:	98 2f       	mov	r25, r24
    4bde:	99 0f       	add	r25, r25
    4be0:	99 0f       	add	r25, r25
    4be2:	89 0f       	add	r24, r25
    4be4:	2f 70       	andi	r18, 0x0F	; 15
    4be6:	82 0f       	add	r24, r18
    4be8:	82 83       	std	Z+2, r24	; 0x02
			time[CT_DAY]    = (clock_data[CC_DAY]    & 0x07);												//  
    4bea:	13 96       	adiw	r26, 0x03	; 3
    4bec:	8c 91       	ld	r24, X
    4bee:	13 97       	sbiw	r26, 0x03	; 3
    4bf0:	87 70       	andi	r24, 0x07	; 7
    4bf2:	83 83       	std	Z+3, r24	; 0x03
			time[CT_DATE]   = (clock_data[CC_DATE]   & 0x0F) + ((clock_data[CC_DATE] >> 4) & 0x03) * 10;	// 
    4bf4:	14 96       	adiw	r26, 0x04	; 4
    4bf6:	2c 91       	ld	r18, X
    4bf8:	14 97       	sbiw	r26, 0x04	; 4
    4bfa:	82 2f       	mov	r24, r18
    4bfc:	90 e0       	ldi	r25, 0x00	; 0
    4bfe:	95 95       	asr	r25
    4c00:	87 95       	ror	r24
    4c02:	95 95       	asr	r25
    4c04:	87 95       	ror	r24
    4c06:	95 95       	asr	r25
    4c08:	87 95       	ror	r24
    4c0a:	95 95       	asr	r25
    4c0c:	87 95       	ror	r24
    4c0e:	83 70       	andi	r24, 0x03	; 3
    4c10:	88 0f       	add	r24, r24
    4c12:	98 2f       	mov	r25, r24
    4c14:	99 0f       	add	r25, r25
    4c16:	99 0f       	add	r25, r25
    4c18:	89 0f       	add	r24, r25
    4c1a:	2f 70       	andi	r18, 0x0F	; 15
    4c1c:	82 0f       	add	r24, r18
    4c1e:	84 83       	std	Z+4, r24	; 0x04
			time[CT_MONTH]  = (clock_data[CC_MONTH]  & 0x0F) + ((clock_data[CC_MONTH] >> 4) & 0x01) * 10;	// 
    4c20:	15 96       	adiw	r26, 0x05	; 5
    4c22:	8c 91       	ld	r24, X
    4c24:	15 97       	sbiw	r26, 0x05	; 5
    4c26:	84 fb       	bst	r24, 4
    4c28:	99 27       	eor	r25, r25
    4c2a:	90 f9       	bld	r25, 0
    4c2c:	99 0f       	add	r25, r25
    4c2e:	29 2f       	mov	r18, r25
    4c30:	22 0f       	add	r18, r18
    4c32:	22 0f       	add	r18, r18
    4c34:	92 0f       	add	r25, r18
    4c36:	8f 70       	andi	r24, 0x0F	; 15
    4c38:	89 0f       	add	r24, r25
    4c3a:	85 83       	std	Z+5, r24	; 0x05
			time[CT_YEAR]   = (clock_data[CC_YEAR]   & 0x0F) + (clock_data[CC_YEAR] >> 4) * 10;				// 
    4c3c:	16 96       	adiw	r26, 0x06	; 6
    4c3e:	8c 91       	ld	r24, X
    4c40:	98 2f       	mov	r25, r24
    4c42:	96 95       	lsr	r25
    4c44:	96 95       	lsr	r25
    4c46:	96 95       	lsr	r25
    4c48:	9e 71       	andi	r25, 0x1E	; 30
    4c4a:	29 2f       	mov	r18, r25
    4c4c:	22 0f       	add	r18, r18
    4c4e:	22 0f       	add	r18, r18
    4c50:	92 0f       	add	r25, r18
    4c52:	8f 70       	andi	r24, 0x0F	; 15
    4c54:	89 0f       	add	r24, r25
    4c56:	86 83       	std	Z+6, r24	; 0x06
    (void)__s;
}

static __inline__ void __iRestore(const  uint8_t *__s)
{
    SREG = *__s;
    4c58:	cf bf       	out	0x3f, r28	; 63
		}
	}
    4c5a:	cf 91       	pop	r28
    4c5c:	08 95       	ret

00004c5e <_ZN8ns_clock6RefSavEv>:
	void RefSav()
	{
		CRITICAL_SECTION
    4c5e:	9f b7       	in	r25, 0x3f	; 63
    return 1;
}

static __inline__ uint8_t __iCliRetVal(void)
{
    cli();
    4c60:	f8 94       	cli
    4c62:	e5 ed       	ldi	r30, 0xD5	; 213
    4c64:	f1 e0       	ldi	r31, 0x01	; 1
    4c66:	a6 ec       	ldi	r26, 0xC6	; 198
    4c68:	b1 e0       	ldi	r27, 0x01	; 1
    4c6a:	2d ed       	ldi	r18, 0xDD	; 221
    4c6c:	31 e0       	ldi	r19, 0x01	; 1
		{
			for (uint8_t i = 0; i < 8; i++)
				clock_datas[i] = clock_data[i];
    4c6e:	81 91       	ld	r24, Z+
    4c70:	8d 93       	st	X+, r24
	}
	void RefSav()
	{
		CRITICAL_SECTION
		{
			for (uint8_t i = 0; i < 8; i++)
    4c72:	e2 17       	cp	r30, r18
    4c74:	f3 07       	cpc	r31, r19
    4c76:	d9 f7       	brne	.-10     	; 0x4c6e <_ZN8ns_clock6RefSavEv+0x10>
    (void)__s;
}

static __inline__ void __iRestore(const  uint8_t *__s)
{
    SREG = *__s;
    4c78:	9f bf       	out	0x3f, r25	; 63
    __asm__ volatile ("" ::: "memory");
    4c7a:	08 95       	ret

00004c7c <_ZN8ns_clock7SetYearEh>:
				clock_datas[i] = clock_data[i];
		}
	}
	void SetYear(unsigned char year)
	{
		clock_datas[CC_YEAR] = ((year / 10) << 4) + (year % 10);
    4c7c:	9d ec       	ldi	r25, 0xCD	; 205
    4c7e:	89 9f       	mul	r24, r25
    4c80:	91 2d       	mov	r25, r1
    4c82:	11 24       	eor	r1, r1
    4c84:	96 95       	lsr	r25
    4c86:	96 95       	lsr	r25
    4c88:	96 95       	lsr	r25
    4c8a:	39 2f       	mov	r19, r25
    4c8c:	33 0f       	add	r19, r19
    4c8e:	23 2f       	mov	r18, r19
    4c90:	22 0f       	add	r18, r18
    4c92:	22 0f       	add	r18, r18
    4c94:	23 0f       	add	r18, r19
    4c96:	82 1b       	sub	r24, r18
    4c98:	20 e1       	ldi	r18, 0x10	; 16
    4c9a:	92 9f       	mul	r25, r18
    4c9c:	80 0d       	add	r24, r0
    4c9e:	11 24       	eor	r1, r1
    4ca0:	80 93 cc 01 	sts	0x01CC, r24	; 0x8001cc <_ZN8ns_clock11clock_datasE+0x6>
    4ca4:	08 95       	ret

00004ca6 <_ZN8ns_clock8SetMonthEh>:
	}
	void SetMonth(unsigned char mount)
	{
	 clock_datas[CC_MONTH] = ((mount/10)<<4)+(mount%10);
    4ca6:	9d ec       	ldi	r25, 0xCD	; 205
    4ca8:	89 9f       	mul	r24, r25
    4caa:	91 2d       	mov	r25, r1
    4cac:	11 24       	eor	r1, r1
    4cae:	96 95       	lsr	r25
    4cb0:	96 95       	lsr	r25
    4cb2:	96 95       	lsr	r25
    4cb4:	39 2f       	mov	r19, r25
    4cb6:	33 0f       	add	r19, r19
    4cb8:	23 2f       	mov	r18, r19
    4cba:	22 0f       	add	r18, r18
    4cbc:	22 0f       	add	r18, r18
    4cbe:	23 0f       	add	r18, r19
    4cc0:	82 1b       	sub	r24, r18
    4cc2:	20 e1       	ldi	r18, 0x10	; 16
    4cc4:	92 9f       	mul	r25, r18
    4cc6:	80 0d       	add	r24, r0
    4cc8:	11 24       	eor	r1, r1
    4cca:	80 93 cb 01 	sts	0x01CB, r24	; 0x8001cb <_ZN8ns_clock11clock_datasE+0x5>
    4cce:	08 95       	ret

00004cd0 <_ZN8ns_clock7SetDateEh>:
	}
	void SetDate(unsigned char date)
	{
	 clock_datas[CC_DATE] = ((date/10)<<4)+(date%10);
    4cd0:	9d ec       	ldi	r25, 0xCD	; 205
    4cd2:	89 9f       	mul	r24, r25
    4cd4:	91 2d       	mov	r25, r1
    4cd6:	11 24       	eor	r1, r1
    4cd8:	96 95       	lsr	r25
    4cda:	96 95       	lsr	r25
    4cdc:	96 95       	lsr	r25
    4cde:	39 2f       	mov	r19, r25
    4ce0:	33 0f       	add	r19, r19
    4ce2:	23 2f       	mov	r18, r19
    4ce4:	22 0f       	add	r18, r18
    4ce6:	22 0f       	add	r18, r18
    4ce8:	23 0f       	add	r18, r19
    4cea:	82 1b       	sub	r24, r18
    4cec:	20 e1       	ldi	r18, 0x10	; 16
    4cee:	92 9f       	mul	r25, r18
    4cf0:	80 0d       	add	r24, r0
    4cf2:	11 24       	eor	r1, r1
    4cf4:	80 93 ca 01 	sts	0x01CA, r24	; 0x8001ca <_ZN8ns_clock11clock_datasE+0x4>
    4cf8:	08 95       	ret

00004cfa <_ZN8ns_clock7SetHourEh>:
	}
	void SetHour(unsigned char hour)
	{
		clock_datas[CC_HOUR] = ((hour / 10) << 4) + (hour % 10);
    4cfa:	9d ec       	ldi	r25, 0xCD	; 205
    4cfc:	89 9f       	mul	r24, r25
    4cfe:	91 2d       	mov	r25, r1
    4d00:	11 24       	eor	r1, r1
    4d02:	96 95       	lsr	r25
    4d04:	96 95       	lsr	r25
    4d06:	96 95       	lsr	r25
    4d08:	39 2f       	mov	r19, r25
    4d0a:	33 0f       	add	r19, r19
    4d0c:	23 2f       	mov	r18, r19
    4d0e:	22 0f       	add	r18, r18
    4d10:	22 0f       	add	r18, r18
    4d12:	23 0f       	add	r18, r19
    4d14:	82 1b       	sub	r24, r18
    4d16:	20 e1       	ldi	r18, 0x10	; 16
    4d18:	92 9f       	mul	r25, r18
    4d1a:	80 0d       	add	r24, r0
    4d1c:	11 24       	eor	r1, r1
    4d1e:	80 93 c8 01 	sts	0x01C8, r24	; 0x8001c8 <_ZN8ns_clock11clock_datasE+0x2>
    4d22:	08 95       	ret

00004d24 <_ZN8ns_clock9SetMinuteEh>:
	}
	void SetMinute(unsigned char minute)
	{
		clock_datas[CC_MINUTE] = ((minute / 10) << 4) + (minute % 10);
    4d24:	9d ec       	ldi	r25, 0xCD	; 205
    4d26:	89 9f       	mul	r24, r25
    4d28:	91 2d       	mov	r25, r1
    4d2a:	11 24       	eor	r1, r1
    4d2c:	96 95       	lsr	r25
    4d2e:	96 95       	lsr	r25
    4d30:	96 95       	lsr	r25
    4d32:	39 2f       	mov	r19, r25
    4d34:	33 0f       	add	r19, r19
    4d36:	23 2f       	mov	r18, r19
    4d38:	22 0f       	add	r18, r18
    4d3a:	22 0f       	add	r18, r18
    4d3c:	23 0f       	add	r18, r19
    4d3e:	82 1b       	sub	r24, r18
    4d40:	20 e1       	ldi	r18, 0x10	; 16
    4d42:	92 9f       	mul	r25, r18
    4d44:	80 0d       	add	r24, r0
    4d46:	11 24       	eor	r1, r1
    4d48:	80 93 c7 01 	sts	0x01C7, r24	; 0x8001c7 <_ZN8ns_clock11clock_datasE+0x1>
    4d4c:	08 95       	ret

00004d4e <_ZN8ns_clock13SetZeroSecondEv>:
	}
	void SetZeroSecond()
	{
		clock_datas[CC_SECOND] = 0;
    4d4e:	10 92 c6 01 	sts	0x01C6, r1	; 0x8001c6 <_ZN8ns_clock11clock_datasE>
    4d52:	08 95       	ret

00004d54 <_ZN8ns_clock6UpdateEv>:
	}
	void Update()
	{
		ClockBuffWrite();
    4d54:	ce ce       	rjmp	.-612    	; 0x4af2 <_ZN8ns_clock14ClockBuffWriteEv>
    4d56:	08 95       	ret

00004d58 <_ZN8ns_clock4InitEv>:
	}
	void Init()
	{
		SCLK_IO = 1;
    4d58:	d7 9a       	sbi	0x1a, 7	; 26
		SDA_IO  = 1;
    4d5a:	d6 9a       	sbi	0x1a, 6	; 26
		SDA_SCLK_HI;
    4d5c:	df 9a       	sbi	0x1b, 7	; 27
    4d5e:	de 9a       	sbi	0x1b, 6	; 27
		RefreshTime();
    4d60:	0a df       	rcall	.-492    	; 0x4b76 <_ZN8ns_clock11RefreshTimeEv>
		RefSav();
    4d62:	7d df       	rcall	.-262    	; 0x4c5e <_ZN8ns_clock6RefSavEv>
		if (time[CT_HOUR]   > 23)   SetHour(0);
    4d64:	80 91 d0 01 	lds	r24, 0x01D0	; 0x8001d0 <_ZN8ns_clock4timeE+0x2>
    4d68:	88 31       	cpi	r24, 0x18	; 24
    4d6a:	10 f0       	brcs	.+4      	; 0x4d70 <_ZN8ns_clock4InitEv+0x18>
	{
	 clock_datas[CC_DATE] = ((date/10)<<4)+(date%10);
	}
	void SetHour(unsigned char hour)
	{
		clock_datas[CC_HOUR] = ((hour / 10) << 4) + (hour % 10);
    4d6c:	10 92 c8 01 	sts	0x01C8, r1	; 0x8001c8 <_ZN8ns_clock11clock_datasE+0x2>
		SDA_IO  = 1;
		SDA_SCLK_HI;
		RefreshTime();
		RefSav();
		if (time[CT_HOUR]   > 23)   SetHour(0);
		if (time[CT_MINUTE] > 59) SetMinute(0);
    4d70:	80 91 cf 01 	lds	r24, 0x01CF	; 0x8001cf <_ZN8ns_clock4timeE+0x1>
    4d74:	8c 33       	cpi	r24, 0x3C	; 60
    4d76:	10 f0       	brcs	.+4      	; 0x4d7c <_ZN8ns_clock4InitEv+0x24>
	{
		clock_datas[CC_HOUR] = ((hour / 10) << 4) + (hour % 10);
	}
	void SetMinute(unsigned char minute)
	{
		clock_datas[CC_MINUTE] = ((minute / 10) << 4) + (minute % 10);
    4d78:	10 92 c7 01 	sts	0x01C7, r1	; 0x8001c7 <_ZN8ns_clock11clock_datasE+0x1>
		SDA_SCLK_HI;
		RefreshTime();
		RefSav();
		if (time[CT_HOUR]   > 23)   SetHour(0);
		if (time[CT_MINUTE] > 59) SetMinute(0);
		if (time[CT_SECOND] > 59) SetZeroSecond();
    4d7c:	80 91 ce 01 	lds	r24, 0x01CE	; 0x8001ce <_ZN8ns_clock4timeE>
    4d80:	8c 33       	cpi	r24, 0x3C	; 60
    4d82:	10 f0       	brcs	.+4      	; 0x4d88 <_ZN8ns_clock4InitEv+0x30>
	{
		clock_datas[CC_MINUTE] = ((minute / 10) << 4) + (minute % 10);
	}
	void SetZeroSecond()
	{
		clock_datas[CC_SECOND] = 0;
    4d84:	10 92 c6 01 	sts	0x01C6, r1	; 0x8001c6 <_ZN8ns_clock11clock_datasE>
		RefreshTime();
		RefSav();
		if (time[CT_HOUR]   > 23)   SetHour(0);
		if (time[CT_MINUTE] > 59) SetMinute(0);
		if (time[CT_SECOND] > 59) SetZeroSecond();
		clock_datas[CC_MODE] = 0x13;
    4d88:	83 e1       	ldi	r24, 0x13	; 19
    4d8a:	80 93 cd 01 	sts	0x01CD, r24	; 0x8001cd <_ZN8ns_clock11clock_datasE+0x7>
	{
		clock_datas[CC_SECOND] = 0;
	}
	void Update()
	{
		ClockBuffWrite();
    4d8e:	b1 ce       	rjmp	.-670    	; 0x4af2 <_ZN8ns_clock14ClockBuffWriteEv>
    4d90:	08 95       	ret

00004d92 <_ZN8ns_clock9InterruptEv>:
		clock_datas[CC_MODE] = 0x13;
		Update();
	}
	void Interrupt()
	{
		if (--tik_count > 0) return;
    4d92:	80 91 2c 01 	lds	r24, 0x012C	; 0x80012c <_ZN8ns_clock9tik_countE>
    4d96:	90 91 2d 01 	lds	r25, 0x012D	; 0x80012d <_ZN8ns_clock9tik_countE+0x1>
    4d9a:	01 97       	sbiw	r24, 0x01	; 1
    4d9c:	29 f0       	breq	.+10     	; 0x4da8 <_ZN8ns_clock9InterruptEv+0x16>
    4d9e:	90 93 2d 01 	sts	0x012D, r25	; 0x80012d <_ZN8ns_clock9tik_countE+0x1>
    4da2:	80 93 2c 01 	sts	0x012C, r24	; 0x80012c <_ZN8ns_clock9tik_countE>
    4da6:	08 95       	ret
		tik_count = 1000;
    4da8:	88 ee       	ldi	r24, 0xE8	; 232
    4daa:	93 e0       	ldi	r25, 0x03	; 3
    4dac:	90 93 2d 01 	sts	0x012D, r25	; 0x80012d <_ZN8ns_clock9tik_countE+0x1>
    4db0:	80 93 2c 01 	sts	0x012C, r24	; 0x80012c <_ZN8ns_clock9tik_countE>
		RefreshTime();
    4db4:	e0 de       	rcall	.-576    	; 0x4b76 <_ZN8ns_clock11RefreshTimeEv>
		if (++tik_cn > 1) tik_cn = 0;
    4db6:	80 91 c5 01 	lds	r24, 0x01C5	; 0x8001c5 <_ZN8ns_clock6tik_cnE>
    4dba:	8f 5f       	subi	r24, 0xFF	; 255
    4dbc:	82 30       	cpi	r24, 0x02	; 2
    4dbe:	18 f4       	brcc	.+6      	; 0x4dc6 <_ZN8ns_clock9InterruptEv+0x34>
    4dc0:	80 93 c5 01 	sts	0x01C5, r24	; 0x8001c5 <_ZN8ns_clock6tik_cnE>
    4dc4:	02 c0       	rjmp	.+4      	; 0x4dca <_ZN8ns_clock9InterruptEv+0x38>
    4dc6:	10 92 c5 01 	sts	0x01C5, r1	; 0x8001c5 <_ZN8ns_clock6tik_cnE>
		if (old_sec == time[CT_SECOND]) return;
    4dca:	80 91 ce 01 	lds	r24, 0x01CE	; 0x8001ce <_ZN8ns_clock4timeE>
    4dce:	90 91 2b 01 	lds	r25, 0x012B	; 0x80012b <_ZN8ns_clock7old_secE>
    4dd2:	89 17       	cp	r24, r25
    4dd4:	29 f0       	breq	.+10     	; 0x4de0 <_ZN8ns_clock9InterruptEv+0x4e>
		old_sec = time[CT_SECOND];
    4dd6:	80 93 2b 01 	sts	0x012B, r24	; 0x80012b <_ZN8ns_clock7old_secE>
		tik = 1;
    4dda:	81 e0       	ldi	r24, 0x01	; 1
    4ddc:	80 93 c4 01 	sts	0x01C4, r24	; 0x8001c4 <_ZN8ns_clock3tikE>
    4de0:	08 95       	ret

00004de2 <_ZN9ns_device4InitEv>:
tc_key4*	key4 = NULL;

namespace ns_device
{
	void Init()
	{
    4de2:	ef 92       	push	r14
    4de4:	ff 92       	push	r15
    4de6:	0f 93       	push	r16
    4de8:	1f 93       	push	r17
    4dea:	cf 93       	push	r28
    4dec:	df 93       	push	r29
		ns_LcdKeyTimer::Init();
    4dee:	29 d6       	rcall	.+3154   	; 0x5a42 <_ZN14ns_LcdKeyTimer4InitEv>
		lcdStdOut = ns_lcd::Init(16);
    4df0:	80 e1       	ldi	r24, 0x10	; 16
    4df2:	d6 d2       	rcall	.+1452   	; 0x53a0 <_ZN6ns_lcd4InitEh>
    4df4:	90 93 e3 01 	sts	0x01E3, r25	; 0x8001e3 <lcdStdOut+0x1>
    4df8:	80 93 e2 01 	sts	0x01E2, r24	; 0x8001e2 <lcdStdOut>
		key4 = new tc_key4;
    4dfc:	87 e1       	ldi	r24, 0x17	; 23
    4dfe:	90 e0       	ldi	r25, 0x00	; 0
    4e00:	08 d7       	rcall	.+3600   	; 0x5c12 <_Znwj>
    4e02:	ec 01       	movw	r28, r24
    4e04:	1e d0       	rcall	.+60     	; 0x4e42 <_ZN7tc_key4C1Ev>
    4e06:	d0 93 df 01 	sts	0x01DF, r29	; 0x8001df <key4+0x1>
    4e0a:	c0 93 de 01 	sts	0x01DE, r28	; 0x8001de <key4>
		ns_timerMain::Init();
    4e0e:	0e 94 9b 2f 	call	0x5f36	; 0x5f36 <_ZN12ns_timerMain4InitEv>
		rs232StdOut = ns_rs232::Init(baud9600, DISABLE, bit8, size16, size256);
    4e12:	e1 2c       	mov	r14, r1
    4e14:	ff 24       	eor	r15, r15
    4e16:	f3 94       	inc	r15
    4e18:	00 e1       	ldi	r16, 0x10	; 16
    4e1a:	10 e0       	ldi	r17, 0x00	; 0
    4e1c:	23 e0       	ldi	r18, 0x03	; 3
    4e1e:	40 e0       	ldi	r20, 0x00	; 0
    4e20:	60 e8       	ldi	r22, 0x80	; 128
    4e22:	75 e2       	ldi	r23, 0x25	; 37
    4e24:	80 e0       	ldi	r24, 0x00	; 0
    4e26:	90 e0       	ldi	r25, 0x00	; 0
    4e28:	f8 d6       	rcall	.+3568   	; 0x5c1a <_ZN8ns_rs2324InitE6rsBaud8rsParity5rsBit12rsBufferSizeS3_>
    4e2a:	90 93 e1 01 	sts	0x01E1, r25	; 0x8001e1 <rs232StdOut+0x1>
    4e2e:	80 93 e0 01 	sts	0x01E0, r24	; 0x8001e0 <rs232StdOut>
		ns_clock::Init();
    4e32:	92 df       	rcall	.-220    	; 0x4d58 <_ZN8ns_clock4InitEv>
		// =========
	}
    4e34:	df 91       	pop	r29
    4e36:	cf 91       	pop	r28
    4e38:	1f 91       	pop	r17
    4e3a:	0f 91       	pop	r16
    4e3c:	ff 90       	pop	r15
    4e3e:	ef 90       	pop	r14
    4e40:	08 95       	ret

00004e42 <_ZN7tc_key4C1Ev>:
unsigned char tc_key4::norm(unsigned char idx)
{
	while(idx >= KEY_BUFFER)
		idx -= KEY_BUFFER;
	return idx;
}
    4e42:	1f 93       	push	r17
    4e44:	cf 93       	push	r28
    4e46:	df 93       	push	r29
    4e48:	ec 01       	movw	r28, r24
    4e4a:	e4 e6       	ldi	r30, 0x64	; 100
    4e4c:	f0 e0       	ldi	r31, 0x00	; 0
    4e4e:	80 81       	ld	r24, Z
    4e50:	80 81       	ld	r24, Z
    4e52:	80 7f       	andi	r24, 0xF0	; 240
    4e54:	80 83       	st	Z, r24
    4e56:	e5 e6       	ldi	r30, 0x65	; 101
    4e58:	f0 e0       	ldi	r31, 0x00	; 0
    4e5a:	80 81       	ld	r24, Z
    4e5c:	8f 60       	ori	r24, 0x0F	; 15
    4e5e:	80 83       	st	Z, r24
    4e60:	8f ef       	ldi	r24, 0xFF	; 255
    4e62:	89 8b       	std	Y+17, r24	; 0x11
    4e64:	18 8a       	std	Y+16, r1	; 0x10
    4e66:	1f 86       	std	Y+15, r1	; 0x0f
    4e68:	1e 86       	std	Y+14, r1	; 0x0e
    4e6a:	1d 86       	std	Y+13, r1	; 0x0d
    4e6c:	1a 86       	std	Y+10, r1	; 0x0a
    4e6e:	19 86       	std	Y+9, r1	; 0x09
    4e70:	8b 87       	std	Y+11, r24	; 0x0b
    4e72:	1c 86       	std	Y+12, r1	; 0x0c
    4e74:	1d 8a       	std	Y+21, r1	; 0x15
    4e76:	1c 8a       	std	Y+20, r1	; 0x14
    4e78:	81 e0       	ldi	r24, 0x01	; 1
    4e7a:	88 83       	st	Y, r24
    4e7c:	80 e1       	ldi	r24, 0x10	; 16
    4e7e:	90 e0       	ldi	r25, 0x00	; 0
    4e80:	ca d6       	rcall	.+3476   	; 0x5c16 <_Znaj>
    4e82:	9b 8b       	std	Y+19, r25	; 0x13
    4e84:	8a 8b       	std	Y+18, r24	; 0x12
    4e86:	84 e0       	ldi	r24, 0x04	; 4
    4e88:	90 e0       	ldi	r25, 0x00	; 0
    4e8a:	c3 d6       	rcall	.+3462   	; 0x5c12 <_Znwj>
    4e8c:	fc 01       	movw	r30, r24
    4e8e:	11 82       	std	Z+1, r1	; 0x01
    4e90:	14 e1       	ldi	r17, 0x14	; 20
    4e92:	12 83       	std	Z+2, r17	; 0x02
    4e94:	13 82       	std	Z+3, r1	; 0x03
    4e96:	10 82       	st	Z, r1
    4e98:	9a 83       	std	Y+2, r25	; 0x02
    4e9a:	89 83       	std	Y+1, r24	; 0x01
    4e9c:	84 e0       	ldi	r24, 0x04	; 4
    4e9e:	90 e0       	ldi	r25, 0x00	; 0
    4ea0:	b8 d6       	rcall	.+3440   	; 0x5c12 <_Znwj>
    4ea2:	fc 01       	movw	r30, r24
    4ea4:	11 82       	std	Z+1, r1	; 0x01
    4ea6:	12 83       	std	Z+2, r17	; 0x02
    4ea8:	13 82       	std	Z+3, r1	; 0x03
    4eaa:	10 82       	st	Z, r1
    4eac:	9c 83       	std	Y+4, r25	; 0x04
    4eae:	8b 83       	std	Y+3, r24	; 0x03
    4eb0:	84 e0       	ldi	r24, 0x04	; 4
    4eb2:	90 e0       	ldi	r25, 0x00	; 0
    4eb4:	ae d6       	rcall	.+3420   	; 0x5c12 <_Znwj>
    4eb6:	fc 01       	movw	r30, r24
    4eb8:	11 82       	std	Z+1, r1	; 0x01
    4eba:	12 83       	std	Z+2, r17	; 0x02
    4ebc:	13 82       	std	Z+3, r1	; 0x03
    4ebe:	10 82       	st	Z, r1
    4ec0:	9e 83       	std	Y+6, r25	; 0x06
    4ec2:	8d 83       	std	Y+5, r24	; 0x05
    4ec4:	84 e0       	ldi	r24, 0x04	; 4
    4ec6:	90 e0       	ldi	r25, 0x00	; 0
    4ec8:	a4 d6       	rcall	.+3400   	; 0x5c12 <_Znwj>
    4eca:	fc 01       	movw	r30, r24
    4ecc:	11 82       	std	Z+1, r1	; 0x01
    4ece:	12 83       	std	Z+2, r17	; 0x02
    4ed0:	13 82       	std	Z+3, r1	; 0x03
    4ed2:	10 82       	st	Z, r1
    4ed4:	98 87       	std	Y+8, r25	; 0x08
    4ed6:	8f 83       	std	Y+7, r24	; 0x07
    4ed8:	df 91       	pop	r29
    4eda:	cf 91       	pop	r28
    4edc:	1f 91       	pop	r17
    4ede:	08 95       	ret

00004ee0 <_ZN7tc_key44NbitEh>:
    4ee0:	20 e0       	ldi	r18, 0x00	; 0
    4ee2:	30 e0       	ldi	r19, 0x00	; 0
    4ee4:	80 e0       	ldi	r24, 0x00	; 0
    4ee6:	70 e0       	ldi	r23, 0x00	; 0
    4ee8:	ab 01       	movw	r20, r22
    4eea:	02 2e       	mov	r0, r18
    4eec:	02 c0       	rjmp	.+4      	; 0x4ef2 <_ZN7tc_key44NbitEh+0x12>
    4eee:	55 95       	asr	r21
    4ef0:	47 95       	ror	r20
    4ef2:	0a 94       	dec	r0
    4ef4:	e2 f7       	brpl	.-8      	; 0x4eee <_ZN7tc_key44NbitEh+0xe>
    4ef6:	40 fd       	sbrc	r20, 0
    4ef8:	8f 5f       	subi	r24, 0xFF	; 255
    4efa:	2f 5f       	subi	r18, 0xFF	; 255
    4efc:	3f 4f       	sbci	r19, 0xFF	; 255
    4efe:	24 30       	cpi	r18, 0x04	; 4
    4f00:	31 05       	cpc	r19, r1
    4f02:	91 f7       	brne	.-28     	; 0x4ee8 <_ZN7tc_key44NbitEh+0x8>
    4f04:	08 95       	ret

00004f06 <_ZN7tc_key44PushEh>:

void tc_key4::Push(unsigned char dat)
{
    4f06:	dc 01       	movw	r26, r24
	CRITICAL_SECTION
    4f08:	3f b7       	in	r19, 0x3f	; 63
    return 1;
}

static __inline__ uint8_t __iCliRetVal(void)
{
    cli();
    4f0a:	f8 94       	cli
	{
		unsigned char adr = norm(head+1);
    4f0c:	54 96       	adiw	r26, 0x14	; 20
    4f0e:	8c 91       	ld	r24, X
    4f10:	54 97       	sbiw	r26, 0x14	; 20
    4f12:	91 e0       	ldi	r25, 0x01	; 1
    4f14:	98 0f       	add	r25, r24
	return xx;
}

unsigned char tc_key4::norm(unsigned char idx)
{
	while(idx >= KEY_BUFFER)
    4f16:	90 31       	cpi	r25, 0x10	; 16
    4f18:	30 f0       	brcs	.+12     	; 0x4f26 <_ZN7tc_key44PushEh+0x20>
		idx -= KEY_BUFFER;
    4f1a:	90 51       	subi	r25, 0x10	; 16
	return xx;
}

unsigned char tc_key4::norm(unsigned char idx)
{
	while(idx >= KEY_BUFFER)
    4f1c:	90 31       	cpi	r25, 0x10	; 16
    4f1e:	e8 f7       	brcc	.-6      	; 0x4f1a <_ZN7tc_key44PushEh+0x14>
    4f20:	91 ef       	ldi	r25, 0xF1	; 241
    4f22:	98 0f       	add	r25, r24
    4f24:	9f 70       	andi	r25, 0x0F	; 15
void tc_key4::Push(unsigned char dat)
{
	CRITICAL_SECTION
	{
		unsigned char adr = norm(head+1);
		if (tail == adr)
    4f26:	55 96       	adiw	r26, 0x15	; 21
    4f28:	2c 91       	ld	r18, X
    4f2a:	55 97       	sbiw	r26, 0x15	; 21
    4f2c:	29 17       	cp	r18, r25
    4f2e:	59 f0       	breq	.+22     	; 0x4f46 <_ZN7tc_key44PushEh+0x40>
			return;
		buffer[head] = dat;
    4f30:	52 96       	adiw	r26, 0x12	; 18
    4f32:	ed 91       	ld	r30, X+
    4f34:	fc 91       	ld	r31, X
    4f36:	53 97       	sbiw	r26, 0x13	; 19
    4f38:	e8 0f       	add	r30, r24
    4f3a:	f1 1d       	adc	r31, r1
    4f3c:	60 83       	st	Z, r22
		head = adr;
    4f3e:	54 96       	adiw	r26, 0x14	; 20
    4f40:	9c 93       	st	X, r25
    (void)__s;
}

static __inline__ void __iRestore(const  uint8_t *__s)
{
    SREG = *__s;
    4f42:	3f bf       	out	0x3f, r19	; 63
    __asm__ volatile ("" ::: "memory");
    4f44:	08 95       	ret
    (void)__s;
}

static __inline__ void __iRestore(const  uint8_t *__s)
{
    SREG = *__s;
    4f46:	3f bf       	out	0x3f, r19	; 63
    __asm__ volatile ("" ::: "memory");
    4f48:	08 95       	ret

00004f4a <_ZN7tc_key46SelectEv>:
			Select();
		}
	}
}
void tc_key4::Select()
{
    4f4a:	ff 92       	push	r15
    4f4c:	0f 93       	push	r16
    4f4e:	1f 93       	push	r17
    4f50:	cf 93       	push	r28
    4f52:	df 93       	push	r29
    4f54:	ec 01       	movw	r28, r24
	if (oldKey1 == 0)
    4f56:	1b 85       	ldd	r17, Y+11	; 0x0b
    4f58:	11 11       	cpse	r17, r1
    4f5a:	16 c0       	rjmp	.+44     	; 0x4f88 <_ZN7tc_key46SelectEv+0x3e>
	{
		if (oldKey2>0)
    4f5c:	6c 85       	ldd	r22, Y+12	; 0x0c
    4f5e:	66 23       	and	r22, r22
    4f60:	69 f0       	breq	.+26     	; 0x4f7c <_ZN7tc_key46SelectEv+0x32>
		{
			if (((countL2 <= TIME_PUSH) && !autoRepeat) || autoRepeat)
    4f62:	8d 85       	ldd	r24, Y+13	; 0x0d
    4f64:	9e 85       	ldd	r25, Y+14	; 0x0e
    4f66:	81 35       	cpi	r24, 0x51	; 81
    4f68:	91 05       	cpc	r25, r1
    4f6a:	18 f4       	brcc	.+6      	; 0x4f72 <_ZN7tc_key46SelectEv+0x28>
    4f6c:	88 81       	ld	r24, Y
    4f6e:	88 23       	and	r24, r24
    4f70:	19 f0       	breq	.+6      	; 0x4f78 <_ZN7tc_key46SelectEv+0x2e>
    4f72:	88 81       	ld	r24, Y
    4f74:	88 23       	and	r24, r24
    4f76:	11 f0       	breq	.+4      	; 0x4f7c <_ZN7tc_key46SelectEv+0x32>
//			if (((countL2 <= TIME_PUSH) && !autoRepeat) || ((countL2 >= TIME_PUSH) && autoRepeat))
				Push(oldKey2);
    4f78:	ce 01       	movw	r24, r28
    4f7a:	c5 df       	rcall	.-118    	; 0x4f06 <_ZN7tc_key44PushEh>
		}
			oldKey2 = 0;
    4f7c:	1c 86       	std	Y+12, r1	; 0x0c
			countL2 = 0;
    4f7e:	1e 86       	std	Y+14, r1	; 0x0e
    4f80:	1d 86       	std	Y+13, r1	; 0x0d
			countAut2 = 0;
    4f82:	18 8a       	std	Y+16, r1	; 0x10
    4f84:	1f 86       	std	Y+15, r1	; 0x0f
    4f86:	40 c0       	rjmp	.+128    	; 0x5008 <_ZN7tc_key46SelectEv+0xbe>
	}
	else
	{
		if ( Nbit(oldKey1) > Nbit(oldKey2) )
    4f88:	61 2f       	mov	r22, r17
    4f8a:	aa df       	rcall	.-172    	; 0x4ee0 <_ZN7tc_key44NbitEh>
    4f8c:	f8 2e       	mov	r15, r24
    4f8e:	0c 85       	ldd	r16, Y+12	; 0x0c
    4f90:	60 2f       	mov	r22, r16
    4f92:	ce 01       	movw	r24, r28
    4f94:	a5 df       	rcall	.-182    	; 0x4ee0 <_ZN7tc_key44NbitEh>
    4f96:	8f 15       	cp	r24, r15
    4f98:	10 f4       	brcc	.+4      	; 0x4f9e <_ZN7tc_key46SelectEv+0x54>
		{
			oldKey2 = oldKey1;
    4f9a:	1c 87       	std	Y+12, r17	; 0x0c
    4f9c:	02 c0       	rjmp	.+4      	; 0x4fa2 <_ZN7tc_key46SelectEv+0x58>
		}
		//
		if (oldKey1 == oldKey2)
    4f9e:	10 13       	cpse	r17, r16
    4fa0:	2f c0       	rjmp	.+94     	; 0x5000 <_ZN7tc_key46SelectEv+0xb6>
		{
			if (countL2 <= TIME_AUTO) countL2++;
    4fa2:	8d 85       	ldd	r24, Y+13	; 0x0d
    4fa4:	9e 85       	ldd	r25, Y+14	; 0x0e
    4fa6:	81 3d       	cpi	r24, 0xD1	; 209
    4fa8:	27 e0       	ldi	r18, 0x07	; 7
    4faa:	92 07       	cpc	r25, r18
    4fac:	18 f4       	brcc	.+6      	; 0x4fb4 <_ZN7tc_key46SelectEv+0x6a>
    4fae:	01 96       	adiw	r24, 0x01	; 1
    4fb0:	9e 87       	std	Y+14, r25	; 0x0e
    4fb2:	8d 87       	std	Y+13, r24	; 0x0d
			if (autoRepeat)
    4fb4:	88 81       	ld	r24, Y
    4fb6:	88 23       	and	r24, r24
    4fb8:	d1 f0       	breq	.+52     	; 0x4fee <_ZN7tc_key46SelectEv+0xa4>
			{
				if (countL2 >= TIME_AUTO)
    4fba:	8d 85       	ldd	r24, Y+13	; 0x0d
    4fbc:	9e 85       	ldd	r25, Y+14	; 0x0e
    4fbe:	80 3d       	cpi	r24, 0xD0	; 208
    4fc0:	97 40       	sbci	r25, 0x07	; 7
    4fc2:	10 f1       	brcs	.+68     	; 0x5008 <_ZN7tc_key46SelectEv+0xbe>
				{
					Push(oldKey2);
    4fc4:	61 2f       	mov	r22, r17
    4fc6:	ce 01       	movw	r24, r28
    4fc8:	9e df       	rcall	.-196    	; 0x4f06 <_ZN7tc_key44PushEh>
					if (countAut2 < TIME_AUT2)
    4fca:	8f 85       	ldd	r24, Y+15	; 0x0f
    4fcc:	98 89       	ldd	r25, Y+16	; 0x10
    4fce:	84 36       	cpi	r24, 0x64	; 100
    4fd0:	91 05       	cpc	r25, r1
    4fd2:	40 f4       	brcc	.+16     	; 0x4fe4 <_ZN7tc_key46SelectEv+0x9a>
					{
						countAut2++;
    4fd4:	01 96       	adiw	r24, 0x01	; 1
    4fd6:	98 8b       	std	Y+16, r25	; 0x10
    4fd8:	8f 87       	std	Y+15, r24	; 0x0f
						countL2 = TIME_AUT1;
    4fda:	88 e0       	ldi	r24, 0x08	; 8
    4fdc:	97 e0       	ldi	r25, 0x07	; 7
    4fde:	9e 87       	std	Y+14, r25	; 0x0e
    4fe0:	8d 87       	std	Y+13, r24	; 0x0d
    4fe2:	12 c0       	rjmp	.+36     	; 0x5008 <_ZN7tc_key46SelectEv+0xbe>
					}
					else
					{
						countL2 = TIME_AUTO - (TIME_AUTX / 20);
    4fe4:	86 ec       	ldi	r24, 0xC6	; 198
    4fe6:	97 e0       	ldi	r25, 0x07	; 7
    4fe8:	9e 87       	std	Y+14, r25	; 0x0e
    4fea:	8d 87       	std	Y+13, r24	; 0x0d
    4fec:	0d c0       	rjmp	.+26     	; 0x5008 <_ZN7tc_key46SelectEv+0xbe>
					
				}
			}
			else
			{
				if (countL2 == TIME_PUSH)
    4fee:	8d 85       	ldd	r24, Y+13	; 0x0d
    4ff0:	9e 85       	ldd	r25, Y+14	; 0x0e
    4ff2:	80 35       	cpi	r24, 0x50	; 80
    4ff4:	91 05       	cpc	r25, r1
    4ff6:	41 f4       	brne	.+16     	; 0x5008 <_ZN7tc_key46SelectEv+0xbe>
				Push(oldKey2);
    4ff8:	61 2f       	mov	r22, r17
    4ffa:	ce 01       	movw	r24, r28
    4ffc:	84 df       	rcall	.-248    	; 0x4f06 <_ZN7tc_key44PushEh>
    4ffe:	04 c0       	rjmp	.+8      	; 0x5008 <_ZN7tc_key46SelectEv+0xbe>
			}
		}
		else
		{
			countL2 = 0;
    5000:	1e 86       	std	Y+14, r1	; 0x0e
    5002:	1d 86       	std	Y+13, r1	; 0x0d
			countAut2 = 0;
    5004:	18 8a       	std	Y+16, r1	; 0x10
    5006:	1f 86       	std	Y+15, r1	; 0x0f
		}
	}
}
    5008:	df 91       	pop	r29
    500a:	cf 91       	pop	r28
    500c:	1f 91       	pop	r17
    500e:	0f 91       	pop	r16
    5010:	ff 90       	pop	r15
    5012:	08 95       	ret

00005014 <_ZN7tc_key49InterruptEv>:
tc_key4::~tc_key4()
{
} //~key4

void tc_key4::Interrupt()
{
    5014:	cf 93       	push	r28
    5016:	df 93       	push	r29
    5018:	1f 92       	push	r1
    501a:	cd b7       	in	r28, 0x3d	; 61
    501c:	de b7       	in	r29, 0x3e	; 62
    501e:	fc 01       	movw	r30, r24
	//
	unsigned char s = KEY_RD;
    5020:	80 91 63 00 	lds	r24, 0x0063	; 0x800063 <__TEXT_REGION_LENGTH__+0x7e0063>
    5024:	8f 70       	andi	r24, 0x0F	; 15
    5026:	89 83       	std	Y+1, r24	; 0x01
	keyX = 0;
    5028:	16 8a       	std	Z+22, r1	; 0x16
	keyX |= line1->Cirle(__port(s).bit3) << 0;
    502a:	89 81       	ldd	r24, Y+1	; 0x01
    502c:	83 fb       	bst	r24, 3
    502e:	88 27       	eor	r24, r24
    5030:	80 f9       	bld	r24, 0
    5032:	a1 81       	ldd	r26, Z+1	; 0x01
    5034:	b2 81       	ldd	r27, Z+2	; 0x02
		countMax = max;
		tr = tr_int = false;
	}
	unsigned char Cirle(unsigned char s)
	{
		CRITICAL_SECTION
    5036:	9f b7       	in	r25, 0x3f	; 63
    return 1;
}

static __inline__ uint8_t __iCliRetVal(void)
{
    cli();
    5038:	f8 94       	cli
		{
			if (s)
    503a:	88 23       	and	r24, r24
    503c:	a9 f0       	breq	.+42     	; 0x5068 <_ZN7tc_key49InterruptEv+0x54>
			{
				if (count>(ST)0) count--;
    503e:	11 96       	adiw	r26, 0x01	; 1
    5040:	8c 91       	ld	r24, X
    5042:	11 97       	sbiw	r26, 0x01	; 1
    5044:	88 23       	and	r24, r24
    5046:	31 f0       	breq	.+12     	; 0x5054 <_ZN7tc_key49InterruptEv+0x40>
    5048:	81 50       	subi	r24, 0x01	; 1
    504a:	11 96       	adiw	r26, 0x01	; 1
    504c:	8c 93       	st	X, r24
    504e:	11 97       	sbiw	r26, 0x01	; 1
				if ((count==(ST)0) && tr_int)
    5050:	81 11       	cpse	r24, r1
    5052:	25 c0       	rjmp	.+74     	; 0x509e <_ZN7tc_key49InterruptEv+0x8a>
    5054:	13 96       	adiw	r26, 0x03	; 3
    5056:	8c 91       	ld	r24, X
    5058:	13 97       	sbiw	r26, 0x03	; 3
    505a:	88 23       	and	r24, r24
    505c:	01 f1       	breq	.+64     	; 0x509e <_ZN7tc_key49InterruptEv+0x8a>
				tr = tr_int = false;
    505e:	13 96       	adiw	r26, 0x03	; 3
    5060:	1c 92       	st	X, r1
    5062:	13 97       	sbiw	r26, 0x03	; 3
    5064:	1c 92       	st	X, r1
    5066:	1b c0       	rjmp	.+54     	; 0x509e <_ZN7tc_key49InterruptEv+0x8a>
			}
			else
			{
				if (count<countMax) count++;
    5068:	11 96       	adiw	r26, 0x01	; 1
    506a:	8c 91       	ld	r24, X
    506c:	11 97       	sbiw	r26, 0x01	; 1
    506e:	12 96       	adiw	r26, 0x02	; 2
    5070:	2c 91       	ld	r18, X
    5072:	12 97       	sbiw	r26, 0x02	; 2
    5074:	82 17       	cp	r24, r18
    5076:	30 f4       	brcc	.+12     	; 0x5084 <_ZN7tc_key49InterruptEv+0x70>
    5078:	8f 5f       	subi	r24, 0xFF	; 255
    507a:	11 96       	adiw	r26, 0x01	; 1
    507c:	8c 93       	st	X, r24
    507e:	11 97       	sbiw	r26, 0x01	; 1
				if ((count>=countMax) && !tr_int)
    5080:	82 17       	cp	r24, r18
    5082:	68 f0       	brcs	.+26     	; 0x509e <_ZN7tc_key49InterruptEv+0x8a>
    5084:	13 96       	adiw	r26, 0x03	; 3
    5086:	8c 91       	ld	r24, X
    5088:	13 97       	sbiw	r26, 0x03	; 3
    508a:	81 11       	cpse	r24, r1
    508c:	08 c0       	rjmp	.+16     	; 0x509e <_ZN7tc_key49InterruptEv+0x8a>
				{
					tr = tr_int = true;
    508e:	81 e0       	ldi	r24, 0x01	; 1
    5090:	13 96       	adiw	r26, 0x03	; 3
    5092:	8c 93       	st	X, r24
    5094:	13 97       	sbiw	r26, 0x03	; 3
    5096:	8c 93       	st	X, r24
					count = countMax;
    5098:	11 96       	adiw	r26, 0x01	; 1
    509a:	2c 93       	st	X, r18
    509c:	11 97       	sbiw	r26, 0x01	; 1
				}
			}
			return tr_int;// ? 0 : 0xff;
    509e:	13 96       	adiw	r26, 0x03	; 3
    50a0:	8c 91       	ld	r24, X
    (void)__s;
}

static __inline__ void __iRestore(const  uint8_t *__s)
{
    SREG = *__s;
    50a2:	9f bf       	out	0x3f, r25	; 63
    50a4:	96 89       	ldd	r25, Z+22	; 0x16
    50a6:	89 2b       	or	r24, r25
    50a8:	86 8b       	std	Z+22, r24	; 0x16
	keyX |= line2->Cirle(__port(s).bit2) << 1;
    50aa:	89 81       	ldd	r24, Y+1	; 0x01
    50ac:	82 fb       	bst	r24, 2
    50ae:	88 27       	eor	r24, r24
    50b0:	80 f9       	bld	r24, 0
    50b2:	a3 81       	ldd	r26, Z+3	; 0x03
    50b4:	b4 81       	ldd	r27, Z+4	; 0x04
		countMax = max;
		tr = tr_int = false;
	}
	unsigned char Cirle(unsigned char s)
	{
		CRITICAL_SECTION
    50b6:	9f b7       	in	r25, 0x3f	; 63
    return 1;
}

static __inline__ uint8_t __iCliRetVal(void)
{
    cli();
    50b8:	f8 94       	cli
		{
			if (s)
    50ba:	88 23       	and	r24, r24
    50bc:	a9 f0       	breq	.+42     	; 0x50e8 <_ZN7tc_key49InterruptEv+0xd4>
			{
				if (count>(ST)0) count--;
    50be:	11 96       	adiw	r26, 0x01	; 1
    50c0:	8c 91       	ld	r24, X
    50c2:	11 97       	sbiw	r26, 0x01	; 1
    50c4:	88 23       	and	r24, r24
    50c6:	31 f0       	breq	.+12     	; 0x50d4 <_ZN7tc_key49InterruptEv+0xc0>
    50c8:	81 50       	subi	r24, 0x01	; 1
    50ca:	11 96       	adiw	r26, 0x01	; 1
    50cc:	8c 93       	st	X, r24
    50ce:	11 97       	sbiw	r26, 0x01	; 1
				if ((count==(ST)0) && tr_int)
    50d0:	81 11       	cpse	r24, r1
    50d2:	25 c0       	rjmp	.+74     	; 0x511e <_ZN7tc_key49InterruptEv+0x10a>
    50d4:	13 96       	adiw	r26, 0x03	; 3
    50d6:	8c 91       	ld	r24, X
    50d8:	13 97       	sbiw	r26, 0x03	; 3
    50da:	88 23       	and	r24, r24
    50dc:	01 f1       	breq	.+64     	; 0x511e <_ZN7tc_key49InterruptEv+0x10a>
				tr = tr_int = false;
    50de:	13 96       	adiw	r26, 0x03	; 3
    50e0:	1c 92       	st	X, r1
    50e2:	13 97       	sbiw	r26, 0x03	; 3
    50e4:	1c 92       	st	X, r1
    50e6:	1b c0       	rjmp	.+54     	; 0x511e <_ZN7tc_key49InterruptEv+0x10a>
			}
			else
			{
				if (count<countMax) count++;
    50e8:	11 96       	adiw	r26, 0x01	; 1
    50ea:	8c 91       	ld	r24, X
    50ec:	11 97       	sbiw	r26, 0x01	; 1
    50ee:	12 96       	adiw	r26, 0x02	; 2
    50f0:	2c 91       	ld	r18, X
    50f2:	12 97       	sbiw	r26, 0x02	; 2
    50f4:	82 17       	cp	r24, r18
    50f6:	30 f4       	brcc	.+12     	; 0x5104 <_ZN7tc_key49InterruptEv+0xf0>
    50f8:	8f 5f       	subi	r24, 0xFF	; 255
    50fa:	11 96       	adiw	r26, 0x01	; 1
    50fc:	8c 93       	st	X, r24
    50fe:	11 97       	sbiw	r26, 0x01	; 1
				if ((count>=countMax) && !tr_int)
    5100:	82 17       	cp	r24, r18
    5102:	68 f0       	brcs	.+26     	; 0x511e <_ZN7tc_key49InterruptEv+0x10a>
    5104:	13 96       	adiw	r26, 0x03	; 3
    5106:	8c 91       	ld	r24, X
    5108:	13 97       	sbiw	r26, 0x03	; 3
    510a:	81 11       	cpse	r24, r1
    510c:	08 c0       	rjmp	.+16     	; 0x511e <_ZN7tc_key49InterruptEv+0x10a>
				{
					tr = tr_int = true;
    510e:	81 e0       	ldi	r24, 0x01	; 1
    5110:	13 96       	adiw	r26, 0x03	; 3
    5112:	8c 93       	st	X, r24
    5114:	13 97       	sbiw	r26, 0x03	; 3
    5116:	8c 93       	st	X, r24
					count = countMax;
    5118:	11 96       	adiw	r26, 0x01	; 1
    511a:	2c 93       	st	X, r18
    511c:	11 97       	sbiw	r26, 0x01	; 1
				}
			}
			return tr_int;// ? 0 : 0xff;
    511e:	13 96       	adiw	r26, 0x03	; 3
    5120:	8c 91       	ld	r24, X
    (void)__s;
}

static __inline__ void __iRestore(const  uint8_t *__s)
{
    SREG = *__s;
    5122:	9f bf       	out	0x3f, r25	; 63
    5124:	90 e0       	ldi	r25, 0x00	; 0
    5126:	88 0f       	add	r24, r24
    5128:	99 1f       	adc	r25, r25
    512a:	26 89       	ldd	r18, Z+22	; 0x16
    512c:	82 2b       	or	r24, r18
    512e:	86 8b       	std	Z+22, r24	; 0x16
	keyX |= line3->Cirle(__port(s).bit1) << 2;
    5130:	89 81       	ldd	r24, Y+1	; 0x01
    5132:	86 95       	lsr	r24
    5134:	81 70       	andi	r24, 0x01	; 1
    5136:	a5 81       	ldd	r26, Z+5	; 0x05
    5138:	b6 81       	ldd	r27, Z+6	; 0x06
		countMax = max;
		tr = tr_int = false;
	}
	unsigned char Cirle(unsigned char s)
	{
		CRITICAL_SECTION
    513a:	9f b7       	in	r25, 0x3f	; 63
    return 1;
}

static __inline__ uint8_t __iCliRetVal(void)
{
    cli();
    513c:	f8 94       	cli
		{
			if (s)
    513e:	88 23       	and	r24, r24
    5140:	a9 f0       	breq	.+42     	; 0x516c <_ZN7tc_key49InterruptEv+0x158>
			{
				if (count>(ST)0) count--;
    5142:	11 96       	adiw	r26, 0x01	; 1
    5144:	8c 91       	ld	r24, X
    5146:	11 97       	sbiw	r26, 0x01	; 1
    5148:	88 23       	and	r24, r24
    514a:	31 f0       	breq	.+12     	; 0x5158 <_ZN7tc_key49InterruptEv+0x144>
    514c:	81 50       	subi	r24, 0x01	; 1
    514e:	11 96       	adiw	r26, 0x01	; 1
    5150:	8c 93       	st	X, r24
    5152:	11 97       	sbiw	r26, 0x01	; 1
				if ((count==(ST)0) && tr_int)
    5154:	81 11       	cpse	r24, r1
    5156:	25 c0       	rjmp	.+74     	; 0x51a2 <_ZN7tc_key49InterruptEv+0x18e>
    5158:	13 96       	adiw	r26, 0x03	; 3
    515a:	8c 91       	ld	r24, X
    515c:	13 97       	sbiw	r26, 0x03	; 3
    515e:	88 23       	and	r24, r24
    5160:	01 f1       	breq	.+64     	; 0x51a2 <_ZN7tc_key49InterruptEv+0x18e>
				tr = tr_int = false;
    5162:	13 96       	adiw	r26, 0x03	; 3
    5164:	1c 92       	st	X, r1
    5166:	13 97       	sbiw	r26, 0x03	; 3
    5168:	1c 92       	st	X, r1
    516a:	1b c0       	rjmp	.+54     	; 0x51a2 <_ZN7tc_key49InterruptEv+0x18e>
			}
			else
			{
				if (count<countMax) count++;
    516c:	11 96       	adiw	r26, 0x01	; 1
    516e:	8c 91       	ld	r24, X
    5170:	11 97       	sbiw	r26, 0x01	; 1
    5172:	12 96       	adiw	r26, 0x02	; 2
    5174:	2c 91       	ld	r18, X
    5176:	12 97       	sbiw	r26, 0x02	; 2
    5178:	82 17       	cp	r24, r18
    517a:	30 f4       	brcc	.+12     	; 0x5188 <_ZN7tc_key49InterruptEv+0x174>
    517c:	8f 5f       	subi	r24, 0xFF	; 255
    517e:	11 96       	adiw	r26, 0x01	; 1
    5180:	8c 93       	st	X, r24
    5182:	11 97       	sbiw	r26, 0x01	; 1
				if ((count>=countMax) && !tr_int)
    5184:	82 17       	cp	r24, r18
    5186:	68 f0       	brcs	.+26     	; 0x51a2 <_ZN7tc_key49InterruptEv+0x18e>
    5188:	13 96       	adiw	r26, 0x03	; 3
    518a:	8c 91       	ld	r24, X
    518c:	13 97       	sbiw	r26, 0x03	; 3
    518e:	81 11       	cpse	r24, r1
    5190:	08 c0       	rjmp	.+16     	; 0x51a2 <_ZN7tc_key49InterruptEv+0x18e>
				{
					tr = tr_int = true;
    5192:	81 e0       	ldi	r24, 0x01	; 1
    5194:	13 96       	adiw	r26, 0x03	; 3
    5196:	8c 93       	st	X, r24
    5198:	13 97       	sbiw	r26, 0x03	; 3
    519a:	8c 93       	st	X, r24
					count = countMax;
    519c:	11 96       	adiw	r26, 0x01	; 1
    519e:	2c 93       	st	X, r18
    51a0:	11 97       	sbiw	r26, 0x01	; 1
				}
			}
			return tr_int;// ? 0 : 0xff;
    51a2:	13 96       	adiw	r26, 0x03	; 3
    51a4:	8c 91       	ld	r24, X
    (void)__s;
}

static __inline__ void __iRestore(const  uint8_t *__s)
{
    SREG = *__s;
    51a6:	9f bf       	out	0x3f, r25	; 63
    51a8:	90 e0       	ldi	r25, 0x00	; 0
    51aa:	88 0f       	add	r24, r24
    51ac:	99 1f       	adc	r25, r25
    51ae:	88 0f       	add	r24, r24
    51b0:	99 1f       	adc	r25, r25
    51b2:	26 89       	ldd	r18, Z+22	; 0x16
    51b4:	82 2b       	or	r24, r18
    51b6:	86 8b       	std	Z+22, r24	; 0x16
	keyX |= line4->Cirle(__port(s).bit0) << 3;
    51b8:	89 81       	ldd	r24, Y+1	; 0x01
    51ba:	81 70       	andi	r24, 0x01	; 1
    51bc:	a7 81       	ldd	r26, Z+7	; 0x07
    51be:	b0 85       	ldd	r27, Z+8	; 0x08
		countMax = max;
		tr = tr_int = false;
	}
	unsigned char Cirle(unsigned char s)
	{
		CRITICAL_SECTION
    51c0:	9f b7       	in	r25, 0x3f	; 63
    return 1;
}

static __inline__ uint8_t __iCliRetVal(void)
{
    cli();
    51c2:	f8 94       	cli
		{
			if (s)
    51c4:	88 23       	and	r24, r24
    51c6:	a9 f0       	breq	.+42     	; 0x51f2 <_ZN7tc_key49InterruptEv+0x1de>
			{
				if (count>(ST)0) count--;
    51c8:	11 96       	adiw	r26, 0x01	; 1
    51ca:	8c 91       	ld	r24, X
    51cc:	11 97       	sbiw	r26, 0x01	; 1
    51ce:	88 23       	and	r24, r24
    51d0:	31 f0       	breq	.+12     	; 0x51de <_ZN7tc_key49InterruptEv+0x1ca>
    51d2:	81 50       	subi	r24, 0x01	; 1
    51d4:	11 96       	adiw	r26, 0x01	; 1
    51d6:	8c 93       	st	X, r24
    51d8:	11 97       	sbiw	r26, 0x01	; 1
				if ((count==(ST)0) && tr_int)
    51da:	81 11       	cpse	r24, r1
    51dc:	25 c0       	rjmp	.+74     	; 0x5228 <_ZN7tc_key49InterruptEv+0x214>
    51de:	13 96       	adiw	r26, 0x03	; 3
    51e0:	8c 91       	ld	r24, X
    51e2:	13 97       	sbiw	r26, 0x03	; 3
    51e4:	88 23       	and	r24, r24
    51e6:	01 f1       	breq	.+64     	; 0x5228 <_ZN7tc_key49InterruptEv+0x214>
				tr = tr_int = false;
    51e8:	13 96       	adiw	r26, 0x03	; 3
    51ea:	1c 92       	st	X, r1
    51ec:	13 97       	sbiw	r26, 0x03	; 3
    51ee:	1c 92       	st	X, r1
    51f0:	1b c0       	rjmp	.+54     	; 0x5228 <_ZN7tc_key49InterruptEv+0x214>
			}
			else
			{
				if (count<countMax) count++;
    51f2:	11 96       	adiw	r26, 0x01	; 1
    51f4:	8c 91       	ld	r24, X
    51f6:	11 97       	sbiw	r26, 0x01	; 1
    51f8:	12 96       	adiw	r26, 0x02	; 2
    51fa:	2c 91       	ld	r18, X
    51fc:	12 97       	sbiw	r26, 0x02	; 2
    51fe:	82 17       	cp	r24, r18
    5200:	30 f4       	brcc	.+12     	; 0x520e <_ZN7tc_key49InterruptEv+0x1fa>
    5202:	8f 5f       	subi	r24, 0xFF	; 255
    5204:	11 96       	adiw	r26, 0x01	; 1
    5206:	8c 93       	st	X, r24
    5208:	11 97       	sbiw	r26, 0x01	; 1
				if ((count>=countMax) && !tr_int)
    520a:	82 17       	cp	r24, r18
    520c:	68 f0       	brcs	.+26     	; 0x5228 <_ZN7tc_key49InterruptEv+0x214>
    520e:	13 96       	adiw	r26, 0x03	; 3
    5210:	8c 91       	ld	r24, X
    5212:	13 97       	sbiw	r26, 0x03	; 3
    5214:	81 11       	cpse	r24, r1
    5216:	08 c0       	rjmp	.+16     	; 0x5228 <_ZN7tc_key49InterruptEv+0x214>
				{
					tr = tr_int = true;
    5218:	81 e0       	ldi	r24, 0x01	; 1
    521a:	13 96       	adiw	r26, 0x03	; 3
    521c:	8c 93       	st	X, r24
    521e:	13 97       	sbiw	r26, 0x03	; 3
    5220:	8c 93       	st	X, r24
					count = countMax;
    5222:	11 96       	adiw	r26, 0x01	; 1
    5224:	2c 93       	st	X, r18
    5226:	11 97       	sbiw	r26, 0x01	; 1
				}
			}
			return tr_int;// ? 0 : 0xff;
    5228:	13 96       	adiw	r26, 0x03	; 3
    522a:	8c 91       	ld	r24, X
    (void)__s;
}

static __inline__ void __iRestore(const  uint8_t *__s)
{
    SREG = *__s;
    522c:	9f bf       	out	0x3f, r25	; 63
    522e:	90 e0       	ldi	r25, 0x00	; 0
    5230:	88 0f       	add	r24, r24
    5232:	99 1f       	adc	r25, r25
    5234:	88 0f       	add	r24, r24
    5236:	99 1f       	adc	r25, r25
    5238:	88 0f       	add	r24, r24
    523a:	99 1f       	adc	r25, r25
    523c:	26 89       	ldd	r18, Z+22	; 0x16
    523e:	82 2b       	or	r24, r18
    5240:	86 8b       	std	Z+22, r24	; 0x16
	//
	if (oldKey1!=keyX)
    5242:	23 85       	ldd	r18, Z+11	; 0x0b
    5244:	28 17       	cp	r18, r24
    5246:	69 f0       	breq	.+26     	; 0x5262 <_ZN7tc_key49InterruptEv+0x24e>
	{
		if (countL1>0)	countL1--;
    5248:	21 85       	ldd	r18, Z+9	; 0x09
    524a:	32 85       	ldd	r19, Z+10	; 0x0a
    524c:	21 15       	cp	r18, r1
    524e:	31 05       	cpc	r19, r1
    5250:	31 f0       	breq	.+12     	; 0x525e <_ZN7tc_key49InterruptEv+0x24a>
    5252:	21 50       	subi	r18, 0x01	; 1
    5254:	31 09       	sbc	r19, r1
    5256:	32 87       	std	Z+10, r19	; 0x0a
    5258:	21 87       	std	Z+9, r18	; 0x09
		if (countL1==0)
    525a:	23 2b       	or	r18, r19
    525c:	91 f4       	brne	.+36     	; 0x5282 <_ZN7tc_key49InterruptEv+0x26e>
		{
			oldKey1 = keyX;
    525e:	83 87       	std	Z+11, r24	; 0x0b
    5260:	10 c0       	rjmp	.+32     	; 0x5282 <_ZN7tc_key49InterruptEv+0x26e>
		}
	}
	else
	{
		if (countL1<TIME_STAB) countL1++;
    5262:	81 85       	ldd	r24, Z+9	; 0x09
    5264:	92 85       	ldd	r25, Z+10	; 0x0a
    5266:	88 32       	cpi	r24, 0x28	; 40
    5268:	91 05       	cpc	r25, r1
    526a:	28 f4       	brcc	.+10     	; 0x5276 <_ZN7tc_key49InterruptEv+0x262>
    526c:	01 96       	adiw	r24, 0x01	; 1
    526e:	92 87       	std	Z+10, r25	; 0x0a
    5270:	81 87       	std	Z+9, r24	; 0x09
		if (countL1>=TIME_STAB)
    5272:	88 97       	sbiw	r24, 0x28	; 40
    5274:	30 f0       	brcs	.+12     	; 0x5282 <_ZN7tc_key49InterruptEv+0x26e>
    5276:	cf 01       	movw	r24, r30
		{
			countL1 = TIME_STAB;
    5278:	28 e2       	ldi	r18, 0x28	; 40
    527a:	30 e0       	ldi	r19, 0x00	; 0
    527c:	32 87       	std	Z+10, r19	; 0x0a
    527e:	21 87       	std	Z+9, r18	; 0x09
			Select();
    5280:	64 de       	rcall	.-824    	; 0x4f4a <_ZN7tc_key46SelectEv>
		}
	}
}
    5282:	0f 90       	pop	r0
    5284:	df 91       	pop	r29
    5286:	cf 91       	pop	r28
    5288:	08 95       	ret

0000528a <_ZN7tc_key44ReadEPh>:
		head = adr;
	}
}

unsigned char tc_key4::Read(unsigned char* key)
{
    528a:	fc 01       	movw	r30, r24
	unsigned char k = 0;
	CRITICAL_SECTION
    528c:	2f b7       	in	r18, 0x3f	; 63
    return 1;
}

static __inline__ uint8_t __iCliRetVal(void)
{
    cli();
    528e:	f8 94       	cli
	{
		if (tail == head)
    5290:	85 89       	ldd	r24, Z+21	; 0x15
    5292:	94 89       	ldd	r25, Z+20	; 0x14
    5294:	89 13       	cpse	r24, r25
    5296:	04 c0       	rjmp	.+8      	; 0x52a0 <_ZN7tc_key44ReadEPh+0x16>
		{
			*key = 0;
    5298:	db 01       	movw	r26, r22
    529a:	1c 92       	st	X, r1
			return k;
    529c:	80 e0       	ldi	r24, 0x00	; 0
    529e:	22 c0       	rjmp	.+68     	; 0x52e4 <_ZN7tc_key44ReadEPh+0x5a>
		}
		*key = buffer[tail];
    52a0:	a2 89       	ldd	r26, Z+18	; 0x12
    52a2:	b3 89       	ldd	r27, Z+19	; 0x13
    52a4:	a8 0f       	add	r26, r24
    52a6:	b1 1d       	adc	r27, r1
    52a8:	8c 91       	ld	r24, X
    52aa:	db 01       	movw	r26, r22
    52ac:	8c 93       	st	X, r24
		tail = norm(tail+1);
    52ae:	85 89       	ldd	r24, Z+21	; 0x15
    52b0:	91 e0       	ldi	r25, 0x01	; 1
    52b2:	98 0f       	add	r25, r24
	return xx;
}

unsigned char tc_key4::norm(unsigned char idx)
{
	while(idx >= KEY_BUFFER)
    52b4:	90 31       	cpi	r25, 0x10	; 16
    52b6:	30 f0       	brcs	.+12     	; 0x52c4 <_ZN7tc_key44ReadEPh+0x3a>
		idx -= KEY_BUFFER;
    52b8:	90 51       	subi	r25, 0x10	; 16
	return xx;
}

unsigned char tc_key4::norm(unsigned char idx)
{
	while(idx >= KEY_BUFFER)
    52ba:	90 31       	cpi	r25, 0x10	; 16
    52bc:	e8 f7       	brcc	.-6      	; 0x52b8 <_ZN7tc_key44ReadEPh+0x2e>
    52be:	91 ef       	ldi	r25, 0xF1	; 241
    52c0:	98 0f       	add	r25, r24
    52c2:	9f 70       	andi	r25, 0x0F	; 15
		{
			*key = 0;
			return k;
		}
		*key = buffer[tail];
		tail = norm(tail+1);
    52c4:	95 8b       	std	Z+21, r25	; 0x15
		if (*key == KEY1) k = 1;
    52c6:	fb 01       	movw	r30, r22
    52c8:	80 81       	ld	r24, Z
    52ca:	81 30       	cpi	r24, 0x01	; 1
    52cc:	59 f0       	breq	.+22     	; 0x52e4 <_ZN7tc_key44ReadEPh+0x5a>
		else
		if (*key == KEY2) k = 2;
    52ce:	82 30       	cpi	r24, 0x02	; 2
    52d0:	49 f0       	breq	.+18     	; 0x52e4 <_ZN7tc_key44ReadEPh+0x5a>
		else
		if (*key == KEY3) k = 3;
    52d2:	84 30       	cpi	r24, 0x04	; 4
    52d4:	21 f0       	breq	.+8      	; 0x52de <_ZN7tc_key44ReadEPh+0x54>
		else
		if (*key == KEY4) k = 4;
    52d6:	88 30       	cpi	r24, 0x08	; 8
    52d8:	21 f0       	breq	.+8      	; 0x52e2 <_ZN7tc_key44ReadEPh+0x58>
		else k = 5;
    52da:	85 e0       	ldi	r24, 0x05	; 5
    52dc:	03 c0       	rjmp	.+6      	; 0x52e4 <_ZN7tc_key44ReadEPh+0x5a>
		tail = norm(tail+1);
		if (*key == KEY1) k = 1;
		else
		if (*key == KEY2) k = 2;
		else
		if (*key == KEY3) k = 3;
    52de:	83 e0       	ldi	r24, 0x03	; 3
    52e0:	01 c0       	rjmp	.+2      	; 0x52e4 <_ZN7tc_key44ReadEPh+0x5a>
		else
		if (*key == KEY4) k = 4;
    52e2:	84 e0       	ldi	r24, 0x04	; 4
    (void)__s;
}

static __inline__ void __iRestore(const  uint8_t *__s)
{
    SREG = *__s;
    52e4:	2f bf       	out	0x3f, r18	; 63
		else k = 5;
		return k;
	}
	return 0;
}
    52e6:	08 95       	ret

000052e8 <_ZN6ns_lcd4SendEh>:
	}
	// ==================================================
	void Hex(uint8_t pos, uint8_t dig)
	{
		Hex(&pos, dig);
	}
    52e8:	28 2f       	mov	r18, r24
    52ea:	22 95       	swap	r18
    52ec:	2f 70       	andi	r18, 0x0F	; 15
    52ee:	9b b3       	in	r25, 0x1b	; 27
    52f0:	90 7f       	andi	r25, 0xF0	; 240
    52f2:	92 2b       	or	r25, r18
    52f4:	9b bb       	out	0x1b, r25	; 27
    52f6:	dc 9a       	sbi	0x1b, 4	; 27
    52f8:	93 e0       	ldi	r25, 0x03	; 3
    52fa:	9a 95       	dec	r25
    52fc:	f1 f7       	brne	.-4      	; 0x52fa <_ZN6ns_lcd4SendEh+0x12>
    52fe:	00 00       	nop
    5300:	dc 98       	cbi	0x1b, 4	; 27
    5302:	93 e0       	ldi	r25, 0x03	; 3
    5304:	9a 95       	dec	r25
    5306:	f1 f7       	brne	.-4      	; 0x5304 <_ZN6ns_lcd4SendEh+0x1c>
    5308:	00 00       	nop
    530a:	8f 70       	andi	r24, 0x0F	; 15
    530c:	9b b3       	in	r25, 0x1b	; 27
    530e:	90 7f       	andi	r25, 0xF0	; 240
    5310:	89 2b       	or	r24, r25
    5312:	8b bb       	out	0x1b, r24	; 27
    5314:	dc 9a       	sbi	0x1b, 4	; 27
    5316:	83 e0       	ldi	r24, 0x03	; 3
    5318:	8a 95       	dec	r24
    531a:	f1 f7       	brne	.-4      	; 0x5318 <_ZN6ns_lcd4SendEh+0x30>
    531c:	00 00       	nop
    531e:	dc 98       	cbi	0x1b, 4	; 27
    5320:	93 e0       	ldi	r25, 0x03	; 3
    5322:	9a 95       	dec	r25
    5324:	f1 f7       	brne	.-4      	; 0x5322 <_ZN6ns_lcd4SendEh+0x3a>
    5326:	00 00       	nop
    5328:	08 95       	ret

0000532a <_ZN6ns_lcd11SendCommandEh>:
    532a:	cf 93       	push	r28
    532c:	cf b7       	in	r28, 0x3f	; 63
    532e:	f8 94       	cli
    5330:	dd 98       	cbi	0x1b, 5	; 27
    5332:	e7 ec       	ldi	r30, 0xC7	; 199
    5334:	f0 e0       	ldi	r31, 0x00	; 0
    5336:	31 97       	sbiw	r30, 0x01	; 1
    5338:	f1 f7       	brne	.-4      	; 0x5336 <_ZN6ns_lcd11SendCommandEh+0xc>
    533a:	00 c0       	rjmp	.+0      	; 0x533c <_ZN6ns_lcd11SendCommandEh+0x12>
    533c:	00 00       	nop
    533e:	d4 df       	rcall	.-88     	; 0x52e8 <_ZN6ns_lcd4SendEh>
    5340:	cf bf       	out	0x3f, r28	; 63
    5342:	cf 91       	pop	r28
    5344:	08 95       	ret

00005346 <_ZN6ns_lcd8SendDataEh>:
    5346:	cf 93       	push	r28
    5348:	cf b7       	in	r28, 0x3f	; 63
    534a:	f8 94       	cli
    534c:	dd 9a       	sbi	0x1b, 5	; 27
    534e:	e7 ec       	ldi	r30, 0xC7	; 199
    5350:	f0 e0       	ldi	r31, 0x00	; 0
    5352:	31 97       	sbiw	r30, 0x01	; 1
    5354:	f1 f7       	brne	.-4      	; 0x5352 <_ZN6ns_lcd8SendDataEh+0xc>
    5356:	00 c0       	rjmp	.+0      	; 0x5358 <_ZN6ns_lcd8SendDataEh+0x12>
    5358:	00 00       	nop
    535a:	c6 df       	rcall	.-116    	; 0x52e8 <_ZN6ns_lcd4SendEh>
    535c:	cf bf       	out	0x3f, r28	; 63
    535e:	cf 91       	pop	r28
    5360:	08 95       	ret

00005362 <_ZN6ns_lcd5ClearEv>:
    5362:	80 91 f5 01 	lds	r24, 0x01F5	; 0x8001f5 <_ZN6ns_lcd6maxPosE>
    5366:	88 23       	and	r24, r24
    5368:	71 f0       	breq	.+28     	; 0x5386 <_ZN6ns_lcd5ClearEv+0x24>
    536a:	80 e0       	ldi	r24, 0x00	; 0
    536c:	20 e2       	ldi	r18, 0x20	; 32
    536e:	e0 91 f3 01 	lds	r30, 0x01F3	; 0x8001f3 <_ZN6ns_lcd6screenE>
    5372:	f0 91 f4 01 	lds	r31, 0x01F4	; 0x8001f4 <_ZN6ns_lcd6screenE+0x1>
    5376:	e8 0f       	add	r30, r24
    5378:	f1 1d       	adc	r31, r1
    537a:	20 83       	st	Z, r18
    537c:	8f 5f       	subi	r24, 0xFF	; 255
    537e:	90 91 f5 01 	lds	r25, 0x01F5	; 0x8001f5 <_ZN6ns_lcd6maxPosE>
    5382:	89 17       	cp	r24, r25
    5384:	a0 f3       	brcs	.-24     	; 0x536e <_ZN6ns_lcd5ClearEv+0xc>
    5386:	eb ee       	ldi	r30, 0xEB	; 235
    5388:	f1 e0       	ldi	r31, 0x01	; 1
    538a:	10 82       	st	Z, r1
    538c:	11 82       	std	Z+1, r1	; 0x01
    538e:	12 82       	std	Z+2, r1	; 0x02
    5390:	13 82       	std	Z+3, r1	; 0x03
    5392:	14 82       	std	Z+4, r1	; 0x04
    5394:	15 82       	std	Z+5, r1	; 0x05
    5396:	16 82       	std	Z+6, r1	; 0x06
    5398:	17 82       	std	Z+7, r1	; 0x07
    539a:	10 92 e8 01 	sts	0x01E8, r1	; 0x8001e8 <_ZN6ns_lcd3posE>
    539e:	08 95       	ret

000053a0 <_ZN6ns_lcd4InitEh>:
    53a0:	0f 93       	push	r16
    53a2:	1f 93       	push	r17
    53a4:	cf 93       	push	r28
    53a6:	df 93       	push	r29
    53a8:	9a b3       	in	r25, 0x1a	; 26
    53aa:	9f 60       	ori	r25, 0x0F	; 15
    53ac:	9a bb       	out	0x1a, r25	; 26
    53ae:	9b b3       	in	r25, 0x1b	; 27
    53b0:	9f 60       	ori	r25, 0x0F	; 15
    53b2:	9b bb       	out	0x1b, r25	; 27
    53b4:	d4 9a       	sbi	0x1a, 4	; 26
    53b6:	dc 9a       	sbi	0x1b, 4	; 27
    53b8:	d5 9a       	sbi	0x1a, 5	; 26
    53ba:	dd 9a       	sbi	0x1b, 5	; 27
    53bc:	2f ef       	ldi	r18, 0xFF	; 255
    53be:	39 e6       	ldi	r19, 0x69	; 105
    53c0:	98 e1       	ldi	r25, 0x18	; 24
    53c2:	21 50       	subi	r18, 0x01	; 1
    53c4:	30 40       	sbci	r19, 0x00	; 0
    53c6:	90 40       	sbci	r25, 0x00	; 0
    53c8:	e1 f7       	brne	.-8      	; 0x53c2 <_ZN6ns_lcd4InitEh+0x22>
    53ca:	00 c0       	rjmp	.+0      	; 0x53cc <_ZN6ns_lcd4InitEh+0x2c>
    53cc:	00 00       	nop
    53ce:	80 93 2e 01 	sts	0x012E, r24	; 0x80012e <_ZN6ns_lcd10c_stolbcovE>
    53d2:	98 2f       	mov	r25, r24
    53d4:	99 0f       	add	r25, r25
    53d6:	90 93 f5 01 	sts	0x01F5, r25	; 0x8001f5 <_ZN6ns_lcd6maxPosE>
    53da:	90 e0       	ldi	r25, 0x00	; 0
    53dc:	88 0f       	add	r24, r24
    53de:	99 1f       	adc	r25, r25
    53e0:	1a d4       	rcall	.+2100   	; 0x5c16 <_Znaj>
    53e2:	90 93 f4 01 	sts	0x01F4, r25	; 0x8001f4 <_ZN6ns_lcd6screenE+0x1>
    53e6:	80 93 f3 01 	sts	0x01F3, r24	; 0x8001f3 <_ZN6ns_lcd6screenE>
    53ea:	10 92 e5 01 	sts	0x01E5, r1	; 0x8001e5 <_ZN6ns_lcd11indxRefreshE>
    53ee:	eb ee       	ldi	r30, 0xEB	; 235
    53f0:	f1 e0       	ldi	r31, 0x01	; 1
    53f2:	f0 93 ea 01 	sts	0x01EA, r31	; 0x8001ea <_ZN6ns_lcd11ptrScrFlashE+0x1>
    53f6:	e0 93 e9 01 	sts	0x01E9, r30	; 0x8001e9 <_ZN6ns_lcd11ptrScrFlashE>
    53fa:	10 92 e8 01 	sts	0x01E8, r1	; 0x8001e8 <_ZN6ns_lcd3posE>
    53fe:	10 82       	st	Z, r1
    5400:	11 82       	std	Z+1, r1	; 0x01
    5402:	12 82       	std	Z+2, r1	; 0x02
    5404:	13 82       	std	Z+3, r1	; 0x03
    5406:	14 82       	std	Z+4, r1	; 0x04
    5408:	15 82       	std	Z+5, r1	; 0x05
    540a:	16 82       	std	Z+6, r1	; 0x06
    540c:	17 82       	std	Z+7, r1	; 0x07
    540e:	10 92 e7 01 	sts	0x01E7, r1	; 0x8001e7 <_ZN6ns_lcd13scrFlashCountE+0x1>
    5412:	10 92 e6 01 	sts	0x01E6, r1	; 0x8001e6 <_ZN6ns_lcd13scrFlashCountE>
    5416:	10 92 e4 01 	sts	0x01E4, r1	; 0x8001e4 <_ZN6ns_lcd7flickerE>
    541a:	88 e2       	ldi	r24, 0x28	; 40
    541c:	86 df       	rcall	.-244    	; 0x532a <_ZN6ns_lcd11SendCommandEh>
    541e:	ef e3       	ldi	r30, 0x3F	; 63
    5420:	ff e1       	ldi	r31, 0x1F	; 31
    5422:	31 97       	sbiw	r30, 0x01	; 1
    5424:	f1 f7       	brne	.-4      	; 0x5422 <_ZN6ns_lcd4InitEh+0x82>
    5426:	00 c0       	rjmp	.+0      	; 0x5428 <_ZN6ns_lcd4InitEh+0x88>
    5428:	00 00       	nop
    542a:	88 e2       	ldi	r24, 0x28	; 40
    542c:	7e df       	rcall	.-260    	; 0x532a <_ZN6ns_lcd11SendCommandEh>
    542e:	8f e3       	ldi	r24, 0x3F	; 63
    5430:	9f e1       	ldi	r25, 0x1F	; 31
    5432:	01 97       	sbiw	r24, 0x01	; 1
    5434:	f1 f7       	brne	.-4      	; 0x5432 <_ZN6ns_lcd4InitEh+0x92>
    5436:	00 c0       	rjmp	.+0      	; 0x5438 <_ZN6ns_lcd4InitEh+0x98>
    5438:	00 00       	nop
    543a:	8c e0       	ldi	r24, 0x0C	; 12
    543c:	76 df       	rcall	.-276    	; 0x532a <_ZN6ns_lcd11SendCommandEh>
    543e:	81 e0       	ldi	r24, 0x01	; 1
    5440:	74 df       	rcall	.-280    	; 0x532a <_ZN6ns_lcd11SendCommandEh>
    5442:	ef e3       	ldi	r30, 0x3F	; 63
    5444:	ff e1       	ldi	r31, 0x1F	; 31
    5446:	31 97       	sbiw	r30, 0x01	; 1
    5448:	f1 f7       	brne	.-4      	; 0x5446 <_ZN6ns_lcd4InitEh+0xa6>
    544a:	00 c0       	rjmp	.+0      	; 0x544c <_ZN6ns_lcd4InitEh+0xac>
    544c:	00 00       	nop
    544e:	86 e0       	ldi	r24, 0x06	; 6
    5450:	6c df       	rcall	.-296    	; 0x532a <_ZN6ns_lcd11SendCommandEh>
    5452:	82 e0       	ldi	r24, 0x02	; 2
    5454:	6a df       	rcall	.-300    	; 0x532a <_ZN6ns_lcd11SendCommandEh>
    5456:	8f e3       	ldi	r24, 0x3F	; 63
    5458:	9f e1       	ldi	r25, 0x1F	; 31
    545a:	01 97       	sbiw	r24, 0x01	; 1
    545c:	f1 f7       	brne	.-4      	; 0x545a <_ZN6ns_lcd4InitEh+0xba>
    545e:	00 c0       	rjmp	.+0      	; 0x5460 <_ZN6ns_lcd4InitEh+0xc0>
    5460:	00 00       	nop
    5462:	80 e8       	ldi	r24, 0x80	; 128
    5464:	62 df       	rcall	.-316    	; 0x532a <_ZN6ns_lcd11SendCommandEh>
    5466:	ef e3       	ldi	r30, 0x3F	; 63
    5468:	ff e1       	ldi	r31, 0x1F	; 31
    546a:	31 97       	sbiw	r30, 0x01	; 1
    546c:	f1 f7       	brne	.-4      	; 0x546a <_ZN6ns_lcd4InitEh+0xca>
    546e:	00 c0       	rjmp	.+0      	; 0x5470 <_ZN6ns_lcd4InitEh+0xd0>
    5470:	00 00       	nop
    5472:	80 e4       	ldi	r24, 0x40	; 64
    5474:	5a df       	rcall	.-332    	; 0x532a <_ZN6ns_lcd11SendCommandEh>
    5476:	8f e9       	ldi	r24, 0x9F	; 159
    5478:	9f e0       	ldi	r25, 0x0F	; 15
    547a:	01 97       	sbiw	r24, 0x01	; 1
    547c:	f1 f7       	brne	.-4      	; 0x547a <_ZN6ns_lcd4InitEh+0xda>
    547e:	00 c0       	rjmp	.+0      	; 0x5480 <_ZN6ns_lcd4InitEh+0xe0>
    5480:	00 00       	nop
    5482:	c4 e6       	ldi	r28, 0x64	; 100
    5484:	d4 e0       	ldi	r29, 0x04	; 4
    5486:	04 e7       	ldi	r16, 0x74	; 116
    5488:	14 e0       	ldi	r17, 0x04	; 4
    548a:	fe 01       	movw	r30, r28
    548c:	84 91       	lpm	r24, Z
    548e:	5b df       	rcall	.-330    	; 0x5346 <_ZN6ns_lcd8SendDataEh>
    5490:	f0 e5       	ldi	r31, 0x50	; 80
    5492:	fa 95       	dec	r31
    5494:	f1 f7       	brne	.-4      	; 0x5492 <_ZN6ns_lcd4InitEh+0xf2>
    5496:	21 96       	adiw	r28, 0x01	; 1
    5498:	c0 17       	cp	r28, r16
    549a:	d1 07       	cpc	r29, r17
    549c:	b1 f7       	brne	.-20     	; 0x548a <_ZN6ns_lcd4InitEh+0xea>
    549e:	80 e8       	ldi	r24, 0x80	; 128
    54a0:	44 df       	rcall	.-376    	; 0x532a <_ZN6ns_lcd11SendCommandEh>
    54a2:	8f e9       	ldi	r24, 0x9F	; 159
    54a4:	9f e0       	ldi	r25, 0x0F	; 15
    54a6:	01 97       	sbiw	r24, 0x01	; 1
    54a8:	f1 f7       	brne	.-4      	; 0x54a6 <_ZN6ns_lcd4InitEh+0x106>
    54aa:	00 c0       	rjmp	.+0      	; 0x54ac <_ZN6ns_lcd4InitEh+0x10c>
    54ac:	00 00       	nop
    54ae:	59 df       	rcall	.-334    	; 0x5362 <_ZN6ns_lcd5ClearEv>
    54b0:	60 e0       	ldi	r22, 0x00	; 0
    54b2:	70 e0       	ldi	r23, 0x00	; 0
    54b4:	8d e5       	ldi	r24, 0x5D	; 93
    54b6:	9b e2       	ldi	r25, 0x2B	; 43
    54b8:	0e 94 60 32 	call	0x64c0	; 0x64c0 <fdevopen>
    54bc:	df 91       	pop	r29
    54be:	cf 91       	pop	r28
    54c0:	1f 91       	pop	r17
    54c2:	0f 91       	pop	r16
    54c4:	08 95       	ret

000054c6 <_ZN6ns_lcd9InterruptEv>:
    54c6:	80 91 e6 01 	lds	r24, 0x01E6	; 0x8001e6 <_ZN6ns_lcd13scrFlashCountE>
    54ca:	90 91 e7 01 	lds	r25, 0x01E7	; 0x8001e7 <_ZN6ns_lcd13scrFlashCountE+0x1>
    54ce:	01 96       	adiw	r24, 0x01	; 1
    54d0:	81 15       	cp	r24, r1
    54d2:	24 e0       	ldi	r18, 0x04	; 4
    54d4:	92 07       	cpc	r25, r18
    54d6:	28 f4       	brcc	.+10     	; 0x54e2 <_ZN6ns_lcd9InterruptEv+0x1c>
    54d8:	90 93 e7 01 	sts	0x01E7, r25	; 0x8001e7 <_ZN6ns_lcd13scrFlashCountE+0x1>
    54dc:	80 93 e6 01 	sts	0x01E6, r24	; 0x8001e6 <_ZN6ns_lcd13scrFlashCountE>
    54e0:	04 c0       	rjmp	.+8      	; 0x54ea <_ZN6ns_lcd9InterruptEv+0x24>
    54e2:	10 92 e7 01 	sts	0x01E7, r1	; 0x8001e7 <_ZN6ns_lcd13scrFlashCountE+0x1>
    54e6:	10 92 e6 01 	sts	0x01E6, r1	; 0x8001e6 <_ZN6ns_lcd13scrFlashCountE>
    54ea:	80 91 e5 01 	lds	r24, 0x01E5	; 0x8001e5 <_ZN6ns_lcd11indxRefreshE>
    54ee:	8f 5f       	subi	r24, 0xFF	; 255
    54f0:	80 93 e5 01 	sts	0x01E5, r24	; 0x8001e5 <_ZN6ns_lcd11indxRefreshE>
    54f4:	90 91 e5 01 	lds	r25, 0x01E5	; 0x8001e5 <_ZN6ns_lcd11indxRefreshE>
    54f8:	80 91 f5 01 	lds	r24, 0x01F5	; 0x8001f5 <_ZN6ns_lcd6maxPosE>
    54fc:	98 17       	cp	r25, r24
    54fe:	50 f0       	brcs	.+20     	; 0x5514 <_ZN6ns_lcd9InterruptEv+0x4e>
    5500:	10 92 e5 01 	sts	0x01E5, r1	; 0x8001e5 <_ZN6ns_lcd11indxRefreshE>
    5504:	8b ee       	ldi	r24, 0xEB	; 235
    5506:	91 e0       	ldi	r25, 0x01	; 1
    5508:	90 93 ea 01 	sts	0x01EA, r25	; 0x8001ea <_ZN6ns_lcd11ptrScrFlashE+0x1>
    550c:	80 93 e9 01 	sts	0x01E9, r24	; 0x8001e9 <_ZN6ns_lcd11ptrScrFlashE>
    5510:	80 e8       	ldi	r24, 0x80	; 128
    5512:	0b df       	rcall	.-490    	; 0x532a <_ZN6ns_lcd11SendCommandEh>
    5514:	90 91 e5 01 	lds	r25, 0x01E5	; 0x8001e5 <_ZN6ns_lcd11indxRefreshE>
    5518:	80 91 2e 01 	lds	r24, 0x012E	; 0x80012e <_ZN6ns_lcd10c_stolbcovE>
    551c:	98 13       	cpse	r25, r24
    551e:	08 c0       	rjmp	.+16     	; 0x5530 <_ZN6ns_lcd9InterruptEv+0x6a>
    5520:	8f ee       	ldi	r24, 0xEF	; 239
    5522:	91 e0       	ldi	r25, 0x01	; 1
    5524:	90 93 ea 01 	sts	0x01EA, r25	; 0x8001ea <_ZN6ns_lcd11ptrScrFlashE+0x1>
    5528:	80 93 e9 01 	sts	0x01E9, r24	; 0x8001e9 <_ZN6ns_lcd11ptrScrFlashE>
    552c:	80 ec       	ldi	r24, 0xC0	; 192
    552e:	fd de       	rcall	.-518    	; 0x532a <_ZN6ns_lcd11SendCommandEh>
    5530:	87 ec       	ldi	r24, 0xC7	; 199
    5532:	90 e0       	ldi	r25, 0x00	; 0
    5534:	01 97       	sbiw	r24, 0x01	; 1
    5536:	f1 f7       	brne	.-4      	; 0x5534 <_ZN6ns_lcd9InterruptEv+0x6e>
    5538:	00 c0       	rjmp	.+0      	; 0x553a <_ZN6ns_lcd9InterruptEv+0x74>
    553a:	00 00       	nop
    553c:	80 91 e5 01 	lds	r24, 0x01E5	; 0x8001e5 <_ZN6ns_lcd11indxRefreshE>
    5540:	e0 91 f3 01 	lds	r30, 0x01F3	; 0x8001f3 <_ZN6ns_lcd6screenE>
    5544:	f0 91 f4 01 	lds	r31, 0x01F4	; 0x8001f4 <_ZN6ns_lcd6screenE+0x1>
    5548:	e8 0f       	add	r30, r24
    554a:	f1 1d       	adc	r31, r1
    554c:	e0 81       	ld	r30, Z
    554e:	ee 23       	and	r30, r30
    5550:	24 f4       	brge	.+8      	; 0x555a <_ZN6ns_lcd9InterruptEv+0x94>
    5552:	f0 e0       	ldi	r31, 0x00	; 0
    5554:	ec 50       	subi	r30, 0x0C	; 12
    5556:	fc 4f       	sbci	r31, 0xFC	; 252
    5558:	e4 91       	lpm	r30, Z
    555a:	80 91 e5 01 	lds	r24, 0x01E5	; 0x8001e5 <_ZN6ns_lcd11indxRefreshE>
    555e:	a0 91 e9 01 	lds	r26, 0x01E9	; 0x8001e9 <_ZN6ns_lcd11ptrScrFlashE>
    5562:	b0 91 ea 01 	lds	r27, 0x01EA	; 0x8001ea <_ZN6ns_lcd11ptrScrFlashE+0x1>
    5566:	60 91 2e 01 	lds	r22, 0x012E	; 0x80012e <_ZN6ns_lcd10c_stolbcovE>
    556a:	3e d5       	rcall	.+2684   	; 0x5fe8 <__udivmodqi4>
    556c:	29 2f       	mov	r18, r25
    556e:	8d 91       	ld	r24, X+
    5570:	9d 91       	ld	r25, X+
    5572:	0d 90       	ld	r0, X+
    5574:	bc 91       	ld	r27, X
    5576:	a0 2d       	mov	r26, r0
    5578:	04 c0       	rjmp	.+8      	; 0x5582 <_ZN6ns_lcd9InterruptEv+0xbc>
    557a:	b6 95       	lsr	r27
    557c:	a7 95       	ror	r26
    557e:	97 95       	ror	r25
    5580:	87 95       	ror	r24
    5582:	2a 95       	dec	r18
    5584:	d2 f7       	brpl	.-12     	; 0x557a <_ZN6ns_lcd9InterruptEv+0xb4>
    5586:	80 ff       	sbrs	r24, 0
    5588:	08 c0       	rjmp	.+16     	; 0x559a <_ZN6ns_lcd9InterruptEv+0xd4>
    558a:	80 91 e6 01 	lds	r24, 0x01E6	; 0x8001e6 <_ZN6ns_lcd13scrFlashCountE>
    558e:	90 91 e7 01 	lds	r25, 0x01E7	; 0x8001e7 <_ZN6ns_lcd13scrFlashCountE+0x1>
    5592:	81 15       	cp	r24, r1
    5594:	92 40       	sbci	r25, 0x02	; 2
    5596:	08 f4       	brcc	.+2      	; 0x559a <_ZN6ns_lcd9InterruptEv+0xd4>
    5598:	e0 e2       	ldi	r30, 0x20	; 32
    559a:	8e 2f       	mov	r24, r30
    559c:	d4 ce       	rjmp	.-600    	; 0x5346 <_ZN6ns_lcd8SendDataEh>
    559e:	08 95       	ret

000055a0 <_ZN6ns_lcd12NormalizePosEPh>:
    55a0:	fc 01       	movw	r30, r24
    55a2:	90 81       	ld	r25, Z
    55a4:	20 91 f5 01 	lds	r18, 0x01F5	; 0x8001f5 <_ZN6ns_lcd6maxPosE>
    55a8:	92 17       	cp	r25, r18
    55aa:	30 f0       	brcs	.+12     	; 0x55b8 <_ZN6ns_lcd12NormalizePosEPh+0x18>
    55ac:	92 1b       	sub	r25, r18
    55ae:	90 83       	st	Z, r25
    55b0:	20 91 f5 01 	lds	r18, 0x01F5	; 0x8001f5 <_ZN6ns_lcd6maxPosE>
    55b4:	92 17       	cp	r25, r18
    55b6:	d0 f7       	brcc	.-12     	; 0x55ac <_ZN6ns_lcd12NormalizePosEPh+0xc>
    55b8:	08 95       	ret

000055ba <_ZN6ns_lcd11SetPositionEhh>:
    55ba:	cf 93       	push	r28
    55bc:	df 93       	push	r29
    55be:	1f 92       	push	r1
    55c0:	cd b7       	in	r28, 0x3d	; 61
    55c2:	de b7       	in	r29, 0x3e	; 62
    55c4:	90 91 2e 01 	lds	r25, 0x012E	; 0x80012e <_ZN6ns_lcd10c_stolbcovE>
    55c8:	69 9f       	mul	r22, r25
    55ca:	80 0d       	add	r24, r0
    55cc:	11 24       	eor	r1, r1
    55ce:	89 83       	std	Y+1, r24	; 0x01
    55d0:	ce 01       	movw	r24, r28
    55d2:	01 96       	adiw	r24, 0x01	; 1
    55d4:	e5 df       	rcall	.-54     	; 0x55a0 <_ZN6ns_lcd12NormalizePosEPh>
    55d6:	89 81       	ldd	r24, Y+1	; 0x01
    55d8:	0f 90       	pop	r0
    55da:	df 91       	pop	r29
    55dc:	cf 91       	pop	r28
    55de:	08 95       	ret

000055e0 <_ZN6ns_lcd7FlashFnEPhPVb>:
    55e0:	fb 01       	movw	r30, r22
    55e2:	20 81       	ld	r18, Z
    55e4:	22 23       	and	r18, r18
    55e6:	31 f1       	breq	.+76     	; 0x5634 <_ZN6ns_lcd7FlashFnEPhPVb+0x54>
    55e8:	fc 01       	movw	r30, r24
    55ea:	80 81       	ld	r24, Z
    55ec:	60 91 2e 01 	lds	r22, 0x012E	; 0x80012e <_ZN6ns_lcd10c_stolbcovE>
    55f0:	fb d4       	rcall	.+2550   	; 0x5fe8 <__udivmodqi4>
    55f2:	29 2f       	mov	r18, r25
    55f4:	e8 2f       	mov	r30, r24
    55f6:	f0 e0       	ldi	r31, 0x00	; 0
    55f8:	ee 0f       	add	r30, r30
    55fa:	ff 1f       	adc	r31, r31
    55fc:	ee 0f       	add	r30, r30
    55fe:	ff 1f       	adc	r31, r31
    5600:	e5 51       	subi	r30, 0x15	; 21
    5602:	fe 4f       	sbci	r31, 0xFE	; 254
    5604:	81 e0       	ldi	r24, 0x01	; 1
    5606:	90 e0       	ldi	r25, 0x00	; 0
    5608:	a0 e0       	ldi	r26, 0x00	; 0
    560a:	b0 e0       	ldi	r27, 0x00	; 0
    560c:	04 c0       	rjmp	.+8      	; 0x5616 <_ZN6ns_lcd7FlashFnEPhPVb+0x36>
    560e:	88 0f       	add	r24, r24
    5610:	99 1f       	adc	r25, r25
    5612:	aa 1f       	adc	r26, r26
    5614:	bb 1f       	adc	r27, r27
    5616:	2a 95       	dec	r18
    5618:	d2 f7       	brpl	.-12     	; 0x560e <_ZN6ns_lcd7FlashFnEPhPVb+0x2e>
    561a:	40 81       	ld	r20, Z
    561c:	51 81       	ldd	r21, Z+1	; 0x01
    561e:	62 81       	ldd	r22, Z+2	; 0x02
    5620:	73 81       	ldd	r23, Z+3	; 0x03
    5622:	84 2b       	or	r24, r20
    5624:	95 2b       	or	r25, r21
    5626:	a6 2b       	or	r26, r22
    5628:	b7 2b       	or	r27, r23
    562a:	80 83       	st	Z, r24
    562c:	91 83       	std	Z+1, r25	; 0x01
    562e:	a2 83       	std	Z+2, r26	; 0x02
    5630:	b3 83       	std	Z+3, r27	; 0x03
    5632:	08 95       	ret
    5634:	fc 01       	movw	r30, r24
    5636:	80 81       	ld	r24, Z
    5638:	60 91 2e 01 	lds	r22, 0x012E	; 0x80012e <_ZN6ns_lcd10c_stolbcovE>
    563c:	d5 d4       	rcall	.+2474   	; 0x5fe8 <__udivmodqi4>
    563e:	29 2f       	mov	r18, r25
    5640:	e8 2f       	mov	r30, r24
    5642:	f0 e0       	ldi	r31, 0x00	; 0
    5644:	ee 0f       	add	r30, r30
    5646:	ff 1f       	adc	r31, r31
    5648:	ee 0f       	add	r30, r30
    564a:	ff 1f       	adc	r31, r31
    564c:	e5 51       	subi	r30, 0x15	; 21
    564e:	fe 4f       	sbci	r31, 0xFE	; 254
    5650:	81 e0       	ldi	r24, 0x01	; 1
    5652:	90 e0       	ldi	r25, 0x00	; 0
    5654:	a0 e0       	ldi	r26, 0x00	; 0
    5656:	b0 e0       	ldi	r27, 0x00	; 0
    5658:	04 c0       	rjmp	.+8      	; 0x5662 <_ZN6ns_lcd7FlashFnEPhPVb+0x82>
    565a:	88 0f       	add	r24, r24
    565c:	99 1f       	adc	r25, r25
    565e:	aa 1f       	adc	r26, r26
    5660:	bb 1f       	adc	r27, r27
    5662:	2a 95       	dec	r18
    5664:	d2 f7       	brpl	.-12     	; 0x565a <_ZN6ns_lcd7FlashFnEPhPVb+0x7a>
    5666:	80 95       	com	r24
    5668:	90 95       	com	r25
    566a:	a0 95       	com	r26
    566c:	b0 95       	com	r27
    566e:	40 81       	ld	r20, Z
    5670:	51 81       	ldd	r21, Z+1	; 0x01
    5672:	62 81       	ldd	r22, Z+2	; 0x02
    5674:	73 81       	ldd	r23, Z+3	; 0x03
    5676:	84 23       	and	r24, r20
    5678:	95 23       	and	r25, r21
    567a:	a6 23       	and	r26, r22
    567c:	b7 23       	and	r27, r23
    567e:	80 83       	st	Z, r24
    5680:	91 83       	std	Z+1, r25	; 0x01
    5682:	a2 83       	std	Z+2, r26	; 0x02
    5684:	b3 83       	std	Z+3, r27	; 0x03
    5686:	08 95       	ret

00005688 <_ZN6ns_lcd7PutCharEPhc>:
    5688:	1f 93       	push	r17
    568a:	cf 93       	push	r28
    568c:	df 93       	push	r29
    568e:	ec 01       	movw	r28, r24
    5690:	16 2f       	mov	r17, r22
    5692:	86 df       	rcall	.-244    	; 0x55a0 <_ZN6ns_lcd12NormalizePosEPh>
    5694:	64 ee       	ldi	r22, 0xE4	; 228
    5696:	71 e0       	ldi	r23, 0x01	; 1
    5698:	ce 01       	movw	r24, r28
    569a:	a2 df       	rcall	.-188    	; 0x55e0 <_ZN6ns_lcd7FlashFnEPhPVb>
    569c:	88 81       	ld	r24, Y
    569e:	e0 91 f3 01 	lds	r30, 0x01F3	; 0x8001f3 <_ZN6ns_lcd6screenE>
    56a2:	f0 91 f4 01 	lds	r31, 0x01F4	; 0x8001f4 <_ZN6ns_lcd6screenE+0x1>
    56a6:	e8 0f       	add	r30, r24
    56a8:	f1 1d       	adc	r31, r1
    56aa:	10 83       	st	Z, r17
    56ac:	88 81       	ld	r24, Y
    56ae:	8f 5f       	subi	r24, 0xFF	; 255
    56b0:	88 83       	st	Y, r24
    56b2:	df 91       	pop	r29
    56b4:	cf 91       	pop	r28
    56b6:	1f 91       	pop	r17
    56b8:	08 95       	ret

000056ba <_ZN6ns_lcd7putCharEcP6__file>:
    56ba:	68 2f       	mov	r22, r24
    56bc:	88 ee       	ldi	r24, 0xE8	; 232
    56be:	91 e0       	ldi	r25, 0x01	; 1
    56c0:	e3 df       	rcall	.-58     	; 0x5688 <_ZN6ns_lcd7PutCharEPhc>
    56c2:	81 e0       	ldi	r24, 0x01	; 1
    56c4:	90 e0       	ldi	r25, 0x00	; 0
    56c6:	08 95       	ret

000056c8 <_ZN6ns_lcd7PutCharEhc>:
    56c8:	cf 93       	push	r28
    56ca:	df 93       	push	r29
    56cc:	1f 92       	push	r1
    56ce:	cd b7       	in	r28, 0x3d	; 61
    56d0:	de b7       	in	r29, 0x3e	; 62
    56d2:	89 83       	std	Y+1, r24	; 0x01
    56d4:	ce 01       	movw	r24, r28
    56d6:	01 96       	adiw	r24, 0x01	; 1
    56d8:	d7 df       	rcall	.-82     	; 0x5688 <_ZN6ns_lcd7PutCharEPhc>
    56da:	0f 90       	pop	r0
    56dc:	df 91       	pop	r29
    56de:	cf 91       	pop	r28
    56e0:	08 95       	ret

000056e2 <_ZN6ns_lcd6StringEPhPKc>:
    56e2:	ef 92       	push	r14
    56e4:	ff 92       	push	r15
    56e6:	0f 93       	push	r16
    56e8:	1f 93       	push	r17
    56ea:	cf 93       	push	r28
    56ec:	df 93       	push	r29
    56ee:	ec 01       	movw	r28, r24
    56f0:	8b 01       	movw	r16, r22
    56f2:	e0 90 f5 01 	lds	r14, 0x01F5	; 0x8001f5 <_ZN6ns_lcd6maxPosE>
    56f6:	ea 94       	dec	r14
    56f8:	f1 2c       	mov	r15, r1
    56fa:	8f ef       	ldi	r24, 0xFF	; 255
    56fc:	e8 1a       	sub	r14, r24
    56fe:	f8 0a       	sbc	r15, r24
    5700:	e6 0e       	add	r14, r22
    5702:	f7 1e       	adc	r15, r23
    5704:	17 c0       	rjmp	.+46     	; 0x5734 <_ZN6ns_lcd6StringEPhPKc+0x52>
    5706:	ce 01       	movw	r24, r28
    5708:	4b df       	rcall	.-362    	; 0x55a0 <_ZN6ns_lcd12NormalizePosEPh>
    570a:	64 ee       	ldi	r22, 0xE4	; 228
    570c:	71 e0       	ldi	r23, 0x01	; 1
    570e:	ce 01       	movw	r24, r28
    5710:	67 df       	rcall	.-306    	; 0x55e0 <_ZN6ns_lcd7FlashFnEPhPVb>
    5712:	f8 01       	movw	r30, r16
    5714:	81 91       	ld	r24, Z+
    5716:	8f 01       	movw	r16, r30
    5718:	98 81       	ld	r25, Y
    571a:	e0 91 f3 01 	lds	r30, 0x01F3	; 0x8001f3 <_ZN6ns_lcd6screenE>
    571e:	f0 91 f4 01 	lds	r31, 0x01F4	; 0x8001f4 <_ZN6ns_lcd6screenE+0x1>
    5722:	e9 0f       	add	r30, r25
    5724:	f1 1d       	adc	r31, r1
    5726:	80 83       	st	Z, r24
    5728:	88 81       	ld	r24, Y
    572a:	8f 5f       	subi	r24, 0xFF	; 255
    572c:	88 83       	st	Y, r24
    572e:	0e 15       	cp	r16, r14
    5730:	1f 05       	cpc	r17, r15
    5732:	21 f0       	breq	.+8      	; 0x573c <_ZN6ns_lcd6StringEPhPKc+0x5a>
    5734:	f8 01       	movw	r30, r16
    5736:	80 81       	ld	r24, Z
    5738:	81 11       	cpse	r24, r1
    573a:	e5 cf       	rjmp	.-54     	; 0x5706 <_ZN6ns_lcd6StringEPhPKc+0x24>
    573c:	df 91       	pop	r29
    573e:	cf 91       	pop	r28
    5740:	1f 91       	pop	r17
    5742:	0f 91       	pop	r16
    5744:	ff 90       	pop	r15
    5746:	ef 90       	pop	r14
    5748:	08 95       	ret

0000574a <_ZN6ns_lcd6StringEhPKc>:
    574a:	cf 93       	push	r28
    574c:	df 93       	push	r29
    574e:	1f 92       	push	r1
    5750:	cd b7       	in	r28, 0x3d	; 61
    5752:	de b7       	in	r29, 0x3e	; 62
    5754:	89 83       	std	Y+1, r24	; 0x01
    5756:	ce 01       	movw	r24, r28
    5758:	01 96       	adiw	r24, 0x01	; 1
    575a:	c3 df       	rcall	.-122    	; 0x56e2 <_ZN6ns_lcd6StringEPhPKc>
    575c:	0f 90       	pop	r0
    575e:	df 91       	pop	r29
    5760:	cf 91       	pop	r28
    5762:	08 95       	ret

00005764 <_ZN6ns_lcd8String_PEPhPKc>:
    5764:	df 92       	push	r13
    5766:	ef 92       	push	r14
    5768:	ff 92       	push	r15
    576a:	0f 93       	push	r16
    576c:	1f 93       	push	r17
    576e:	cf 93       	push	r28
    5770:	df 93       	push	r29
    5772:	ec 01       	movw	r28, r24
    5774:	8b 01       	movw	r16, r22
    5776:	e0 90 f5 01 	lds	r14, 0x01F5	; 0x8001f5 <_ZN6ns_lcd6maxPosE>
    577a:	ea 94       	dec	r14
    577c:	f1 2c       	mov	r15, r1
    577e:	8f ef       	ldi	r24, 0xFF	; 255
    5780:	e8 1a       	sub	r14, r24
    5782:	f8 0a       	sbc	r15, r24
    5784:	e6 0e       	add	r14, r22
    5786:	f7 1e       	adc	r15, r23
    5788:	16 c0       	rjmp	.+44     	; 0x57b6 <_ZN6ns_lcd8String_PEPhPKc+0x52>
    578a:	ce 01       	movw	r24, r28
    578c:	09 df       	rcall	.-494    	; 0x55a0 <_ZN6ns_lcd12NormalizePosEPh>
    578e:	64 ee       	ldi	r22, 0xE4	; 228
    5790:	71 e0       	ldi	r23, 0x01	; 1
    5792:	ce 01       	movw	r24, r28
    5794:	25 df       	rcall	.-438    	; 0x55e0 <_ZN6ns_lcd7FlashFnEPhPVb>
    5796:	88 81       	ld	r24, Y
    5798:	e0 91 f3 01 	lds	r30, 0x01F3	; 0x8001f3 <_ZN6ns_lcd6screenE>
    579c:	f0 91 f4 01 	lds	r31, 0x01F4	; 0x8001f4 <_ZN6ns_lcd6screenE+0x1>
    57a0:	e8 0f       	add	r30, r24
    57a2:	f1 1d       	adc	r31, r1
    57a4:	d0 82       	st	Z, r13
    57a6:	88 81       	ld	r24, Y
    57a8:	8f 5f       	subi	r24, 0xFF	; 255
    57aa:	88 83       	st	Y, r24
    57ac:	0f 5f       	subi	r16, 0xFF	; 255
    57ae:	1f 4f       	sbci	r17, 0xFF	; 255
    57b0:	0e 15       	cp	r16, r14
    57b2:	1f 05       	cpc	r17, r15
    57b4:	21 f0       	breq	.+8      	; 0x57be <_ZN6ns_lcd8String_PEPhPKc+0x5a>
    57b6:	f8 01       	movw	r30, r16
    57b8:	d4 90       	lpm	r13, Z
    57ba:	d1 10       	cpse	r13, r1
    57bc:	e6 cf       	rjmp	.-52     	; 0x578a <_ZN6ns_lcd8String_PEPhPKc+0x26>
    57be:	df 91       	pop	r29
    57c0:	cf 91       	pop	r28
    57c2:	1f 91       	pop	r17
    57c4:	0f 91       	pop	r16
    57c6:	ff 90       	pop	r15
    57c8:	ef 90       	pop	r14
    57ca:	df 90       	pop	r13
    57cc:	08 95       	ret

000057ce <_ZN6ns_lcd8String_PEhPKc>:
    57ce:	cf 93       	push	r28
    57d0:	df 93       	push	r29
    57d2:	1f 92       	push	r1
    57d4:	cd b7       	in	r28, 0x3d	; 61
    57d6:	de b7       	in	r29, 0x3e	; 62
    57d8:	89 83       	std	Y+1, r24	; 0x01
    57da:	ce 01       	movw	r24, r28
    57dc:	01 96       	adiw	r24, 0x01	; 1
    57de:	c2 df       	rcall	.-124    	; 0x5764 <_ZN6ns_lcd8String_PEPhPKc>
    57e0:	0f 90       	pop	r0
    57e2:	df 91       	pop	r29
    57e4:	cf 91       	pop	r28
    57e6:	08 95       	ret

000057e8 <_ZN6ns_lcd6DigitZEPhhl>:
    57e8:	8f 92       	push	r8
    57ea:	9f 92       	push	r9
    57ec:	af 92       	push	r10
    57ee:	bf 92       	push	r11
    57f0:	cf 92       	push	r12
    57f2:	df 92       	push	r13
    57f4:	ef 92       	push	r14
    57f6:	ff 92       	push	r15
    57f8:	0f 93       	push	r16
    57fa:	1f 93       	push	r17
    57fc:	cf 93       	push	r28
    57fe:	df 93       	push	r29
    5800:	1f 92       	push	r1
    5802:	cd b7       	in	r28, 0x3d	; 61
    5804:	de b7       	in	r29, 0x3e	; 62
    5806:	5c 01       	movw	r10, r24
    5808:	06 2f       	mov	r16, r22
    580a:	69 01       	movw	r12, r18
    580c:	7a 01       	movw	r14, r20
    580e:	55 23       	and	r21, r21
    5810:	5c f4       	brge	.+22     	; 0x5828 <_ZN6ns_lcd6DigitZEPhhl+0x40>
    5812:	6d e2       	ldi	r22, 0x2D	; 45
    5814:	39 df       	rcall	.-398    	; 0x5688 <_ZN6ns_lcd7PutCharEPhc>
    5816:	01 50       	subi	r16, 0x01	; 1
    5818:	f0 94       	com	r15
    581a:	e0 94       	com	r14
    581c:	d0 94       	com	r13
    581e:	c0 94       	com	r12
    5820:	c1 1c       	adc	r12, r1
    5822:	d1 1c       	adc	r13, r1
    5824:	e1 1c       	adc	r14, r1
    5826:	f1 1c       	adc	r15, r1
    5828:	f5 01       	movw	r30, r10
    582a:	80 81       	ld	r24, Z
    582c:	80 0f       	add	r24, r16
    582e:	80 83       	st	Z, r24
    5830:	c5 01       	movw	r24, r10
    5832:	b6 de       	rcall	.-660    	; 0x55a0 <_ZN6ns_lcd12NormalizePosEPh>
    5834:	f5 01       	movw	r30, r10
    5836:	80 81       	ld	r24, Z
    5838:	81 50       	subi	r24, 0x01	; 1
    583a:	89 83       	std	Y+1, r24	; 0x01
    583c:	00 23       	and	r16, r16
    583e:	89 f1       	breq	.+98     	; 0x58a2 <_ZN6ns_lcd6DigitZEPhhl+0xba>
    5840:	0f 2e       	mov	r0, r31
    5842:	fa e0       	ldi	r31, 0x0A	; 10
    5844:	8f 2e       	mov	r8, r31
    5846:	91 2c       	mov	r9, r1
    5848:	a1 2c       	mov	r10, r1
    584a:	b1 2c       	mov	r11, r1
    584c:	f0 2d       	mov	r31, r0
    584e:	c7 01       	movw	r24, r14
    5850:	b6 01       	movw	r22, r12
    5852:	a5 01       	movw	r20, r10
    5854:	94 01       	movw	r18, r8
    5856:	f6 d3       	rcall	.+2028   	; 0x6044 <__divmodsi4>
    5858:	16 2f       	mov	r17, r22
    585a:	89 81       	ldd	r24, Y+1	; 0x01
    585c:	88 23       	and	r24, r24
    585e:	2c f4       	brge	.+10     	; 0x586a <_ZN6ns_lcd6DigitZEPhhl+0x82>
    5860:	90 91 2e 01 	lds	r25, 0x012E	; 0x80012e <_ZN6ns_lcd10c_stolbcovE>
    5864:	99 0f       	add	r25, r25
    5866:	89 0f       	add	r24, r25
    5868:	89 83       	std	Y+1, r24	; 0x01
    586a:	64 ee       	ldi	r22, 0xE4	; 228
    586c:	71 e0       	ldi	r23, 0x01	; 1
    586e:	ce 01       	movw	r24, r28
    5870:	01 96       	adiw	r24, 0x01	; 1
    5872:	b6 de       	rcall	.-660    	; 0x55e0 <_ZN6ns_lcd7FlashFnEPhPVb>
    5874:	e0 91 f3 01 	lds	r30, 0x01F3	; 0x8001f3 <_ZN6ns_lcd6screenE>
    5878:	f0 91 f4 01 	lds	r31, 0x01F4	; 0x8001f4 <_ZN6ns_lcd6screenE+0x1>
    587c:	89 81       	ldd	r24, Y+1	; 0x01
    587e:	9f ef       	ldi	r25, 0xFF	; 255
    5880:	98 0f       	add	r25, r24
    5882:	99 83       	std	Y+1, r25	; 0x01
    5884:	e8 0f       	add	r30, r24
    5886:	f1 1d       	adc	r31, r1
    5888:	87 fd       	sbrc	r24, 7
    588a:	fa 95       	dec	r31
    588c:	10 5d       	subi	r17, 0xD0	; 208
    588e:	10 83       	st	Z, r17
    5890:	c7 01       	movw	r24, r14
    5892:	b6 01       	movw	r22, r12
    5894:	a5 01       	movw	r20, r10
    5896:	94 01       	movw	r18, r8
    5898:	d5 d3       	rcall	.+1962   	; 0x6044 <__divmodsi4>
    589a:	69 01       	movw	r12, r18
    589c:	7a 01       	movw	r14, r20
    589e:	01 50       	subi	r16, 0x01	; 1
    58a0:	b1 f6       	brne	.-84     	; 0x584e <_ZN6ns_lcd6DigitZEPhhl+0x66>
    58a2:	0f 90       	pop	r0
    58a4:	df 91       	pop	r29
    58a6:	cf 91       	pop	r28
    58a8:	1f 91       	pop	r17
    58aa:	0f 91       	pop	r16
    58ac:	ff 90       	pop	r15
    58ae:	ef 90       	pop	r14
    58b0:	df 90       	pop	r13
    58b2:	cf 90       	pop	r12
    58b4:	bf 90       	pop	r11
    58b6:	af 90       	pop	r10
    58b8:	9f 90       	pop	r9
    58ba:	8f 90       	pop	r8
    58bc:	08 95       	ret

000058be <_ZN6ns_lcd6DigitZEhhl>:
    58be:	cf 93       	push	r28
    58c0:	df 93       	push	r29
    58c2:	1f 92       	push	r1
    58c4:	cd b7       	in	r28, 0x3d	; 61
    58c6:	de b7       	in	r29, 0x3e	; 62
    58c8:	89 83       	std	Y+1, r24	; 0x01
    58ca:	ce 01       	movw	r24, r28
    58cc:	01 96       	adiw	r24, 0x01	; 1
    58ce:	8c df       	rcall	.-232    	; 0x57e8 <_ZN6ns_lcd6DigitZEPhhl>
    58d0:	0f 90       	pop	r0
    58d2:	df 91       	pop	r29
    58d4:	cf 91       	pop	r28
    58d6:	08 95       	ret

000058d8 <_ZN6ns_lcd5DigitEPhhl>:
    58d8:	6f 92       	push	r6
    58da:	7f 92       	push	r7
    58dc:	8f 92       	push	r8
    58de:	9f 92       	push	r9
    58e0:	af 92       	push	r10
    58e2:	bf 92       	push	r11
    58e4:	cf 92       	push	r12
    58e6:	df 92       	push	r13
    58e8:	ef 92       	push	r14
    58ea:	ff 92       	push	r15
    58ec:	0f 93       	push	r16
    58ee:	1f 93       	push	r17
    58f0:	cf 93       	push	r28
    58f2:	df 93       	push	r29
    58f4:	1f 92       	push	r1
    58f6:	cd b7       	in	r28, 0x3d	; 61
    58f8:	de b7       	in	r29, 0x3e	; 62
    58fa:	8c 01       	movw	r16, r24
    58fc:	b6 2e       	mov	r11, r22
    58fe:	69 01       	movw	r12, r18
    5900:	7a 01       	movw	r14, r20
    5902:	55 23       	and	r21, r21
    5904:	14 f4       	brge	.+4      	; 0x590a <_ZN6ns_lcd5DigitEPhhl+0x32>
    5906:	70 df       	rcall	.-288    	; 0x57e8 <_ZN6ns_lcd6DigitZEPhhl>
    5908:	86 c0       	rjmp	.+268    	; 0x5a16 <_ZN6ns_lcd5DigitEPhhl+0x13e>
    590a:	fc 01       	movw	r30, r24
    590c:	80 81       	ld	r24, Z
    590e:	86 0f       	add	r24, r22
    5910:	80 83       	st	Z, r24
    5912:	c8 01       	movw	r24, r16
    5914:	45 de       	rcall	.-886    	; 0x55a0 <_ZN6ns_lcd12NormalizePosEPh>
    5916:	f8 01       	movw	r30, r16
    5918:	10 81       	ld	r17, Z
    591a:	11 50       	subi	r17, 0x01	; 1
    591c:	19 83       	std	Y+1, r17	; 0x01
    591e:	c7 01       	movw	r24, r14
    5920:	b6 01       	movw	r22, r12
    5922:	2a e0       	ldi	r18, 0x0A	; 10
    5924:	30 e0       	ldi	r19, 0x00	; 0
    5926:	40 e0       	ldi	r20, 0x00	; 0
    5928:	50 e0       	ldi	r21, 0x00	; 0
    592a:	8c d3       	rcall	.+1816   	; 0x6044 <__divmodsi4>
    592c:	06 2f       	mov	r16, r22
    592e:	11 23       	and	r17, r17
    5930:	2c f4       	brge	.+10     	; 0x593c <_ZN6ns_lcd5DigitEPhhl+0x64>
    5932:	80 91 2e 01 	lds	r24, 0x012E	; 0x80012e <_ZN6ns_lcd10c_stolbcovE>
    5936:	88 0f       	add	r24, r24
    5938:	18 0f       	add	r17, r24
    593a:	19 83       	std	Y+1, r17	; 0x01
    593c:	64 ee       	ldi	r22, 0xE4	; 228
    593e:	71 e0       	ldi	r23, 0x01	; 1
    5940:	ce 01       	movw	r24, r28
    5942:	01 96       	adiw	r24, 0x01	; 1
    5944:	4d de       	rcall	.-870    	; 0x55e0 <_ZN6ns_lcd7FlashFnEPhPVb>
    5946:	e0 91 f3 01 	lds	r30, 0x01F3	; 0x8001f3 <_ZN6ns_lcd6screenE>
    594a:	f0 91 f4 01 	lds	r31, 0x01F4	; 0x8001f4 <_ZN6ns_lcd6screenE+0x1>
    594e:	89 81       	ldd	r24, Y+1	; 0x01
    5950:	9f ef       	ldi	r25, 0xFF	; 255
    5952:	98 0f       	add	r25, r24
    5954:	99 83       	std	Y+1, r25	; 0x01
    5956:	e8 0f       	add	r30, r24
    5958:	f1 1d       	adc	r31, r1
    595a:	87 fd       	sbrc	r24, 7
    595c:	fa 95       	dec	r31
    595e:	00 5d       	subi	r16, 0xD0	; 208
    5960:	00 83       	st	Z, r16
    5962:	c7 01       	movw	r24, r14
    5964:	b6 01       	movw	r22, r12
    5966:	2a e0       	ldi	r18, 0x0A	; 10
    5968:	30 e0       	ldi	r19, 0x00	; 0
    596a:	40 e0       	ldi	r20, 0x00	; 0
    596c:	50 e0       	ldi	r21, 0x00	; 0
    596e:	6a d3       	rcall	.+1748   	; 0x6044 <__divmodsi4>
    5970:	69 01       	movw	r12, r18
    5972:	7a 01       	movw	r14, r20
    5974:	0e ef       	ldi	r16, 0xFE	; 254
    5976:	0b 0d       	add	r16, r11
    5978:	f1 e0       	ldi	r31, 0x01	; 1
    597a:	bf 16       	cp	r11, r31
    597c:	09 f4       	brne	.+2      	; 0x5980 <_ZN6ns_lcd5DigitEPhhl+0xa8>
    597e:	4b c0       	rjmp	.+150    	; 0x5a16 <_ZN6ns_lcd5DigitEPhhl+0x13e>
    5980:	0f 2e       	mov	r0, r31
    5982:	fa e0       	ldi	r31, 0x0A	; 10
    5984:	8f 2e       	mov	r8, r31
    5986:	91 2c       	mov	r9, r1
    5988:	a1 2c       	mov	r10, r1
    598a:	b1 2c       	mov	r11, r1
    598c:	f0 2d       	mov	r31, r0
    598e:	68 94       	set
    5990:	77 24       	eor	r7, r7
    5992:	75 f8       	bld	r7, 5
    5994:	01 c0       	rjmp	.+2      	; 0x5998 <_ZN6ns_lcd5DigitEPhhl+0xc0>
    5996:	08 2f       	mov	r16, r24
    5998:	c7 01       	movw	r24, r14
    599a:	b6 01       	movw	r22, r12
    599c:	a5 01       	movw	r20, r10
    599e:	94 01       	movw	r18, r8
    59a0:	51 d3       	rcall	.+1698   	; 0x6044 <__divmodsi4>
    59a2:	16 2f       	mov	r17, r22
    59a4:	66 2e       	mov	r6, r22
    59a6:	89 81       	ldd	r24, Y+1	; 0x01
    59a8:	88 23       	and	r24, r24
    59aa:	2c f4       	brge	.+10     	; 0x59b6 <_ZN6ns_lcd5DigitEPhhl+0xde>
    59ac:	90 91 2e 01 	lds	r25, 0x012E	; 0x80012e <_ZN6ns_lcd10c_stolbcovE>
    59b0:	99 0f       	add	r25, r25
    59b2:	89 0f       	add	r24, r25
    59b4:	89 83       	std	Y+1, r24	; 0x01
    59b6:	64 ee       	ldi	r22, 0xE4	; 228
    59b8:	71 e0       	ldi	r23, 0x01	; 1
    59ba:	ce 01       	movw	r24, r28
    59bc:	01 96       	adiw	r24, 0x01	; 1
    59be:	10 de       	rcall	.-992    	; 0x55e0 <_ZN6ns_lcd7FlashFnEPhPVb>
    59c0:	61 10       	cpse	r6, r1
    59c2:	10 c0       	rjmp	.+32     	; 0x59e4 <_ZN6ns_lcd5DigitEPhhl+0x10c>
    59c4:	c1 14       	cp	r12, r1
    59c6:	d1 04       	cpc	r13, r1
    59c8:	e1 04       	cpc	r14, r1
    59ca:	f1 04       	cpc	r15, r1
    59cc:	59 f4       	brne	.+22     	; 0x59e4 <_ZN6ns_lcd5DigitEPhhl+0x10c>
    59ce:	89 81       	ldd	r24, Y+1	; 0x01
    59d0:	e0 91 f3 01 	lds	r30, 0x01F3	; 0x8001f3 <_ZN6ns_lcd6screenE>
    59d4:	f0 91 f4 01 	lds	r31, 0x01F4	; 0x8001f4 <_ZN6ns_lcd6screenE+0x1>
    59d8:	e8 0f       	add	r30, r24
    59da:	f1 1d       	adc	r31, r1
    59dc:	87 fd       	sbrc	r24, 7
    59de:	fa 95       	dec	r31
    59e0:	70 82       	st	Z, r7
    59e2:	0b c0       	rjmp	.+22     	; 0x59fa <_ZN6ns_lcd5DigitEPhhl+0x122>
    59e4:	89 81       	ldd	r24, Y+1	; 0x01
    59e6:	e0 91 f3 01 	lds	r30, 0x01F3	; 0x8001f3 <_ZN6ns_lcd6screenE>
    59ea:	f0 91 f4 01 	lds	r31, 0x01F4	; 0x8001f4 <_ZN6ns_lcd6screenE+0x1>
    59ee:	e8 0f       	add	r30, r24
    59f0:	f1 1d       	adc	r31, r1
    59f2:	87 fd       	sbrc	r24, 7
    59f4:	fa 95       	dec	r31
    59f6:	10 5d       	subi	r17, 0xD0	; 208
    59f8:	10 83       	st	Z, r17
    59fa:	89 81       	ldd	r24, Y+1	; 0x01
    59fc:	81 50       	subi	r24, 0x01	; 1
    59fe:	89 83       	std	Y+1, r24	; 0x01
    5a00:	c7 01       	movw	r24, r14
    5a02:	b6 01       	movw	r22, r12
    5a04:	a5 01       	movw	r20, r10
    5a06:	94 01       	movw	r18, r8
    5a08:	1d d3       	rcall	.+1594   	; 0x6044 <__divmodsi4>
    5a0a:	69 01       	movw	r12, r18
    5a0c:	7a 01       	movw	r14, r20
    5a0e:	8f ef       	ldi	r24, 0xFF	; 255
    5a10:	80 0f       	add	r24, r16
    5a12:	01 11       	cpse	r16, r1
    5a14:	c0 cf       	rjmp	.-128    	; 0x5996 <_ZN6ns_lcd5DigitEPhhl+0xbe>
    5a16:	0f 90       	pop	r0
    5a18:	df 91       	pop	r29
    5a1a:	cf 91       	pop	r28
    5a1c:	1f 91       	pop	r17
    5a1e:	0f 91       	pop	r16
    5a20:	ff 90       	pop	r15
    5a22:	ef 90       	pop	r14
    5a24:	df 90       	pop	r13
    5a26:	cf 90       	pop	r12
    5a28:	bf 90       	pop	r11
    5a2a:	af 90       	pop	r10
    5a2c:	9f 90       	pop	r9
    5a2e:	8f 90       	pop	r8
    5a30:	7f 90       	pop	r7
    5a32:	6f 90       	pop	r6
    5a34:	08 95       	ret

00005a36 <_GLOBAL__sub_I__ZN6ns_lcd10c_stolbcovE>:
namespace ns_lcd
{
	// var
	const uint8_t c_strok = 2;
	uint8_t c_stolbcov = 16;
	uint8_t maxPos = c_strok*c_stolbcov;
    5a36:	80 91 2e 01 	lds	r24, 0x012E	; 0x80012e <_ZN6ns_lcd10c_stolbcovE>
    5a3a:	88 0f       	add	r24, r24
    5a3c:	80 93 f5 01 	sts	0x01F5, r24	; 0x8001f5 <_ZN6ns_lcd6maxPosE>
    5a40:	08 95       	ret

00005a42 <_ZN14ns_LcdKeyTimer4InitEv>:

namespace ns_LcdKeyTimer
{
	// ========================
	void Init()
	{
    5a42:	cf 93       	push	r28
    5a44:	df 93       	push	r29
    5a46:	00 d0       	rcall	.+0      	; 0x5a48 <_ZN14ns_LcdKeyTimer4InitEv+0x6>
    5a48:	cd b7       	in	r28, 0x3d	; 61
    5a4a:	de b7       	in	r29, 0x3e	; 62
		volatile uint16_t prDiv;
		TCCR0 = 0;
    5a4c:	13 be       	out	0x33, r1	; 51
		// CTC mode
		TCCR0_WGM01 = 1;
    5a4e:	83 b7       	in	r24, 0x33	; 51
    5a50:	88 60       	ori	r24, 0x08	; 8
    5a52:	83 bf       	out	0x33, r24	; 51
		TCCR0_WGM00 = 0;
    5a54:	83 b7       	in	r24, 0x33	; 51
    5a56:	8f 7b       	andi	r24, 0xBF	; 191
    5a58:	83 bf       	out	0x33, r24	; 51
		TCCR0_COM01 = 0;
    5a5a:	83 b7       	in	r24, 0x33	; 51
    5a5c:	8f 7d       	andi	r24, 0xDF	; 223
    5a5e:	83 bf       	out	0x33, r24	; 51
		TCCR0_COM00 = 0;
    5a60:	83 b7       	in	r24, 0x33	; 51
    5a62:	8f 7e       	andi	r24, 0xEF	; 239
    5a64:	83 bf       	out	0x33, r24	; 51
		// pre Div
		prDiv = (uint16_t)( ((uint32_t)C_Fosc) / (  ((uint32_t)FT_LcdKeyTimer) * ((uint32_t)256) * ((uint32_t)1) )  );
    5a66:	8e e3       	ldi	r24, 0x3E	; 62
    5a68:	90 e0       	ldi	r25, 0x00	; 0
    5a6a:	9a 83       	std	Y+2, r25	; 0x02
    5a6c:	89 83       	std	Y+1, r24	; 0x01
		if (prDiv <= 1)
    5a6e:	89 81       	ldd	r24, Y+1	; 0x01
    5a70:	9a 81       	ldd	r25, Y+2	; 0x02
    5a72:	02 97       	sbiw	r24, 0x02	; 2
    5a74:	70 f4       	brcc	.+28     	; 0x5a92 <_ZN14ns_LcdKeyTimer4InitEv+0x50>
		{
			prDiv = 1;
    5a76:	81 e0       	ldi	r24, 0x01	; 1
    5a78:	90 e0       	ldi	r25, 0x00	; 0
    5a7a:	9a 83       	std	Y+2, r25	; 0x02
    5a7c:	89 83       	std	Y+1, r24	; 0x01
			TCCR0_CS02 = 0;
    5a7e:	83 b7       	in	r24, 0x33	; 51
    5a80:	8b 7f       	andi	r24, 0xFB	; 251
    5a82:	83 bf       	out	0x33, r24	; 51
			TCCR0_CS01 = 0;
    5a84:	83 b7       	in	r24, 0x33	; 51
    5a86:	8d 7f       	andi	r24, 0xFD	; 253
    5a88:	83 bf       	out	0x33, r24	; 51
			TCCR0_CS00 = 1;
    5a8a:	83 b7       	in	r24, 0x33	; 51
    5a8c:	81 60       	ori	r24, 0x01	; 1
    5a8e:	83 bf       	out	0x33, r24	; 51
    5a90:	6a c0       	rjmp	.+212    	; 0x5b66 <_ZN14ns_LcdKeyTimer4InitEv+0x124>
		}
		else if (prDiv <= 8)
    5a92:	89 81       	ldd	r24, Y+1	; 0x01
    5a94:	9a 81       	ldd	r25, Y+2	; 0x02
    5a96:	09 97       	sbiw	r24, 0x09	; 9
    5a98:	70 f4       	brcc	.+28     	; 0x5ab6 <_ZN14ns_LcdKeyTimer4InitEv+0x74>
		{
			prDiv = 8;
    5a9a:	88 e0       	ldi	r24, 0x08	; 8
    5a9c:	90 e0       	ldi	r25, 0x00	; 0
    5a9e:	9a 83       	std	Y+2, r25	; 0x02
    5aa0:	89 83       	std	Y+1, r24	; 0x01
			TCCR0_CS02 = 0;
    5aa2:	83 b7       	in	r24, 0x33	; 51
    5aa4:	8b 7f       	andi	r24, 0xFB	; 251
    5aa6:	83 bf       	out	0x33, r24	; 51
			TCCR0_CS01 = 1;
    5aa8:	83 b7       	in	r24, 0x33	; 51
    5aaa:	82 60       	ori	r24, 0x02	; 2
    5aac:	83 bf       	out	0x33, r24	; 51
			TCCR0_CS00 = 0;
    5aae:	83 b7       	in	r24, 0x33	; 51
    5ab0:	8e 7f       	andi	r24, 0xFE	; 254
    5ab2:	83 bf       	out	0x33, r24	; 51
    5ab4:	58 c0       	rjmp	.+176    	; 0x5b66 <_ZN14ns_LcdKeyTimer4InitEv+0x124>
		}
		else if (prDiv <= 32)
    5ab6:	89 81       	ldd	r24, Y+1	; 0x01
    5ab8:	9a 81       	ldd	r25, Y+2	; 0x02
    5aba:	81 97       	sbiw	r24, 0x21	; 33
    5abc:	70 f4       	brcc	.+28     	; 0x5ada <_ZN14ns_LcdKeyTimer4InitEv+0x98>
		{
			prDiv = 32;
    5abe:	80 e2       	ldi	r24, 0x20	; 32
    5ac0:	90 e0       	ldi	r25, 0x00	; 0
    5ac2:	9a 83       	std	Y+2, r25	; 0x02
    5ac4:	89 83       	std	Y+1, r24	; 0x01
			TCCR0_CS02 = 0;
    5ac6:	83 b7       	in	r24, 0x33	; 51
    5ac8:	8b 7f       	andi	r24, 0xFB	; 251
    5aca:	83 bf       	out	0x33, r24	; 51
			TCCR0_CS01 = 1;
    5acc:	83 b7       	in	r24, 0x33	; 51
    5ace:	82 60       	ori	r24, 0x02	; 2
    5ad0:	83 bf       	out	0x33, r24	; 51
			TCCR0_CS00 = 1;
    5ad2:	83 b7       	in	r24, 0x33	; 51
    5ad4:	81 60       	ori	r24, 0x01	; 1
    5ad6:	83 bf       	out	0x33, r24	; 51
    5ad8:	46 c0       	rjmp	.+140    	; 0x5b66 <_ZN14ns_LcdKeyTimer4InitEv+0x124>
		}
		else if (prDiv <= 64)
    5ada:	89 81       	ldd	r24, Y+1	; 0x01
    5adc:	9a 81       	ldd	r25, Y+2	; 0x02
    5ade:	81 34       	cpi	r24, 0x41	; 65
    5ae0:	91 05       	cpc	r25, r1
    5ae2:	70 f4       	brcc	.+28     	; 0x5b00 <_ZN14ns_LcdKeyTimer4InitEv+0xbe>
		{
			prDiv = 64;
    5ae4:	80 e4       	ldi	r24, 0x40	; 64
    5ae6:	90 e0       	ldi	r25, 0x00	; 0
    5ae8:	9a 83       	std	Y+2, r25	; 0x02
    5aea:	89 83       	std	Y+1, r24	; 0x01
			TCCR0_CS02 = 1;
    5aec:	83 b7       	in	r24, 0x33	; 51
    5aee:	84 60       	ori	r24, 0x04	; 4
    5af0:	83 bf       	out	0x33, r24	; 51
			TCCR0_CS01 = 0;
    5af2:	83 b7       	in	r24, 0x33	; 51
    5af4:	8d 7f       	andi	r24, 0xFD	; 253
    5af6:	83 bf       	out	0x33, r24	; 51
			TCCR0_CS00 = 0;
    5af8:	83 b7       	in	r24, 0x33	; 51
    5afa:	8e 7f       	andi	r24, 0xFE	; 254
    5afc:	83 bf       	out	0x33, r24	; 51
    5afe:	33 c0       	rjmp	.+102    	; 0x5b66 <_ZN14ns_LcdKeyTimer4InitEv+0x124>
		}
		else if (prDiv <= 128)
    5b00:	89 81       	ldd	r24, Y+1	; 0x01
    5b02:	9a 81       	ldd	r25, Y+2	; 0x02
    5b04:	81 38       	cpi	r24, 0x81	; 129
    5b06:	91 05       	cpc	r25, r1
    5b08:	70 f4       	brcc	.+28     	; 0x5b26 <_ZN14ns_LcdKeyTimer4InitEv+0xe4>
		{
			prDiv = 128;
    5b0a:	80 e8       	ldi	r24, 0x80	; 128
    5b0c:	90 e0       	ldi	r25, 0x00	; 0
    5b0e:	9a 83       	std	Y+2, r25	; 0x02
    5b10:	89 83       	std	Y+1, r24	; 0x01
			TCCR0_CS02 = 1;
    5b12:	83 b7       	in	r24, 0x33	; 51
    5b14:	84 60       	ori	r24, 0x04	; 4
    5b16:	83 bf       	out	0x33, r24	; 51
			TCCR0_CS01 = 0;
    5b18:	83 b7       	in	r24, 0x33	; 51
    5b1a:	8d 7f       	andi	r24, 0xFD	; 253
    5b1c:	83 bf       	out	0x33, r24	; 51
			TCCR0_CS00 = 1;
    5b1e:	83 b7       	in	r24, 0x33	; 51
    5b20:	81 60       	ori	r24, 0x01	; 1
    5b22:	83 bf       	out	0x33, r24	; 51
    5b24:	20 c0       	rjmp	.+64     	; 0x5b66 <_ZN14ns_LcdKeyTimer4InitEv+0x124>
		}
		else if (prDiv <= 256)
    5b26:	89 81       	ldd	r24, Y+1	; 0x01
    5b28:	9a 81       	ldd	r25, Y+2	; 0x02
    5b2a:	81 30       	cpi	r24, 0x01	; 1
    5b2c:	91 40       	sbci	r25, 0x01	; 1
    5b2e:	70 f4       	brcc	.+28     	; 0x5b4c <_ZN14ns_LcdKeyTimer4InitEv+0x10a>
		{
			prDiv = 256;
    5b30:	80 e0       	ldi	r24, 0x00	; 0
    5b32:	91 e0       	ldi	r25, 0x01	; 1
    5b34:	9a 83       	std	Y+2, r25	; 0x02
    5b36:	89 83       	std	Y+1, r24	; 0x01
			TCCR0_CS02 = 1;
    5b38:	83 b7       	in	r24, 0x33	; 51
    5b3a:	84 60       	ori	r24, 0x04	; 4
    5b3c:	83 bf       	out	0x33, r24	; 51
			TCCR0_CS01 = 1;
    5b3e:	83 b7       	in	r24, 0x33	; 51
    5b40:	82 60       	ori	r24, 0x02	; 2
    5b42:	83 bf       	out	0x33, r24	; 51
			TCCR0_CS00 = 0;
    5b44:	83 b7       	in	r24, 0x33	; 51
    5b46:	8e 7f       	andi	r24, 0xFE	; 254
    5b48:	83 bf       	out	0x33, r24	; 51
    5b4a:	0d c0       	rjmp	.+26     	; 0x5b66 <_ZN14ns_LcdKeyTimer4InitEv+0x124>
		}
		else
		{
			prDiv = 1024;
    5b4c:	80 e0       	ldi	r24, 0x00	; 0
    5b4e:	94 e0       	ldi	r25, 0x04	; 4
    5b50:	9a 83       	std	Y+2, r25	; 0x02
    5b52:	89 83       	std	Y+1, r24	; 0x01
			TCCR0_CS02 = 1;
    5b54:	83 b7       	in	r24, 0x33	; 51
    5b56:	84 60       	ori	r24, 0x04	; 4
    5b58:	83 bf       	out	0x33, r24	; 51
			TCCR0_CS01 = 1;
    5b5a:	83 b7       	in	r24, 0x33	; 51
    5b5c:	82 60       	ori	r24, 0x02	; 2
    5b5e:	83 bf       	out	0x33, r24	; 51
			TCCR0_CS00 = 1;
    5b60:	83 b7       	in	r24, 0x33	; 51
    5b62:	81 60       	ori	r24, 0x01	; 1
    5b64:	83 bf       	out	0x33, r24	; 51
		}

		//  
		TCCR0_FOC0 = 1;
    5b66:	83 b7       	in	r24, 0x33	; 51
    5b68:	80 68       	ori	r24, 0x80	; 128
    5b6a:	83 bf       	out	0x33, r24	; 51
		TCNT0 = 0;
    5b6c:	12 be       	out	0x32, r1	; 50
		//uint8_t div = (((unsigned long)C_Fosc) / prDiv / FT_LcdKeyTimer) - 1;
		uint8_t div = (uint8_t)( ((uint32_t)C_Fosc) / ( ((uint32_t)prDiv) * ((uint32_t)FT_LcdKeyTimer) * ((uint32_t)1) ) ) - 1;
    5b6e:	29 81       	ldd	r18, Y+1	; 0x01
    5b70:	3a 81       	ldd	r19, Y+2	; 0x02
    5b72:	a8 ee       	ldi	r26, 0xE8	; 232
    5b74:	b3 e0       	ldi	r27, 0x03	; 3
    5b76:	82 d2       	rcall	.+1284   	; 0x607c <__umulhisi3>
    5b78:	9b 01       	movw	r18, r22
    5b7a:	ac 01       	movw	r20, r24
    5b7c:	60 e0       	ldi	r22, 0x00	; 0
    5b7e:	74 e2       	ldi	r23, 0x24	; 36
    5b80:	84 ef       	ldi	r24, 0xF4	; 244
    5b82:	90 e0       	ldi	r25, 0x00	; 0
    5b84:	3d d2       	rcall	.+1146   	; 0x6000 <__udivmodsi4>
    5b86:	21 50       	subi	r18, 0x01	; 1
		OCR0 = div;
    5b88:	21 bf       	out	0x31, r18	; 49
		TIFR_OCF0 = 0;
    5b8a:	86 b7       	in	r24, 0x36	; 54
    5b8c:	8d 7f       	andi	r24, 0xFD	; 253
    5b8e:	86 bf       	out	0x36, r24	; 54
		TIFR_TOV0 = 0;
    5b90:	86 b7       	in	r24, 0x36	; 54
    5b92:	8e 7f       	andi	r24, 0xFE	; 254
    5b94:	86 bf       	out	0x36, r24	; 54
		TIMSK_OCIE0 = 1;
    5b96:	87 b7       	in	r24, 0x37	; 55
    5b98:	82 60       	ori	r24, 0x02	; 2
    5b9a:	87 bf       	out	0x37, r24	; 55
	}
    5b9c:	0f 90       	pop	r0
    5b9e:	0f 90       	pop	r0
    5ba0:	df 91       	pop	r29
    5ba2:	cf 91       	pop	r28
    5ba4:	08 95       	ret

00005ba6 <__vector_15>:

	ISR (TIMER0_COMP_vect)
	{
    5ba6:	1f 92       	push	r1
    5ba8:	0f 92       	push	r0
    5baa:	0f b6       	in	r0, 0x3f	; 63
    5bac:	0f 92       	push	r0
    5bae:	11 24       	eor	r1, r1
    5bb0:	0b b6       	in	r0, 0x3b	; 59
    5bb2:	0f 92       	push	r0
    5bb4:	2f 93       	push	r18
    5bb6:	3f 93       	push	r19
    5bb8:	4f 93       	push	r20
    5bba:	5f 93       	push	r21
    5bbc:	6f 93       	push	r22
    5bbe:	7f 93       	push	r23
    5bc0:	8f 93       	push	r24
    5bc2:	9f 93       	push	r25
    5bc4:	af 93       	push	r26
    5bc6:	bf 93       	push	r27
    5bc8:	ef 93       	push	r30
    5bca:	ff 93       	push	r31
		TIMSK_OCIE0 = 0;
    5bcc:	87 b7       	in	r24, 0x37	; 55
    5bce:	8d 7f       	andi	r24, 0xFD	; 253
    5bd0:	87 bf       	out	0x37, r24	; 55
		sei();
    5bd2:	78 94       	sei
		// lcd
		ns_lcd::Interrupt();
    5bd4:	78 dc       	rcall	.-1808   	; 0x54c6 <_ZN6ns_lcd9InterruptEv>
		// key
		key4->Interrupt();
    5bd6:	80 91 de 01 	lds	r24, 0x01DE	; 0x8001de <key4>
    5bda:	90 91 df 01 	lds	r25, 0x01DF	; 0x8001df <key4+0x1>
    5bde:	1a da       	rcall	.-3020   	; 0x5014 <_ZN7tc_key49InterruptEv>
		// clock rt
		ns_clock::Interrupt();
    5be0:	d8 d8       	rcall	.-3664   	; 0x4d92 <_ZN8ns_clock9InterruptEv>
		// interrupt module
		ns_module::InterruptLcdTimer();
    5be2:	0e 94 13 25 	call	0x4a26	; 0x4a26 <_ZN9ns_module17InterruptLcdTimerEv>
		TIMSK_OCIE0 = 1;
    5be6:	87 b7       	in	r24, 0x37	; 55
    5be8:	82 60       	ori	r24, 0x02	; 2
    5bea:	87 bf       	out	0x37, r24	; 55
	}
    5bec:	ff 91       	pop	r31
    5bee:	ef 91       	pop	r30
    5bf0:	bf 91       	pop	r27
    5bf2:	af 91       	pop	r26
    5bf4:	9f 91       	pop	r25
    5bf6:	8f 91       	pop	r24
    5bf8:	7f 91       	pop	r23
    5bfa:	6f 91       	pop	r22
    5bfc:	5f 91       	pop	r21
    5bfe:	4f 91       	pop	r20
    5c00:	3f 91       	pop	r19
    5c02:	2f 91       	pop	r18
    5c04:	0f 90       	pop	r0
    5c06:	0b be       	out	0x3b, r0	; 59
    5c08:	0f 90       	pop	r0
    5c0a:	0f be       	out	0x3f, r0	; 63
    5c0c:	0f 90       	pop	r0
    5c0e:	1f 90       	pop	r1
    5c10:	18 95       	reti

00005c12 <_Znwj>:
 #include <stdlib.h>
 #include <avr/interrupt.h>

 void *operator new(size_t s)
 {
	 return malloc(s);
    5c12:	29 c3       	rjmp	.+1618   	; 0x6266 <malloc>
 }
    5c14:	08 95       	ret

00005c16 <_Znaj>:
 
 void *operator new[](size_t s)
 {
	 return malloc(s);
    5c16:	27 c3       	rjmp	.+1614   	; 0x6266 <malloc>
 }
    5c18:	08 95       	ret

00005c1a <_ZN8ns_rs2324InitE6rsBaud8rsParity5rsBit12rsBufferSizeS3_>:
				//UDR = *byte;
				return 1;
			}
		}
		return 0;
	}
    5c1a:	4f 92       	push	r4
    5c1c:	5f 92       	push	r5
    5c1e:	6f 92       	push	r6
    5c20:	7f 92       	push	r7
    5c22:	8f 92       	push	r8
    5c24:	9f 92       	push	r9
    5c26:	af 92       	push	r10
    5c28:	bf 92       	push	r11
    5c2a:	cf 92       	push	r12
    5c2c:	df 92       	push	r13
    5c2e:	ef 92       	push	r14
    5c30:	ff 92       	push	r15
    5c32:	0f 93       	push	r16
    5c34:	1f 93       	push	r17
    5c36:	cf 93       	push	r28
    5c38:	df 93       	push	r29
    5c3a:	00 d0       	rcall	.+0      	; 0x5c3c <_ZN8ns_rs2324InitE6rsBaud8rsParity5rsBit12rsBufferSizeS3_+0x22>
    5c3c:	cd b7       	in	r28, 0x3d	; 61
    5c3e:	de b7       	in	r29, 0x3e	; 62
    5c40:	49 83       	std	Y+1, r20	; 0x01
    5c42:	2a 83       	std	Y+2, r18	; 0x02
    5c44:	20 93 f6 01 	sts	0x01F6, r18	; 0x8001f6 <_ZN8ns_rs2323bitE>
    5c48:	dc 01       	movw	r26, r24
    5c4a:	cb 01       	movw	r24, r22
    5c4c:	88 0f       	add	r24, r24
    5c4e:	99 1f       	adc	r25, r25
    5c50:	aa 1f       	adc	r26, r26
    5c52:	bb 1f       	adc	r27, r27
    5c54:	88 0f       	add	r24, r24
    5c56:	99 1f       	adc	r25, r25
    5c58:	aa 1f       	adc	r26, r26
    5c5a:	bb 1f       	adc	r27, r27
    5c5c:	9c 01       	movw	r18, r24
    5c5e:	ad 01       	movw	r20, r26
    5c60:	22 0f       	add	r18, r18
    5c62:	33 1f       	adc	r19, r19
    5c64:	44 1f       	adc	r20, r20
    5c66:	55 1f       	adc	r21, r21
    5c68:	22 0f       	add	r18, r18
    5c6a:	33 1f       	adc	r19, r19
    5c6c:	44 1f       	adc	r20, r20
    5c6e:	55 1f       	adc	r21, r21
    5c70:	60 e0       	ldi	r22, 0x00	; 0
    5c72:	74 e2       	ldi	r23, 0x24	; 36
    5c74:	84 ef       	ldi	r24, 0xF4	; 244
    5c76:	90 e0       	ldi	r25, 0x00	; 0
    5c78:	c3 d1       	rcall	.+902    	; 0x6000 <__udivmodsi4>
    5c7a:	21 50       	subi	r18, 0x01	; 1
    5c7c:	31 09       	sbc	r19, r1
    5c7e:	30 93 90 00 	sts	0x0090, r19	; 0x800090 <__TEXT_REGION_LENGTH__+0x7e0090>
    5c82:	29 b9       	out	0x09, r18	; 9
    5c84:	1a b8       	out	0x0a, r1	; 10
    5c86:	49 81       	ldd	r20, Y+1	; 0x01
    5c88:	39 81       	ldd	r19, Y+1	; 0x01
    5c8a:	2a 81       	ldd	r18, Y+2	; 0x02
    5c8c:	9a 81       	ldd	r25, Y+2	; 0x02
    5c8e:	8a 81       	ldd	r24, Y+2	; 0x02
    5c90:	40 fb       	bst	r20, 0
    5c92:	66 24       	eor	r6, r6
    5c94:	60 f8       	bld	r6, 0
    5c96:	71 2c       	mov	r7, r1
    5c98:	31 fb       	bst	r19, 1
    5c9a:	88 24       	eor	r8, r8
    5c9c:	80 f8       	bld	r8, 0
    5c9e:	91 2c       	mov	r9, r1
    5ca0:	86 28       	or	r8, r6
    5ca2:	97 28       	or	r9, r7
    5ca4:	20 fb       	bst	r18, 0
    5ca6:	aa 24       	eor	r10, r10
    5ca8:	a0 f8       	bld	r10, 0
    5caa:	b1 2c       	mov	r11, r1
    5cac:	aa 0c       	add	r10, r10
    5cae:	bb 1c       	adc	r11, r11
    5cb0:	8a 28       	or	r8, r10
    5cb2:	9b 28       	or	r9, r11
    5cb4:	91 fb       	bst	r25, 1
    5cb6:	cc 24       	eor	r12, r12
    5cb8:	c0 f8       	bld	r12, 0
    5cba:	d1 2c       	mov	r13, r1
    5cbc:	cc 0c       	add	r12, r12
    5cbe:	dd 1c       	adc	r13, r13
    5cc0:	cc 0c       	add	r12, r12
    5cc2:	dd 1c       	adc	r13, r13
    5cc4:	c8 28       	or	r12, r8
    5cc6:	d9 28       	or	r13, r9
    5cc8:	82 fb       	bst	r24, 2
    5cca:	44 24       	eor	r4, r4
    5ccc:	40 f8       	bld	r4, 0
    5cce:	51 2c       	mov	r5, r1
    5cd0:	44 0c       	add	r4, r4
    5cd2:	55 1c       	adc	r5, r5
    5cd4:	44 0c       	add	r4, r4
    5cd6:	55 1c       	adc	r5, r5
    5cd8:	4c 28       	or	r4, r12
    5cda:	5d 28       	or	r5, r13
    5cdc:	40 92 95 00 	sts	0x0095, r4	; 0x800095 <__TEXT_REGION_LENGTH__+0x7e0095>
    5ce0:	54 9a       	sbi	0x0a, 4	; 10
    5ce2:	53 9a       	sbi	0x0a, 3	; 10
    5ce4:	57 9a       	sbi	0x0a, 7	; 10
    5ce6:	80 2f       	mov	r24, r16
    5ce8:	91 2f       	mov	r25, r17
    5cea:	95 df       	rcall	.-214    	; 0x5c16 <_Znaj>
    5cec:	90 93 fe 01 	sts	0x01FE, r25	; 0x8001fe <_ZN8ns_rs2325RxBufE+0x1>
    5cf0:	80 93 fd 01 	sts	0x01FD, r24	; 0x8001fd <_ZN8ns_rs2325RxBufE>
    5cf4:	01 50       	subi	r16, 0x01	; 1
    5cf6:	00 93 00 02 	sts	0x0200, r16	; 0x800200 <_ZN8ns_rs2329rxBufMaskE>
    5cfa:	8e 2d       	mov	r24, r14
    5cfc:	9f 2d       	mov	r25, r15
    5cfe:	8b df       	rcall	.-234    	; 0x5c16 <_Znaj>
    5d00:	90 93 fa 01 	sts	0x01FA, r25	; 0x8001fa <_ZN8ns_rs2325TxBufE+0x1>
    5d04:	80 93 f9 01 	sts	0x01F9, r24	; 0x8001f9 <_ZN8ns_rs2325TxBufE>
    5d08:	ea 94       	dec	r14
    5d0a:	e0 92 ff 01 	sts	0x01FF, r14	; 0x8001ff <_ZN8ns_rs2329txBufMaskE>
    5d0e:	60 e0       	ldi	r22, 0x00	; 0
    5d10:	70 e0       	ldi	r23, 0x00	; 0
    5d12:	89 e1       	ldi	r24, 0x19	; 25
    5d14:	9f e2       	ldi	r25, 0x2F	; 47
    5d16:	d4 d3       	rcall	.+1960   	; 0x64c0 <fdevopen>
    5d18:	0f 90       	pop	r0
    5d1a:	0f 90       	pop	r0
    5d1c:	df 91       	pop	r29
    5d1e:	cf 91       	pop	r28
    5d20:	1f 91       	pop	r17
    5d22:	0f 91       	pop	r16
    5d24:	ff 90       	pop	r15
    5d26:	ef 90       	pop	r14
    5d28:	df 90       	pop	r13
    5d2a:	cf 90       	pop	r12
    5d2c:	bf 90       	pop	r11
    5d2e:	af 90       	pop	r10
    5d30:	9f 90       	pop	r9
    5d32:	8f 90       	pop	r8
    5d34:	7f 90       	pop	r7
    5d36:	6f 90       	pop	r6
    5d38:	5f 90       	pop	r5
    5d3a:	4f 90       	pop	r4
    5d3c:	08 95       	ret

00005d3e <__vector_18>:
    5d3e:	1f 92       	push	r1
    5d40:	0f 92       	push	r0
    5d42:	0f b6       	in	r0, 0x3f	; 63
    5d44:	0f 92       	push	r0
    5d46:	11 24       	eor	r1, r1
    5d48:	0b b6       	in	r0, 0x3b	; 59
    5d4a:	0f 92       	push	r0
    5d4c:	8f 93       	push	r24
    5d4e:	9f 93       	push	r25
    5d50:	ef 93       	push	r30
    5d52:	ff 93       	push	r31
    5d54:	80 91 fc 01 	lds	r24, 0x01FC	; 0x8001fc <_ZN8ns_rs2326RxHeadE>
    5d58:	8f 5f       	subi	r24, 0xFF	; 255
    5d5a:	90 91 00 02 	lds	r25, 0x0200	; 0x800200 <_ZN8ns_rs2329rxBufMaskE>
    5d5e:	89 23       	and	r24, r25
    5d60:	90 91 fb 01 	lds	r25, 0x01FB	; 0x8001fb <_ZN8ns_rs2326RxTailE>
    5d64:	89 17       	cp	r24, r25
    5d66:	61 f0       	breq	.+24     	; 0x5d80 <__vector_18+0x42>
    5d68:	90 91 fc 01 	lds	r25, 0x01FC	; 0x8001fc <_ZN8ns_rs2326RxHeadE>
    5d6c:	e0 91 fd 01 	lds	r30, 0x01FD	; 0x8001fd <_ZN8ns_rs2325RxBufE>
    5d70:	f0 91 fe 01 	lds	r31, 0x01FE	; 0x8001fe <_ZN8ns_rs2325RxBufE+0x1>
    5d74:	e9 0f       	add	r30, r25
    5d76:	f1 1d       	adc	r31, r1
    5d78:	9c b1       	in	r25, 0x0c	; 12
    5d7a:	90 83       	st	Z, r25
    5d7c:	80 93 fc 01 	sts	0x01FC, r24	; 0x8001fc <_ZN8ns_rs2326RxHeadE>
    5d80:	ff 91       	pop	r31
    5d82:	ef 91       	pop	r30
    5d84:	9f 91       	pop	r25
    5d86:	8f 91       	pop	r24
    5d88:	0f 90       	pop	r0
    5d8a:	0b be       	out	0x3b, r0	; 59
    5d8c:	0f 90       	pop	r0
    5d8e:	0f be       	out	0x3f, r0	; 63
    5d90:	0f 90       	pop	r0
    5d92:	1f 90       	pop	r1
    5d94:	18 95       	reti

00005d96 <__vector_19>:
    5d96:	1f 92       	push	r1
    5d98:	0f 92       	push	r0
    5d9a:	0f b6       	in	r0, 0x3f	; 63
    5d9c:	0f 92       	push	r0
    5d9e:	11 24       	eor	r1, r1
    5da0:	0b b6       	in	r0, 0x3b	; 59
    5da2:	0f 92       	push	r0
    5da4:	8f 93       	push	r24
    5da6:	9f 93       	push	r25
    5da8:	ef 93       	push	r30
    5daa:	ff 93       	push	r31
    5dac:	90 91 f8 01 	lds	r25, 0x01F8	; 0x8001f8 <_ZN8ns_rs2326TxHeadE>
    5db0:	80 91 f7 01 	lds	r24, 0x01F7	; 0x8001f7 <_ZN8ns_rs2326TxTailE>
    5db4:	98 13       	cpse	r25, r24
    5db6:	02 c0       	rjmp	.+4      	; 0x5dbc <__vector_19+0x26>
    5db8:	55 98       	cbi	0x0a, 5	; 10
    5dba:	13 c0       	rjmp	.+38     	; 0x5de2 <__vector_19+0x4c>
    5dbc:	50 9a       	sbi	0x0a, 0	; 10
    5dbe:	80 91 f7 01 	lds	r24, 0x01F7	; 0x8001f7 <_ZN8ns_rs2326TxTailE>
    5dc2:	e0 91 f9 01 	lds	r30, 0x01F9	; 0x8001f9 <_ZN8ns_rs2325TxBufE>
    5dc6:	f0 91 fa 01 	lds	r31, 0x01FA	; 0x8001fa <_ZN8ns_rs2325TxBufE+0x1>
    5dca:	e8 0f       	add	r30, r24
    5dcc:	f1 1d       	adc	r31, r1
    5dce:	80 81       	ld	r24, Z
    5dd0:	8c b9       	out	0x0c, r24	; 12
    5dd2:	80 91 f7 01 	lds	r24, 0x01F7	; 0x8001f7 <_ZN8ns_rs2326TxTailE>
    5dd6:	8f 5f       	subi	r24, 0xFF	; 255
    5dd8:	90 91 ff 01 	lds	r25, 0x01FF	; 0x8001ff <_ZN8ns_rs2329txBufMaskE>
    5ddc:	89 23       	and	r24, r25
    5dde:	80 93 f7 01 	sts	0x01F7, r24	; 0x8001f7 <_ZN8ns_rs2326TxTailE>
    5de2:	ff 91       	pop	r31
    5de4:	ef 91       	pop	r30
    5de6:	9f 91       	pop	r25
    5de8:	8f 91       	pop	r24
    5dea:	0f 90       	pop	r0
    5dec:	0b be       	out	0x3b, r0	; 59
    5dee:	0f 90       	pop	r0
    5df0:	0f be       	out	0x3f, r0	; 63
    5df2:	0f 90       	pop	r0
    5df4:	1f 90       	pop	r1
    5df6:	18 95       	reti

00005df8 <_ZN8ns_rs2328SendByteEh>:
	// ==========================================
	uint8_t SendByte(uint8_t byte)
	{
		CRITICAL_SECTION
    5df8:	3f b7       	in	r19, 0x3f	; 63
    return 1;
}

static __inline__ uint8_t __iCliRetVal(void)
{
    cli();
    5dfa:	f8 94       	cli
		{
			uint8_t tmpHead = (TxHead + 1) & txBufMask;
    5dfc:	90 91 f8 01 	lds	r25, 0x01F8	; 0x8001f8 <_ZN8ns_rs2326TxHeadE>
    5e00:	9f 5f       	subi	r25, 0xFF	; 255
    5e02:	20 91 ff 01 	lds	r18, 0x01FF	; 0x8001ff <_ZN8ns_rs2329txBufMaskE>
    5e06:	92 23       	and	r25, r18
			if (tmpHead == TxTail)
    5e08:	20 91 f7 01 	lds	r18, 0x01F7	; 0x8001f7 <_ZN8ns_rs2326TxTailE>
    5e0c:	92 17       	cp	r25, r18
    5e0e:	71 f0       	breq	.+28     	; 0x5e2c <_ZN8ns_rs2328SendByteEh+0x34>
			return 0;
			else
			{
				TxBuf[TxHead] = byte;
    5e10:	20 91 f8 01 	lds	r18, 0x01F8	; 0x8001f8 <_ZN8ns_rs2326TxHeadE>
    5e14:	e0 91 f9 01 	lds	r30, 0x01F9	; 0x8001f9 <_ZN8ns_rs2325TxBufE>
    5e18:	f0 91 fa 01 	lds	r31, 0x01FA	; 0x8001fa <_ZN8ns_rs2325TxBufE+0x1>
    5e1c:	e2 0f       	add	r30, r18
    5e1e:	f1 1d       	adc	r31, r1
    5e20:	80 83       	st	Z, r24
				TxHead = tmpHead;
    5e22:	90 93 f8 01 	sts	0x01F8, r25	; 0x8001f8 <_ZN8ns_rs2326TxHeadE>
				UCSR0B_UDRIE0 = 1;
    5e26:	55 9a       	sbi	0x0a, 5	; 10
				//UDR = byte;
				return 1;
    5e28:	81 e0       	ldi	r24, 0x01	; 1
    5e2a:	01 c0       	rjmp	.+2      	; 0x5e2e <_ZN8ns_rs2328SendByteEh+0x36>
	{
		CRITICAL_SECTION
		{
			uint8_t tmpHead = (TxHead + 1) & txBufMask;
			if (tmpHead == TxTail)
			return 0;
    5e2c:	80 e0       	ldi	r24, 0x00	; 0
    (void)__s;
}

static __inline__ void __iRestore(const  uint8_t *__s)
{
    SREG = *__s;
    5e2e:	3f bf       	out	0x3f, r19	; 63
				//UDR = byte;
				return 1;
			}
		}
		return 0;
	}
    5e30:	08 95       	ret

00005e32 <_ZN8ns_rs2327putCharEcP6__file>:
	int putChar(char c, FILE *stream)
	{
		// tabWin2Avr
		//if (c >= tabWin2AvrOffset)
		//c = pgm_read_byte(& tabWin2Avr[c - tabWin2AvrOffset]);
		SendByte(c);
    5e32:	e2 df       	rcall	.-60     	; 0x5df8 <_ZN8ns_rs2328SendByteEh>
		return 1;
	}
    5e34:	81 e0       	ldi	r24, 0x01	; 1
    5e36:	90 e0       	ldi	r25, 0x00	; 0
    5e38:	08 95       	ret

00005e3a <_ZN8ns_rs2326StringEPKc>:
		}
		return 0;
	}
	// ==================================================
	void String(const char *stroka)
	{
    5e3a:	cf 93       	push	r28
    5e3c:	df 93       	push	r29
    5e3e:	ec 01       	movw	r28, r24
		char sim;
		while (true)
		{
			sim = *stroka;
    5e40:	88 81       	ld	r24, Y
			if (sim == 0) break;
    5e42:	88 23       	and	r24, r24
    5e44:	29 f0       	breq	.+10     	; 0x5e50 <_ZN8ns_rs2326StringEPKc+0x16>
    5e46:	21 96       	adiw	r28, 0x01	; 1
			SendByte(sim);
    5e48:	d7 df       	rcall	.-82     	; 0x5df8 <_ZN8ns_rs2328SendByteEh>
	void String(const char *stroka)
	{
		char sim;
		while (true)
		{
			sim = *stroka;
    5e4a:	89 91       	ld	r24, Y+
			if (sim == 0) break;
    5e4c:	81 11       	cpse	r24, r1
    5e4e:	fc cf       	rjmp	.-8      	; 0x5e48 <_ZN8ns_rs2326StringEPKc+0xe>
			SendByte(sim);
			stroka++;
		}
	}
    5e50:	df 91       	pop	r29
    5e52:	cf 91       	pop	r28
    5e54:	08 95       	ret

00005e56 <_ZN8ns_rs2328String_PEPKc>:
	// ==================================================
	void String_P(const char *stroka)
	{
    5e56:	cf 93       	push	r28
    5e58:	df 93       	push	r29
    5e5a:	ec 01       	movw	r28, r24
		char sim;
		while (true)
		{
			sim = pgm_read_byte(stroka);
    5e5c:	fc 01       	movw	r30, r24
    5e5e:	84 91       	lpm	r24, Z
			if (sim == 0) break;
    5e60:	88 23       	and	r24, r24
    5e62:	31 f0       	breq	.+12     	; 0x5e70 <_ZN8ns_rs2328String_PEPKc+0x1a>
			SendByte(sim);
    5e64:	c9 df       	rcall	.-110    	; 0x5df8 <_ZN8ns_rs2328SendByteEh>
			stroka++;
    5e66:	21 96       	adiw	r28, 0x01	; 1
	void String_P(const char *stroka)
	{
		char sim;
		while (true)
		{
			sim = pgm_read_byte(stroka);
    5e68:	fe 01       	movw	r30, r28
    5e6a:	84 91       	lpm	r24, Z
			if (sim == 0) break;
    5e6c:	81 11       	cpse	r24, r1
    5e6e:	fa cf       	rjmp	.-12     	; 0x5e64 <_ZN8ns_rs2328String_PEPKc+0xe>
			SendByte(sim);
			stroka++;
		}
	}
    5e70:	df 91       	pop	r29
    5e72:	cf 91       	pop	r28
    5e74:	08 95       	ret

00005e76 <_ZN8ns_rs2326DigitZEhl>:
			digit /= 10;
		}
		String(sss);
	}
	void DigitZ(uint8_t len, int32_t digit)
	{
    5e76:	4f 92       	push	r4
    5e78:	5f 92       	push	r5
    5e7a:	6f 92       	push	r6
    5e7c:	7f 92       	push	r7
    5e7e:	af 92       	push	r10
    5e80:	bf 92       	push	r11
    5e82:	cf 92       	push	r12
    5e84:	df 92       	push	r13
    5e86:	ef 92       	push	r14
    5e88:	ff 92       	push	r15
    5e8a:	1f 93       	push	r17
    5e8c:	cf 93       	push	r28
    5e8e:	df 93       	push	r29
    5e90:	cd b7       	in	r28, 0x3d	; 61
    5e92:	de b7       	in	r29, 0x3e	; 62
    5e94:	60 97       	sbiw	r28, 0x10	; 16
    5e96:	0f b6       	in	r0, 0x3f	; 63
    5e98:	f8 94       	cli
    5e9a:	de bf       	out	0x3e, r29	; 62
    5e9c:	0f be       	out	0x3f, r0	; 63
    5e9e:	cd bf       	out	0x3d, r28	; 61
    5ea0:	b8 2e       	mov	r11, r24
    5ea2:	6a 01       	movw	r12, r20
    5ea4:	7b 01       	movw	r14, r22
		if (digit < 0)
    5ea6:	77 23       	and	r23, r23
    5ea8:	5c f4       	brge	.+22     	; 0x5ec0 <_ZN8ns_rs2326DigitZEhl+0x4a>
		{
			SendByte('-');
    5eaa:	8d e2       	ldi	r24, 0x2D	; 45
    5eac:	a5 df       	rcall	.-182    	; 0x5df8 <_ZN8ns_rs2328SendByteEh>
			len--;
    5eae:	ba 94       	dec	r11
			digit = -digit;
    5eb0:	f0 94       	com	r15
    5eb2:	e0 94       	com	r14
    5eb4:	d0 94       	com	r13
    5eb6:	c0 94       	com	r12
    5eb8:	c1 1c       	adc	r12, r1
    5eba:	d1 1c       	adc	r13, r1
    5ebc:	e1 1c       	adc	r14, r1
    5ebe:	f1 1c       	adc	r15, r1
		}
		char sss[16];
		sss[len] = 0;
    5ec0:	fe 01       	movw	r30, r28
    5ec2:	eb 0d       	add	r30, r11
    5ec4:	f1 1d       	adc	r31, r1
    5ec6:	11 82       	std	Z+1, r1	; 0x01

		uint8_t low;// = digit % 10;
		//sss[len] = '0' + low;
		//digit /= 10;
		//len--;
		while(len-->0)
    5ec8:	1f ef       	ldi	r17, 0xFF	; 255
    5eca:	1b 0d       	add	r17, r11
    5ecc:	bb 20       	and	r11, r11
    5ece:	e1 f0       	breq	.+56     	; 0x5f08 <_ZN8ns_rs2326DigitZEhl+0x92>
		{
			low = digit % 10;
    5ed0:	0f 2e       	mov	r0, r31
    5ed2:	fa e0       	ldi	r31, 0x0A	; 10
    5ed4:	4f 2e       	mov	r4, r31
    5ed6:	51 2c       	mov	r5, r1
    5ed8:	61 2c       	mov	r6, r1
    5eda:	71 2c       	mov	r7, r1
    5edc:	f0 2d       	mov	r31, r0
			sss[len] = '0' + low;
    5ede:	aa 24       	eor	r10, r10
    5ee0:	a3 94       	inc	r10
    5ee2:	b1 2c       	mov	r11, r1
    5ee4:	ac 0e       	add	r10, r28
    5ee6:	bd 1e       	adc	r11, r29
    5ee8:	a1 0e       	add	r10, r17
    5eea:	b1 1c       	adc	r11, r1
		//sss[len] = '0' + low;
		//digit /= 10;
		//len--;
		while(len-->0)
		{
			low = digit % 10;
    5eec:	c7 01       	movw	r24, r14
    5eee:	b6 01       	movw	r22, r12
    5ef0:	a3 01       	movw	r20, r6
    5ef2:	92 01       	movw	r18, r4
    5ef4:	a7 d0       	rcall	.+334    	; 0x6044 <__divmodsi4>
			sss[len] = '0' + low;
    5ef6:	60 5d       	subi	r22, 0xD0	; 208
    5ef8:	f5 01       	movw	r30, r10
    5efa:	60 83       	st	Z, r22
			digit /= 10;
    5efc:	c2 2e       	mov	r12, r18
    5efe:	d3 2e       	mov	r13, r19
    5f00:	e4 2e       	mov	r14, r20
    5f02:	f5 2e       	mov	r15, r21

		uint8_t low;// = digit % 10;
		//sss[len] = '0' + low;
		//digit /= 10;
		//len--;
		while(len-->0)
    5f04:	11 50       	subi	r17, 0x01	; 1
    5f06:	58 f7       	brcc	.-42     	; 0x5ede <_ZN8ns_rs2326DigitZEhl+0x68>
		{
			low = digit % 10;
			sss[len] = '0' + low;
			digit /= 10;
		}
		String(sss);
    5f08:	ce 01       	movw	r24, r28
    5f0a:	01 96       	adiw	r24, 0x01	; 1
    5f0c:	96 df       	rcall	.-212    	; 0x5e3a <_ZN8ns_rs2326StringEPKc>
	}
    5f0e:	60 96       	adiw	r28, 0x10	; 16
    5f10:	0f b6       	in	r0, 0x3f	; 63
    5f12:	f8 94       	cli
    5f14:	de bf       	out	0x3e, r29	; 62
    5f16:	0f be       	out	0x3f, r0	; 63
    5f18:	cd bf       	out	0x3d, r28	; 61
    5f1a:	df 91       	pop	r29
    5f1c:	cf 91       	pop	r28
    5f1e:	1f 91       	pop	r17
    5f20:	ff 90       	pop	r15
    5f22:	ef 90       	pop	r14
    5f24:	df 90       	pop	r13
    5f26:	cf 90       	pop	r12
    5f28:	bf 90       	pop	r11
    5f2a:	af 90       	pop	r10
    5f2c:	7f 90       	pop	r7
    5f2e:	6f 90       	pop	r6
    5f30:	5f 90       	pop	r5
    5f32:	4f 90       	pop	r4
    5f34:	08 95       	ret

00005f36 <_ZN12ns_timerMain4InitEv>:
{
	//  1, 8, 64, 256, 1024
	void Init()
	{
		uint16_t prDiv;
		TCCR2 = 0;
    5f36:	15 bc       	out	0x25, r1	; 37
		// CTC mode
		TCCR2_WGM21 = 1;
    5f38:	85 b5       	in	r24, 0x25	; 37
    5f3a:	88 60       	ori	r24, 0x08	; 8
    5f3c:	85 bd       	out	0x25, r24	; 37
		TCCR2_WGM20 = 0;
    5f3e:	85 b5       	in	r24, 0x25	; 37
    5f40:	8f 7b       	andi	r24, 0xBF	; 191
    5f42:	85 bd       	out	0x25, r24	; 37
		TCCR2_COM21 = 0;
    5f44:	85 b5       	in	r24, 0x25	; 37
    5f46:	8f 7d       	andi	r24, 0xDF	; 223
    5f48:	85 bd       	out	0x25, r24	; 37
		TCCR2_COM20 = 0;
    5f4a:	85 b5       	in	r24, 0x25	; 37
    5f4c:	8f 7e       	andi	r24, 0xEF	; 239
    5f4e:	85 bd       	out	0x25, r24	; 37
			TCCR2_CS20 = 0;
		}
		else if (prDiv <= 64)
		{
			prDiv = 64;
			TCCR2_CS22 = 0;
    5f50:	85 b5       	in	r24, 0x25	; 37
    5f52:	8b 7f       	andi	r24, 0xFB	; 251
    5f54:	85 bd       	out	0x25, r24	; 37
			TCCR2_CS21 = 1;
    5f56:	85 b5       	in	r24, 0x25	; 37
    5f58:	82 60       	ori	r24, 0x02	; 2
    5f5a:	85 bd       	out	0x25, r24	; 37
			TCCR2_CS20 = 1;
    5f5c:	85 b5       	in	r24, 0x25	; 37
    5f5e:	81 60       	ori	r24, 0x01	; 1
    5f60:	85 bd       	out	0x25, r24	; 37
			TCCR2_CS22 = 1;
			TCCR2_CS21 = 0;
			TCCR2_CS20 = 1;
		}
		//  
		TCCR2_FOC2 = 0;
    5f62:	85 b5       	in	r24, 0x25	; 37
    5f64:	8f 77       	andi	r24, 0x7F	; 127
    5f66:	85 bd       	out	0x25, r24	; 37
		TCNT2 = 0;
    5f68:	14 bc       	out	0x24, r1	; 36
		uint8_t div = (uint8_t)( ((uint32_t)C_Fosc) / ( ((uint32_t)prDiv) * ((uint32_t)FtTimerMain) * ((uint32_t)1) ) ) - 1;
		OCR2 = div;
    5f6a:	8c e7       	ldi	r24, 0x7C	; 124
    5f6c:	83 bd       	out	0x23, r24	; 35
		TIFR_OCF2 = 0;
    5f6e:	86 b7       	in	r24, 0x36	; 54
    5f70:	8f 77       	andi	r24, 0x7F	; 127
    5f72:	86 bf       	out	0x36, r24	; 54
		TIFR_TOV2 = 0;
    5f74:	86 b7       	in	r24, 0x36	; 54
    5f76:	8f 7b       	andi	r24, 0xBF	; 191
    5f78:	86 bf       	out	0x36, r24	; 54
		TIMSK_OCIE2 = 1;
    5f7a:	87 b7       	in	r24, 0x37	; 55
    5f7c:	80 68       	ori	r24, 0x80	; 128
    5f7e:	87 bf       	out	0x37, r24	; 55
    5f80:	08 95       	ret

00005f82 <__vector_9>:
	}
	// =============
	ISR(TIMER2_COMP_vect)
	{
    5f82:	1f 92       	push	r1
    5f84:	0f 92       	push	r0
    5f86:	0f b6       	in	r0, 0x3f	; 63
    5f88:	0f 92       	push	r0
    5f8a:	11 24       	eor	r1, r1
    5f8c:	0b b6       	in	r0, 0x3b	; 59
    5f8e:	0f 92       	push	r0
    5f90:	2f 93       	push	r18
    5f92:	3f 93       	push	r19
    5f94:	4f 93       	push	r20
    5f96:	5f 93       	push	r21
    5f98:	6f 93       	push	r22
    5f9a:	7f 93       	push	r23
    5f9c:	8f 93       	push	r24
    5f9e:	9f 93       	push	r25
    5fa0:	af 93       	push	r26
    5fa2:	bf 93       	push	r27
    5fa4:	ef 93       	push	r30
    5fa6:	ff 93       	push	r31
		ns_module::InterruptMainTimer();
    5fa8:	0e 94 18 25 	call	0x4a30	; 0x4a30 <_ZN9ns_module18InterruptMainTimerEv>
	}
    5fac:	ff 91       	pop	r31
    5fae:	ef 91       	pop	r30
    5fb0:	bf 91       	pop	r27
    5fb2:	af 91       	pop	r26
    5fb4:	9f 91       	pop	r25
    5fb6:	8f 91       	pop	r24
    5fb8:	7f 91       	pop	r23
    5fba:	6f 91       	pop	r22
    5fbc:	5f 91       	pop	r21
    5fbe:	4f 91       	pop	r20
    5fc0:	3f 91       	pop	r19
    5fc2:	2f 91       	pop	r18
    5fc4:	0f 90       	pop	r0
    5fc6:	0b be       	out	0x3b, r0	; 59
    5fc8:	0f 90       	pop	r0
    5fca:	0f be       	out	0x3f, r0	; 63
    5fcc:	0f 90       	pop	r0
    5fce:	1f 90       	pop	r1
    5fd0:	18 95       	reti

00005fd2 <_ZN11ns_watchdog7enabledEv>:
				"out __SREG__,__tmp_reg__"   "\n\t"
				: [TEMPREG] "=d" (temp_reg)
				: [WDTREG]  "I"  (_SFR_IO_ADDR(_WD_CONTROL_REG)),
				[WDCE_WDE]  "n"  ((uint8_t)(_BV(_WD_CHANGE_BIT) | _BV(WDE)))
				: "r0"
		);
    5fd2:	9e e0       	ldi	r25, 0x0E	; 14
    5fd4:	88 e1       	ldi	r24, 0x18	; 24
    5fd6:	0f b6       	in	r0, 0x3f	; 63
    5fd8:	f8 94       	cli
    5fda:	a8 95       	wdr
    5fdc:	81 bd       	out	0x21, r24	; 33
    5fde:	0f be       	out	0x3f, r0	; 63
    5fe0:	91 bd       	out	0x21, r25	; 33
    5fe2:	08 95       	ret

00005fe4 <_ZN11ns_watchdog5resetEv>:
    {
		wdt_disable();
    }
    void reset()
    {
	    wdt_reset();
    5fe4:	a8 95       	wdr
    5fe6:	08 95       	ret

00005fe8 <__udivmodqi4>:
    5fe8:	99 1b       	sub	r25, r25
    5fea:	79 e0       	ldi	r23, 0x09	; 9
    5fec:	04 c0       	rjmp	.+8      	; 0x5ff6 <__udivmodqi4_ep>

00005fee <__udivmodqi4_loop>:
    5fee:	99 1f       	adc	r25, r25
    5ff0:	96 17       	cp	r25, r22
    5ff2:	08 f0       	brcs	.+2      	; 0x5ff6 <__udivmodqi4_ep>
    5ff4:	96 1b       	sub	r25, r22

00005ff6 <__udivmodqi4_ep>:
    5ff6:	88 1f       	adc	r24, r24
    5ff8:	7a 95       	dec	r23
    5ffa:	c9 f7       	brne	.-14     	; 0x5fee <__udivmodqi4_loop>
    5ffc:	80 95       	com	r24
    5ffe:	08 95       	ret

00006000 <__udivmodsi4>:
    6000:	a1 e2       	ldi	r26, 0x21	; 33
    6002:	1a 2e       	mov	r1, r26
    6004:	aa 1b       	sub	r26, r26
    6006:	bb 1b       	sub	r27, r27
    6008:	fd 01       	movw	r30, r26
    600a:	0d c0       	rjmp	.+26     	; 0x6026 <__udivmodsi4_ep>

0000600c <__udivmodsi4_loop>:
    600c:	aa 1f       	adc	r26, r26
    600e:	bb 1f       	adc	r27, r27
    6010:	ee 1f       	adc	r30, r30
    6012:	ff 1f       	adc	r31, r31
    6014:	a2 17       	cp	r26, r18
    6016:	b3 07       	cpc	r27, r19
    6018:	e4 07       	cpc	r30, r20
    601a:	f5 07       	cpc	r31, r21
    601c:	20 f0       	brcs	.+8      	; 0x6026 <__udivmodsi4_ep>
    601e:	a2 1b       	sub	r26, r18
    6020:	b3 0b       	sbc	r27, r19
    6022:	e4 0b       	sbc	r30, r20
    6024:	f5 0b       	sbc	r31, r21

00006026 <__udivmodsi4_ep>:
    6026:	66 1f       	adc	r22, r22
    6028:	77 1f       	adc	r23, r23
    602a:	88 1f       	adc	r24, r24
    602c:	99 1f       	adc	r25, r25
    602e:	1a 94       	dec	r1
    6030:	69 f7       	brne	.-38     	; 0x600c <__udivmodsi4_loop>
    6032:	60 95       	com	r22
    6034:	70 95       	com	r23
    6036:	80 95       	com	r24
    6038:	90 95       	com	r25
    603a:	9b 01       	movw	r18, r22
    603c:	ac 01       	movw	r20, r24
    603e:	bd 01       	movw	r22, r26
    6040:	cf 01       	movw	r24, r30
    6042:	08 95       	ret

00006044 <__divmodsi4>:
    6044:	05 2e       	mov	r0, r21
    6046:	97 fb       	bst	r25, 7
    6048:	16 f4       	brtc	.+4      	; 0x604e <__divmodsi4+0xa>
    604a:	00 94       	com	r0
    604c:	0f d0       	rcall	.+30     	; 0x606c <__negsi2>
    604e:	57 fd       	sbrc	r21, 7
    6050:	05 d0       	rcall	.+10     	; 0x605c <__divmodsi4_neg2>
    6052:	d6 df       	rcall	.-84     	; 0x6000 <__udivmodsi4>
    6054:	07 fc       	sbrc	r0, 7
    6056:	02 d0       	rcall	.+4      	; 0x605c <__divmodsi4_neg2>
    6058:	46 f4       	brtc	.+16     	; 0x606a <__divmodsi4_exit>
    605a:	08 c0       	rjmp	.+16     	; 0x606c <__negsi2>

0000605c <__divmodsi4_neg2>:
    605c:	50 95       	com	r21
    605e:	40 95       	com	r20
    6060:	30 95       	com	r19
    6062:	21 95       	neg	r18
    6064:	3f 4f       	sbci	r19, 0xFF	; 255
    6066:	4f 4f       	sbci	r20, 0xFF	; 255
    6068:	5f 4f       	sbci	r21, 0xFF	; 255

0000606a <__divmodsi4_exit>:
    606a:	08 95       	ret

0000606c <__negsi2>:
    606c:	90 95       	com	r25
    606e:	80 95       	com	r24
    6070:	70 95       	com	r23
    6072:	61 95       	neg	r22
    6074:	7f 4f       	sbci	r23, 0xFF	; 255
    6076:	8f 4f       	sbci	r24, 0xFF	; 255
    6078:	9f 4f       	sbci	r25, 0xFF	; 255
    607a:	08 95       	ret

0000607c <__umulhisi3>:
    607c:	a2 9f       	mul	r26, r18
    607e:	b0 01       	movw	r22, r0
    6080:	b3 9f       	mul	r27, r19
    6082:	c0 01       	movw	r24, r0
    6084:	a3 9f       	mul	r26, r19
    6086:	70 0d       	add	r23, r0
    6088:	81 1d       	adc	r24, r1
    608a:	11 24       	eor	r1, r1
    608c:	91 1d       	adc	r25, r1
    608e:	b2 9f       	mul	r27, r18
    6090:	70 0d       	add	r23, r0
    6092:	81 1d       	adc	r24, r1
    6094:	11 24       	eor	r1, r1
    6096:	91 1d       	adc	r25, r1
    6098:	08 95       	ret

0000609a <__muldi3>:
    609a:	df 93       	push	r29
    609c:	cf 93       	push	r28
    609e:	1f 93       	push	r17
    60a0:	0f 93       	push	r16
    60a2:	9a 9d       	mul	r25, r10
    60a4:	f0 2d       	mov	r31, r0
    60a6:	21 9f       	mul	r18, r17
    60a8:	f0 0d       	add	r31, r0
    60aa:	8b 9d       	mul	r24, r11
    60ac:	f0 0d       	add	r31, r0
    60ae:	8a 9d       	mul	r24, r10
    60b0:	e0 2d       	mov	r30, r0
    60b2:	f1 0d       	add	r31, r1
    60b4:	03 9f       	mul	r16, r19
    60b6:	f0 0d       	add	r31, r0
    60b8:	02 9f       	mul	r16, r18
    60ba:	e0 0d       	add	r30, r0
    60bc:	f1 1d       	adc	r31, r1
    60be:	4e 9d       	mul	r20, r14
    60c0:	e0 0d       	add	r30, r0
    60c2:	f1 1d       	adc	r31, r1
    60c4:	5e 9d       	mul	r21, r14
    60c6:	f0 0d       	add	r31, r0
    60c8:	4f 9d       	mul	r20, r15
    60ca:	f0 0d       	add	r31, r0
    60cc:	7f 93       	push	r23
    60ce:	6f 93       	push	r22
    60d0:	bf 92       	push	r11
    60d2:	af 92       	push	r10
    60d4:	5f 93       	push	r21
    60d6:	4f 93       	push	r20
    60d8:	d5 01       	movw	r26, r10
    60da:	d0 df       	rcall	.-96     	; 0x607c <__umulhisi3>
    60dc:	8b 01       	movw	r16, r22
    60de:	ac 01       	movw	r20, r24
    60e0:	d7 01       	movw	r26, r14
    60e2:	cc df       	rcall	.-104    	; 0x607c <__umulhisi3>
    60e4:	eb 01       	movw	r28, r22
    60e6:	e8 0f       	add	r30, r24
    60e8:	f9 1f       	adc	r31, r25
    60ea:	d6 01       	movw	r26, r12
    60ec:	1f d0       	rcall	.+62     	; 0x612c <__muldi3_6>
    60ee:	2f 91       	pop	r18
    60f0:	3f 91       	pop	r19
    60f2:	d6 01       	movw	r26, r12
    60f4:	c3 df       	rcall	.-122    	; 0x607c <__umulhisi3>
    60f6:	c6 0f       	add	r28, r22
    60f8:	d7 1f       	adc	r29, r23
    60fa:	e8 1f       	adc	r30, r24
    60fc:	f9 1f       	adc	r31, r25
    60fe:	af 91       	pop	r26
    6100:	bf 91       	pop	r27
    6102:	14 d0       	rcall	.+40     	; 0x612c <__muldi3_6>
    6104:	2f 91       	pop	r18
    6106:	3f 91       	pop	r19
    6108:	b9 df       	rcall	.-142    	; 0x607c <__umulhisi3>
    610a:	c6 0f       	add	r28, r22
    610c:	d7 1f       	adc	r29, r23
    610e:	e8 1f       	adc	r30, r24
    6110:	f9 1f       	adc	r31, r25
    6112:	d6 01       	movw	r26, r12
    6114:	b3 df       	rcall	.-154    	; 0x607c <__umulhisi3>
    6116:	e6 0f       	add	r30, r22
    6118:	f7 1f       	adc	r31, r23
    611a:	98 01       	movw	r18, r16
    611c:	be 01       	movw	r22, r28
    611e:	cf 01       	movw	r24, r30
    6120:	11 24       	eor	r1, r1
    6122:	0f 91       	pop	r16
    6124:	1f 91       	pop	r17
    6126:	cf 91       	pop	r28
    6128:	df 91       	pop	r29
    612a:	08 95       	ret

0000612c <__muldi3_6>:
    612c:	a7 df       	rcall	.-178    	; 0x607c <__umulhisi3>
    612e:	46 0f       	add	r20, r22
    6130:	57 1f       	adc	r21, r23
    6132:	c8 1f       	adc	r28, r24
    6134:	d9 1f       	adc	r29, r25
    6136:	08 f4       	brcc	.+2      	; 0x613a <__muldi3_6+0xe>
    6138:	31 96       	adiw	r30, 0x01	; 1
    613a:	08 95       	ret

0000613c <__umoddi3>:
    613c:	68 94       	set
    613e:	01 c0       	rjmp	.+2      	; 0x6142 <__udivdi3_umoddi3>

00006140 <__udivdi3>:
    6140:	e8 94       	clt

00006142 <__udivdi3_umoddi3>:
    6142:	8f 92       	push	r8
    6144:	9f 92       	push	r9
    6146:	cf 93       	push	r28
    6148:	df 93       	push	r29
    614a:	05 d0       	rcall	.+10     	; 0x6156 <__udivmod64>
    614c:	df 91       	pop	r29
    614e:	cf 91       	pop	r28
    6150:	9f 90       	pop	r9
    6152:	8f 90       	pop	r8
    6154:	08 95       	ret

00006156 <__udivmod64>:
    6156:	88 24       	eor	r8, r8
    6158:	99 24       	eor	r9, r9
    615a:	f4 01       	movw	r30, r8
    615c:	e4 01       	movw	r28, r8
    615e:	b0 e4       	ldi	r27, 0x40	; 64
    6160:	9f 93       	push	r25
    6162:	aa 27       	eor	r26, r26
    6164:	9a 15       	cp	r25, r10
    6166:	8b 04       	cpc	r8, r11
    6168:	9c 04       	cpc	r9, r12
    616a:	ed 05       	cpc	r30, r13
    616c:	fe 05       	cpc	r31, r14
    616e:	cf 05       	cpc	r28, r15
    6170:	d0 07       	cpc	r29, r16
    6172:	a1 07       	cpc	r26, r17
    6174:	98 f4       	brcc	.+38     	; 0x619c <__udivmod64+0x46>
    6176:	ad 2f       	mov	r26, r29
    6178:	dc 2f       	mov	r29, r28
    617a:	cf 2f       	mov	r28, r31
    617c:	fe 2f       	mov	r31, r30
    617e:	e9 2d       	mov	r30, r9
    6180:	98 2c       	mov	r9, r8
    6182:	89 2e       	mov	r8, r25
    6184:	98 2f       	mov	r25, r24
    6186:	87 2f       	mov	r24, r23
    6188:	76 2f       	mov	r23, r22
    618a:	65 2f       	mov	r22, r21
    618c:	54 2f       	mov	r21, r20
    618e:	43 2f       	mov	r20, r19
    6190:	32 2f       	mov	r19, r18
    6192:	22 27       	eor	r18, r18
    6194:	b8 50       	subi	r27, 0x08	; 8
    6196:	31 f7       	brne	.-52     	; 0x6164 <__udivmod64+0xe>
    6198:	bf 91       	pop	r27
    619a:	27 c0       	rjmp	.+78     	; 0x61ea <__udivmod64+0x94>
    619c:	1b 2e       	mov	r1, r27
    619e:	bf 91       	pop	r27
    61a0:	bb 27       	eor	r27, r27
    61a2:	22 0f       	add	r18, r18
    61a4:	33 1f       	adc	r19, r19
    61a6:	44 1f       	adc	r20, r20
    61a8:	55 1f       	adc	r21, r21
    61aa:	66 1f       	adc	r22, r22
    61ac:	77 1f       	adc	r23, r23
    61ae:	88 1f       	adc	r24, r24
    61b0:	99 1f       	adc	r25, r25
    61b2:	88 1c       	adc	r8, r8
    61b4:	99 1c       	adc	r9, r9
    61b6:	ee 1f       	adc	r30, r30
    61b8:	ff 1f       	adc	r31, r31
    61ba:	cc 1f       	adc	r28, r28
    61bc:	dd 1f       	adc	r29, r29
    61be:	aa 1f       	adc	r26, r26
    61c0:	bb 1f       	adc	r27, r27
    61c2:	8a 14       	cp	r8, r10
    61c4:	9b 04       	cpc	r9, r11
    61c6:	ec 05       	cpc	r30, r12
    61c8:	fd 05       	cpc	r31, r13
    61ca:	ce 05       	cpc	r28, r14
    61cc:	df 05       	cpc	r29, r15
    61ce:	a0 07       	cpc	r26, r16
    61d0:	b1 07       	cpc	r27, r17
    61d2:	48 f0       	brcs	.+18     	; 0x61e6 <__udivmod64+0x90>
    61d4:	8a 18       	sub	r8, r10
    61d6:	9b 08       	sbc	r9, r11
    61d8:	ec 09       	sbc	r30, r12
    61da:	fd 09       	sbc	r31, r13
    61dc:	ce 09       	sbc	r28, r14
    61de:	df 09       	sbc	r29, r15
    61e0:	a0 0b       	sbc	r26, r16
    61e2:	b1 0b       	sbc	r27, r17
    61e4:	21 60       	ori	r18, 0x01	; 1
    61e6:	1a 94       	dec	r1
    61e8:	e1 f6       	brne	.-72     	; 0x61a2 <__udivmod64+0x4c>
    61ea:	2e f4       	brtc	.+10     	; 0x61f6 <__udivmod64+0xa0>
    61ec:	94 01       	movw	r18, r8
    61ee:	af 01       	movw	r20, r30
    61f0:	be 01       	movw	r22, r28
    61f2:	cd 01       	movw	r24, r26
    61f4:	00 0c       	add	r0, r0
    61f6:	08 95       	ret

000061f8 <__ashldi3>:
    61f8:	0f 93       	push	r16
    61fa:	08 30       	cpi	r16, 0x08	; 8
    61fc:	90 f0       	brcs	.+36     	; 0x6222 <__ashldi3+0x2a>
    61fe:	98 2f       	mov	r25, r24
    6200:	87 2f       	mov	r24, r23
    6202:	76 2f       	mov	r23, r22
    6204:	65 2f       	mov	r22, r21
    6206:	54 2f       	mov	r21, r20
    6208:	43 2f       	mov	r20, r19
    620a:	32 2f       	mov	r19, r18
    620c:	22 27       	eor	r18, r18
    620e:	08 50       	subi	r16, 0x08	; 8
    6210:	f4 cf       	rjmp	.-24     	; 0x61fa <__ashldi3+0x2>
    6212:	22 0f       	add	r18, r18
    6214:	33 1f       	adc	r19, r19
    6216:	44 1f       	adc	r20, r20
    6218:	55 1f       	adc	r21, r21
    621a:	66 1f       	adc	r22, r22
    621c:	77 1f       	adc	r23, r23
    621e:	88 1f       	adc	r24, r24
    6220:	99 1f       	adc	r25, r25
    6222:	0a 95       	dec	r16
    6224:	b2 f7       	brpl	.-20     	; 0x6212 <__ashldi3+0x1a>
    6226:	0f 91       	pop	r16
    6228:	08 95       	ret

0000622a <__adddi3>:
    622a:	2a 0d       	add	r18, r10
    622c:	3b 1d       	adc	r19, r11
    622e:	4c 1d       	adc	r20, r12
    6230:	5d 1d       	adc	r21, r13
    6232:	6e 1d       	adc	r22, r14
    6234:	7f 1d       	adc	r23, r15
    6236:	80 1f       	adc	r24, r16
    6238:	91 1f       	adc	r25, r17
    623a:	08 95       	ret

0000623c <__adddi3_s8>:
    623c:	00 24       	eor	r0, r0
    623e:	a7 fd       	sbrc	r26, 7
    6240:	00 94       	com	r0
    6242:	2a 0f       	add	r18, r26
    6244:	30 1d       	adc	r19, r0
    6246:	40 1d       	adc	r20, r0
    6248:	50 1d       	adc	r21, r0
    624a:	60 1d       	adc	r22, r0
    624c:	70 1d       	adc	r23, r0
    624e:	80 1d       	adc	r24, r0
    6250:	90 1d       	adc	r25, r0
    6252:	08 95       	ret

00006254 <__tablejump2__>:
    6254:	ee 0f       	add	r30, r30
    6256:	ff 1f       	adc	r31, r31
    6258:	00 24       	eor	r0, r0
    625a:	00 1c       	adc	r0, r0
    625c:	0b be       	out	0x3b, r0	; 59
    625e:	07 90       	elpm	r0, Z+
    6260:	f6 91       	elpm	r31, Z
    6262:	e0 2d       	mov	r30, r0
    6264:	09 94       	ijmp

00006266 <malloc>:
    6266:	cf 93       	push	r28
    6268:	df 93       	push	r29
    626a:	82 30       	cpi	r24, 0x02	; 2
    626c:	91 05       	cpc	r25, r1
    626e:	10 f4       	brcc	.+4      	; 0x6274 <malloc+0xe>
    6270:	82 e0       	ldi	r24, 0x02	; 2
    6272:	90 e0       	ldi	r25, 0x00	; 0
    6274:	e0 91 0b 02 	lds	r30, 0x020B	; 0x80020b <__flp>
    6278:	f0 91 0c 02 	lds	r31, 0x020C	; 0x80020c <__flp+0x1>
    627c:	20 e0       	ldi	r18, 0x00	; 0
    627e:	30 e0       	ldi	r19, 0x00	; 0
    6280:	c0 e0       	ldi	r28, 0x00	; 0
    6282:	d0 e0       	ldi	r29, 0x00	; 0
    6284:	30 97       	sbiw	r30, 0x00	; 0
    6286:	11 f1       	breq	.+68     	; 0x62cc <malloc+0x66>
    6288:	40 81       	ld	r20, Z
    628a:	51 81       	ldd	r21, Z+1	; 0x01
    628c:	48 17       	cp	r20, r24
    628e:	59 07       	cpc	r21, r25
    6290:	c0 f0       	brcs	.+48     	; 0x62c2 <malloc+0x5c>
    6292:	48 17       	cp	r20, r24
    6294:	59 07       	cpc	r21, r25
    6296:	61 f4       	brne	.+24     	; 0x62b0 <malloc+0x4a>
    6298:	82 81       	ldd	r24, Z+2	; 0x02
    629a:	93 81       	ldd	r25, Z+3	; 0x03
    629c:	20 97       	sbiw	r28, 0x00	; 0
    629e:	19 f0       	breq	.+6      	; 0x62a6 <malloc+0x40>
    62a0:	9b 83       	std	Y+3, r25	; 0x03
    62a2:	8a 83       	std	Y+2, r24	; 0x02
    62a4:	2b c0       	rjmp	.+86     	; 0x62fc <malloc+0x96>
    62a6:	90 93 0c 02 	sts	0x020C, r25	; 0x80020c <__flp+0x1>
    62aa:	80 93 0b 02 	sts	0x020B, r24	; 0x80020b <__flp>
    62ae:	26 c0       	rjmp	.+76     	; 0x62fc <malloc+0x96>
    62b0:	21 15       	cp	r18, r1
    62b2:	31 05       	cpc	r19, r1
    62b4:	19 f0       	breq	.+6      	; 0x62bc <malloc+0x56>
    62b6:	42 17       	cp	r20, r18
    62b8:	53 07       	cpc	r21, r19
    62ba:	18 f4       	brcc	.+6      	; 0x62c2 <malloc+0x5c>
    62bc:	9a 01       	movw	r18, r20
    62be:	be 01       	movw	r22, r28
    62c0:	df 01       	movw	r26, r30
    62c2:	ef 01       	movw	r28, r30
    62c4:	02 80       	ldd	r0, Z+2	; 0x02
    62c6:	f3 81       	ldd	r31, Z+3	; 0x03
    62c8:	e0 2d       	mov	r30, r0
    62ca:	dc cf       	rjmp	.-72     	; 0x6284 <malloc+0x1e>
    62cc:	21 15       	cp	r18, r1
    62ce:	31 05       	cpc	r19, r1
    62d0:	09 f1       	breq	.+66     	; 0x6314 <malloc+0xae>
    62d2:	28 1b       	sub	r18, r24
    62d4:	39 0b       	sbc	r19, r25
    62d6:	24 30       	cpi	r18, 0x04	; 4
    62d8:	31 05       	cpc	r19, r1
    62da:	90 f4       	brcc	.+36     	; 0x6300 <malloc+0x9a>
    62dc:	12 96       	adiw	r26, 0x02	; 2
    62de:	8d 91       	ld	r24, X+
    62e0:	9c 91       	ld	r25, X
    62e2:	13 97       	sbiw	r26, 0x03	; 3
    62e4:	61 15       	cp	r22, r1
    62e6:	71 05       	cpc	r23, r1
    62e8:	21 f0       	breq	.+8      	; 0x62f2 <malloc+0x8c>
    62ea:	fb 01       	movw	r30, r22
    62ec:	93 83       	std	Z+3, r25	; 0x03
    62ee:	82 83       	std	Z+2, r24	; 0x02
    62f0:	04 c0       	rjmp	.+8      	; 0x62fa <malloc+0x94>
    62f2:	90 93 0c 02 	sts	0x020C, r25	; 0x80020c <__flp+0x1>
    62f6:	80 93 0b 02 	sts	0x020B, r24	; 0x80020b <__flp>
    62fa:	fd 01       	movw	r30, r26
    62fc:	32 96       	adiw	r30, 0x02	; 2
    62fe:	44 c0       	rjmp	.+136    	; 0x6388 <malloc+0x122>
    6300:	fd 01       	movw	r30, r26
    6302:	e2 0f       	add	r30, r18
    6304:	f3 1f       	adc	r31, r19
    6306:	81 93       	st	Z+, r24
    6308:	91 93       	st	Z+, r25
    630a:	22 50       	subi	r18, 0x02	; 2
    630c:	31 09       	sbc	r19, r1
    630e:	2d 93       	st	X+, r18
    6310:	3c 93       	st	X, r19
    6312:	3a c0       	rjmp	.+116    	; 0x6388 <malloc+0x122>
    6314:	20 91 09 02 	lds	r18, 0x0209	; 0x800209 <__brkval>
    6318:	30 91 0a 02 	lds	r19, 0x020A	; 0x80020a <__brkval+0x1>
    631c:	23 2b       	or	r18, r19
    631e:	41 f4       	brne	.+16     	; 0x6330 <malloc+0xca>
    6320:	20 91 02 01 	lds	r18, 0x0102	; 0x800102 <__malloc_heap_start>
    6324:	30 91 03 01 	lds	r19, 0x0103	; 0x800103 <__malloc_heap_start+0x1>
    6328:	30 93 0a 02 	sts	0x020A, r19	; 0x80020a <__brkval+0x1>
    632c:	20 93 09 02 	sts	0x0209, r18	; 0x800209 <__brkval>
    6330:	20 91 00 01 	lds	r18, 0x0100	; 0x800100 <__data_start>
    6334:	30 91 01 01 	lds	r19, 0x0101	; 0x800101 <__data_start+0x1>
    6338:	21 15       	cp	r18, r1
    633a:	31 05       	cpc	r19, r1
    633c:	41 f4       	brne	.+16     	; 0x634e <malloc+0xe8>
    633e:	2d b7       	in	r18, 0x3d	; 61
    6340:	3e b7       	in	r19, 0x3e	; 62
    6342:	40 91 04 01 	lds	r20, 0x0104	; 0x800104 <__malloc_margin>
    6346:	50 91 05 01 	lds	r21, 0x0105	; 0x800105 <__malloc_margin+0x1>
    634a:	24 1b       	sub	r18, r20
    634c:	35 0b       	sbc	r19, r21
    634e:	e0 91 09 02 	lds	r30, 0x0209	; 0x800209 <__brkval>
    6352:	f0 91 0a 02 	lds	r31, 0x020A	; 0x80020a <__brkval+0x1>
    6356:	e2 17       	cp	r30, r18
    6358:	f3 07       	cpc	r31, r19
    635a:	a0 f4       	brcc	.+40     	; 0x6384 <malloc+0x11e>
    635c:	2e 1b       	sub	r18, r30
    635e:	3f 0b       	sbc	r19, r31
    6360:	28 17       	cp	r18, r24
    6362:	39 07       	cpc	r19, r25
    6364:	78 f0       	brcs	.+30     	; 0x6384 <malloc+0x11e>
    6366:	ac 01       	movw	r20, r24
    6368:	4e 5f       	subi	r20, 0xFE	; 254
    636a:	5f 4f       	sbci	r21, 0xFF	; 255
    636c:	24 17       	cp	r18, r20
    636e:	35 07       	cpc	r19, r21
    6370:	48 f0       	brcs	.+18     	; 0x6384 <malloc+0x11e>
    6372:	4e 0f       	add	r20, r30
    6374:	5f 1f       	adc	r21, r31
    6376:	50 93 0a 02 	sts	0x020A, r21	; 0x80020a <__brkval+0x1>
    637a:	40 93 09 02 	sts	0x0209, r20	; 0x800209 <__brkval>
    637e:	81 93       	st	Z+, r24
    6380:	91 93       	st	Z+, r25
    6382:	02 c0       	rjmp	.+4      	; 0x6388 <malloc+0x122>
    6384:	e0 e0       	ldi	r30, 0x00	; 0
    6386:	f0 e0       	ldi	r31, 0x00	; 0
    6388:	cf 01       	movw	r24, r30
    638a:	df 91       	pop	r29
    638c:	cf 91       	pop	r28
    638e:	08 95       	ret

00006390 <free>:
    6390:	0f 93       	push	r16
    6392:	1f 93       	push	r17
    6394:	cf 93       	push	r28
    6396:	df 93       	push	r29
    6398:	00 97       	sbiw	r24, 0x00	; 0
    639a:	09 f4       	brne	.+2      	; 0x639e <free+0xe>
    639c:	8c c0       	rjmp	.+280    	; 0x64b6 <free+0x126>
    639e:	fc 01       	movw	r30, r24
    63a0:	32 97       	sbiw	r30, 0x02	; 2
    63a2:	13 82       	std	Z+3, r1	; 0x03
    63a4:	12 82       	std	Z+2, r1	; 0x02
    63a6:	00 91 0b 02 	lds	r16, 0x020B	; 0x80020b <__flp>
    63aa:	10 91 0c 02 	lds	r17, 0x020C	; 0x80020c <__flp+0x1>
    63ae:	01 15       	cp	r16, r1
    63b0:	11 05       	cpc	r17, r1
    63b2:	81 f4       	brne	.+32     	; 0x63d4 <free+0x44>
    63b4:	20 81       	ld	r18, Z
    63b6:	31 81       	ldd	r19, Z+1	; 0x01
    63b8:	82 0f       	add	r24, r18
    63ba:	93 1f       	adc	r25, r19
    63bc:	20 91 09 02 	lds	r18, 0x0209	; 0x800209 <__brkval>
    63c0:	30 91 0a 02 	lds	r19, 0x020A	; 0x80020a <__brkval+0x1>
    63c4:	28 17       	cp	r18, r24
    63c6:	39 07       	cpc	r19, r25
    63c8:	79 f5       	brne	.+94     	; 0x6428 <free+0x98>
    63ca:	f0 93 0a 02 	sts	0x020A, r31	; 0x80020a <__brkval+0x1>
    63ce:	e0 93 09 02 	sts	0x0209, r30	; 0x800209 <__brkval>
    63d2:	71 c0       	rjmp	.+226    	; 0x64b6 <free+0x126>
    63d4:	d8 01       	movw	r26, r16
    63d6:	40 e0       	ldi	r20, 0x00	; 0
    63d8:	50 e0       	ldi	r21, 0x00	; 0
    63da:	ae 17       	cp	r26, r30
    63dc:	bf 07       	cpc	r27, r31
    63de:	50 f4       	brcc	.+20     	; 0x63f4 <free+0x64>
    63e0:	12 96       	adiw	r26, 0x02	; 2
    63e2:	2d 91       	ld	r18, X+
    63e4:	3c 91       	ld	r19, X
    63e6:	13 97       	sbiw	r26, 0x03	; 3
    63e8:	ad 01       	movw	r20, r26
    63ea:	21 15       	cp	r18, r1
    63ec:	31 05       	cpc	r19, r1
    63ee:	09 f1       	breq	.+66     	; 0x6432 <free+0xa2>
    63f0:	d9 01       	movw	r26, r18
    63f2:	f3 cf       	rjmp	.-26     	; 0x63da <free+0x4a>
    63f4:	9d 01       	movw	r18, r26
    63f6:	da 01       	movw	r26, r20
    63f8:	33 83       	std	Z+3, r19	; 0x03
    63fa:	22 83       	std	Z+2, r18	; 0x02
    63fc:	60 81       	ld	r22, Z
    63fe:	71 81       	ldd	r23, Z+1	; 0x01
    6400:	86 0f       	add	r24, r22
    6402:	97 1f       	adc	r25, r23
    6404:	82 17       	cp	r24, r18
    6406:	93 07       	cpc	r25, r19
    6408:	69 f4       	brne	.+26     	; 0x6424 <free+0x94>
    640a:	ec 01       	movw	r28, r24
    640c:	28 81       	ld	r18, Y
    640e:	39 81       	ldd	r19, Y+1	; 0x01
    6410:	26 0f       	add	r18, r22
    6412:	37 1f       	adc	r19, r23
    6414:	2e 5f       	subi	r18, 0xFE	; 254
    6416:	3f 4f       	sbci	r19, 0xFF	; 255
    6418:	31 83       	std	Z+1, r19	; 0x01
    641a:	20 83       	st	Z, r18
    641c:	8a 81       	ldd	r24, Y+2	; 0x02
    641e:	9b 81       	ldd	r25, Y+3	; 0x03
    6420:	93 83       	std	Z+3, r25	; 0x03
    6422:	82 83       	std	Z+2, r24	; 0x02
    6424:	45 2b       	or	r20, r21
    6426:	29 f4       	brne	.+10     	; 0x6432 <free+0xa2>
    6428:	f0 93 0c 02 	sts	0x020C, r31	; 0x80020c <__flp+0x1>
    642c:	e0 93 0b 02 	sts	0x020B, r30	; 0x80020b <__flp>
    6430:	42 c0       	rjmp	.+132    	; 0x64b6 <free+0x126>
    6432:	13 96       	adiw	r26, 0x03	; 3
    6434:	fc 93       	st	X, r31
    6436:	ee 93       	st	-X, r30
    6438:	12 97       	sbiw	r26, 0x02	; 2
    643a:	ed 01       	movw	r28, r26
    643c:	49 91       	ld	r20, Y+
    643e:	59 91       	ld	r21, Y+
    6440:	9e 01       	movw	r18, r28
    6442:	24 0f       	add	r18, r20
    6444:	35 1f       	adc	r19, r21
    6446:	e2 17       	cp	r30, r18
    6448:	f3 07       	cpc	r31, r19
    644a:	71 f4       	brne	.+28     	; 0x6468 <free+0xd8>
    644c:	80 81       	ld	r24, Z
    644e:	91 81       	ldd	r25, Z+1	; 0x01
    6450:	84 0f       	add	r24, r20
    6452:	95 1f       	adc	r25, r21
    6454:	02 96       	adiw	r24, 0x02	; 2
    6456:	11 96       	adiw	r26, 0x01	; 1
    6458:	9c 93       	st	X, r25
    645a:	8e 93       	st	-X, r24
    645c:	82 81       	ldd	r24, Z+2	; 0x02
    645e:	93 81       	ldd	r25, Z+3	; 0x03
    6460:	13 96       	adiw	r26, 0x03	; 3
    6462:	9c 93       	st	X, r25
    6464:	8e 93       	st	-X, r24
    6466:	12 97       	sbiw	r26, 0x02	; 2
    6468:	e0 e0       	ldi	r30, 0x00	; 0
    646a:	f0 e0       	ldi	r31, 0x00	; 0
    646c:	d8 01       	movw	r26, r16
    646e:	12 96       	adiw	r26, 0x02	; 2
    6470:	8d 91       	ld	r24, X+
    6472:	9c 91       	ld	r25, X
    6474:	13 97       	sbiw	r26, 0x03	; 3
    6476:	00 97       	sbiw	r24, 0x00	; 0
    6478:	19 f0       	breq	.+6      	; 0x6480 <free+0xf0>
    647a:	f8 01       	movw	r30, r16
    647c:	8c 01       	movw	r16, r24
    647e:	f6 cf       	rjmp	.-20     	; 0x646c <free+0xdc>
    6480:	8d 91       	ld	r24, X+
    6482:	9c 91       	ld	r25, X
    6484:	98 01       	movw	r18, r16
    6486:	2e 5f       	subi	r18, 0xFE	; 254
    6488:	3f 4f       	sbci	r19, 0xFF	; 255
    648a:	82 0f       	add	r24, r18
    648c:	93 1f       	adc	r25, r19
    648e:	20 91 09 02 	lds	r18, 0x0209	; 0x800209 <__brkval>
    6492:	30 91 0a 02 	lds	r19, 0x020A	; 0x80020a <__brkval+0x1>
    6496:	28 17       	cp	r18, r24
    6498:	39 07       	cpc	r19, r25
    649a:	69 f4       	brne	.+26     	; 0x64b6 <free+0x126>
    649c:	30 97       	sbiw	r30, 0x00	; 0
    649e:	29 f4       	brne	.+10     	; 0x64aa <free+0x11a>
    64a0:	10 92 0c 02 	sts	0x020C, r1	; 0x80020c <__flp+0x1>
    64a4:	10 92 0b 02 	sts	0x020B, r1	; 0x80020b <__flp>
    64a8:	02 c0       	rjmp	.+4      	; 0x64ae <free+0x11e>
    64aa:	13 82       	std	Z+3, r1	; 0x03
    64ac:	12 82       	std	Z+2, r1	; 0x02
    64ae:	10 93 0a 02 	sts	0x020A, r17	; 0x80020a <__brkval+0x1>
    64b2:	00 93 09 02 	sts	0x0209, r16	; 0x800209 <__brkval>
    64b6:	df 91       	pop	r29
    64b8:	cf 91       	pop	r28
    64ba:	1f 91       	pop	r17
    64bc:	0f 91       	pop	r16
    64be:	08 95       	ret

000064c0 <fdevopen>:
    64c0:	0f 93       	push	r16
    64c2:	1f 93       	push	r17
    64c4:	cf 93       	push	r28
    64c6:	df 93       	push	r29
    64c8:	00 97       	sbiw	r24, 0x00	; 0
    64ca:	31 f4       	brne	.+12     	; 0x64d8 <fdevopen+0x18>
    64cc:	61 15       	cp	r22, r1
    64ce:	71 05       	cpc	r23, r1
    64d0:	19 f4       	brne	.+6      	; 0x64d8 <fdevopen+0x18>
    64d2:	80 e0       	ldi	r24, 0x00	; 0
    64d4:	90 e0       	ldi	r25, 0x00	; 0
    64d6:	39 c0       	rjmp	.+114    	; 0x654a <fdevopen+0x8a>
    64d8:	8b 01       	movw	r16, r22
    64da:	ec 01       	movw	r28, r24
    64dc:	6e e0       	ldi	r22, 0x0E	; 14
    64de:	70 e0       	ldi	r23, 0x00	; 0
    64e0:	81 e0       	ldi	r24, 0x01	; 1
    64e2:	90 e0       	ldi	r25, 0x00	; 0
    64e4:	37 d0       	rcall	.+110    	; 0x6554 <calloc>
    64e6:	fc 01       	movw	r30, r24
    64e8:	89 2b       	or	r24, r25
    64ea:	99 f3       	breq	.-26     	; 0x64d2 <fdevopen+0x12>
    64ec:	80 e8       	ldi	r24, 0x80	; 128
    64ee:	83 83       	std	Z+3, r24	; 0x03
    64f0:	01 15       	cp	r16, r1
    64f2:	11 05       	cpc	r17, r1
    64f4:	71 f0       	breq	.+28     	; 0x6512 <fdevopen+0x52>
    64f6:	13 87       	std	Z+11, r17	; 0x0b
    64f8:	02 87       	std	Z+10, r16	; 0x0a
    64fa:	81 e8       	ldi	r24, 0x81	; 129
    64fc:	83 83       	std	Z+3, r24	; 0x03
    64fe:	80 91 0d 02 	lds	r24, 0x020D	; 0x80020d <__iob>
    6502:	90 91 0e 02 	lds	r25, 0x020E	; 0x80020e <__iob+0x1>
    6506:	89 2b       	or	r24, r25
    6508:	21 f4       	brne	.+8      	; 0x6512 <fdevopen+0x52>
    650a:	f0 93 0e 02 	sts	0x020E, r31	; 0x80020e <__iob+0x1>
    650e:	e0 93 0d 02 	sts	0x020D, r30	; 0x80020d <__iob>
    6512:	20 97       	sbiw	r28, 0x00	; 0
    6514:	c9 f0       	breq	.+50     	; 0x6548 <fdevopen+0x88>
    6516:	d1 87       	std	Z+9, r29	; 0x09
    6518:	c0 87       	std	Z+8, r28	; 0x08
    651a:	83 81       	ldd	r24, Z+3	; 0x03
    651c:	82 60       	ori	r24, 0x02	; 2
    651e:	83 83       	std	Z+3, r24	; 0x03
    6520:	80 91 0f 02 	lds	r24, 0x020F	; 0x80020f <__iob+0x2>
    6524:	90 91 10 02 	lds	r25, 0x0210	; 0x800210 <__iob+0x3>
    6528:	89 2b       	or	r24, r25
    652a:	71 f4       	brne	.+28     	; 0x6548 <fdevopen+0x88>
    652c:	f0 93 10 02 	sts	0x0210, r31	; 0x800210 <__iob+0x3>
    6530:	e0 93 0f 02 	sts	0x020F, r30	; 0x80020f <__iob+0x2>
    6534:	80 91 11 02 	lds	r24, 0x0211	; 0x800211 <__iob+0x4>
    6538:	90 91 12 02 	lds	r25, 0x0212	; 0x800212 <__iob+0x5>
    653c:	89 2b       	or	r24, r25
    653e:	21 f4       	brne	.+8      	; 0x6548 <fdevopen+0x88>
    6540:	f0 93 12 02 	sts	0x0212, r31	; 0x800212 <__iob+0x5>
    6544:	e0 93 11 02 	sts	0x0211, r30	; 0x800211 <__iob+0x4>
    6548:	cf 01       	movw	r24, r30
    654a:	df 91       	pop	r29
    654c:	cf 91       	pop	r28
    654e:	1f 91       	pop	r17
    6550:	0f 91       	pop	r16
    6552:	08 95       	ret

00006554 <calloc>:
    6554:	0f 93       	push	r16
    6556:	1f 93       	push	r17
    6558:	cf 93       	push	r28
    655a:	df 93       	push	r29
    655c:	86 9f       	mul	r24, r22
    655e:	80 01       	movw	r16, r0
    6560:	87 9f       	mul	r24, r23
    6562:	10 0d       	add	r17, r0
    6564:	96 9f       	mul	r25, r22
    6566:	10 0d       	add	r17, r0
    6568:	11 24       	eor	r1, r1
    656a:	c8 01       	movw	r24, r16
    656c:	7c de       	rcall	.-776    	; 0x6266 <malloc>
    656e:	ec 01       	movw	r28, r24
    6570:	00 97       	sbiw	r24, 0x00	; 0
    6572:	21 f0       	breq	.+8      	; 0x657c <calloc+0x28>
    6574:	a8 01       	movw	r20, r16
    6576:	60 e0       	ldi	r22, 0x00	; 0
    6578:	70 e0       	ldi	r23, 0x00	; 0
    657a:	06 d0       	rcall	.+12     	; 0x6588 <memset>
    657c:	ce 01       	movw	r24, r28
    657e:	df 91       	pop	r29
    6580:	cf 91       	pop	r28
    6582:	1f 91       	pop	r17
    6584:	0f 91       	pop	r16
    6586:	08 95       	ret

00006588 <memset>:
    6588:	dc 01       	movw	r26, r24
    658a:	01 c0       	rjmp	.+2      	; 0x658e <memset+0x6>
    658c:	6d 93       	st	X+, r22
    658e:	41 50       	subi	r20, 0x01	; 1
    6590:	50 40       	sbci	r21, 0x00	; 0
    6592:	e0 f7       	brcc	.-8      	; 0x658c <memset+0x4>
    6594:	08 95       	ret

00006596 <eeprom_read_block>:
    6596:	dc 01       	movw	r26, r24
    6598:	cb 01       	movw	r24, r22

0000659a <eeprom_read_blraw>:
    659a:	fc 01       	movw	r30, r24
    659c:	e1 99       	sbic	0x1c, 1	; 28
    659e:	fe cf       	rjmp	.-4      	; 0x659c <eeprom_read_blraw+0x2>
    65a0:	06 c0       	rjmp	.+12     	; 0x65ae <eeprom_read_blraw+0x14>
    65a2:	ff bb       	out	0x1f, r31	; 31
    65a4:	ee bb       	out	0x1e, r30	; 30
    65a6:	e0 9a       	sbi	0x1c, 0	; 28
    65a8:	31 96       	adiw	r30, 0x01	; 1
    65aa:	0d b2       	in	r0, 0x1d	; 29
    65ac:	0d 92       	st	X+, r0
    65ae:	41 50       	subi	r20, 0x01	; 1
    65b0:	50 40       	sbci	r21, 0x00	; 0
    65b2:	b8 f7       	brcc	.-18     	; 0x65a2 <eeprom_read_blraw+0x8>
    65b4:	08 95       	ret

000065b6 <eeprom_read_byte>:
    65b6:	e1 99       	sbic	0x1c, 1	; 28
    65b8:	fe cf       	rjmp	.-4      	; 0x65b6 <eeprom_read_byte>
    65ba:	9f bb       	out	0x1f, r25	; 31
    65bc:	8e bb       	out	0x1e, r24	; 30
    65be:	e0 9a       	sbi	0x1c, 0	; 28
    65c0:	99 27       	eor	r25, r25
    65c2:	8d b3       	in	r24, 0x1d	; 29
    65c4:	08 95       	ret

000065c6 <eeprom_read_word>:
    65c6:	a8 e1       	ldi	r26, 0x18	; 24
    65c8:	b0 e0       	ldi	r27, 0x00	; 0
    65ca:	42 e0       	ldi	r20, 0x02	; 2
    65cc:	50 e0       	ldi	r21, 0x00	; 0
    65ce:	e5 cf       	rjmp	.-54     	; 0x659a <eeprom_read_blraw>

000065d0 <eeprom_update_byte>:
    65d0:	26 2f       	mov	r18, r22

000065d2 <eeprom_update_r18>:
    65d2:	e1 99       	sbic	0x1c, 1	; 28
    65d4:	fe cf       	rjmp	.-4      	; 0x65d2 <eeprom_update_r18>
    65d6:	9f bb       	out	0x1f, r25	; 31
    65d8:	8e bb       	out	0x1e, r24	; 30
    65da:	e0 9a       	sbi	0x1c, 0	; 28
    65dc:	01 97       	sbiw	r24, 0x01	; 1
    65de:	0d b2       	in	r0, 0x1d	; 29
    65e0:	02 16       	cp	r0, r18
    65e2:	31 f0       	breq	.+12     	; 0x65f0 <eeprom_update_r18+0x1e>
    65e4:	2d bb       	out	0x1d, r18	; 29
    65e6:	0f b6       	in	r0, 0x3f	; 63
    65e8:	f8 94       	cli
    65ea:	e2 9a       	sbi	0x1c, 2	; 28
    65ec:	e1 9a       	sbi	0x1c, 1	; 28
    65ee:	0f be       	out	0x3f, r0	; 63
    65f0:	08 95       	ret

000065f2 <eeprom_update_word>:
    65f2:	01 96       	adiw	r24, 0x01	; 1
    65f4:	27 2f       	mov	r18, r23
    65f6:	ed df       	rcall	.-38     	; 0x65d2 <eeprom_update_r18>
    65f8:	eb cf       	rjmp	.-42     	; 0x65d0 <eeprom_update_byte>

000065fa <eeprom_write_block>:
    65fa:	dc 01       	movw	r26, r24
    65fc:	cb 01       	movw	r24, r22
    65fe:	02 c0       	rjmp	.+4      	; 0x6604 <eeprom_write_block+0xa>
    6600:	2d 91       	ld	r18, X+
    6602:	05 d0       	rcall	.+10     	; 0x660e <eeprom_write_r18>
    6604:	41 50       	subi	r20, 0x01	; 1
    6606:	50 40       	sbci	r21, 0x00	; 0
    6608:	d8 f7       	brcc	.-10     	; 0x6600 <eeprom_write_block+0x6>
    660a:	08 95       	ret

0000660c <eeprom_write_byte>:
    660c:	26 2f       	mov	r18, r22

0000660e <eeprom_write_r18>:
    660e:	e1 99       	sbic	0x1c, 1	; 28
    6610:	fe cf       	rjmp	.-4      	; 0x660e <eeprom_write_r18>
    6612:	9f bb       	out	0x1f, r25	; 31
    6614:	8e bb       	out	0x1e, r24	; 30
    6616:	2d bb       	out	0x1d, r18	; 29
    6618:	0f b6       	in	r0, 0x3f	; 63
    661a:	f8 94       	cli
    661c:	e2 9a       	sbi	0x1c, 2	; 28
    661e:	e1 9a       	sbi	0x1c, 1	; 28
    6620:	0f be       	out	0x3f, r0	; 63
    6622:	01 96       	adiw	r24, 0x01	; 1
    6624:	08 95       	ret

00006626 <eeprom_write_word>:
    6626:	f2 df       	rcall	.-28     	; 0x660c <eeprom_write_byte>
    6628:	27 2f       	mov	r18, r23
    662a:	f1 cf       	rjmp	.-30     	; 0x660e <eeprom_write_r18>

0000662c <_exit>:
    662c:	f8 94       	cli

0000662e <__stop_program>:
    662e:	ff cf       	rjmp	.-2      	; 0x662e <__stop_program>
