
izmLen-mega128.elf:     file format elf32-avr

Sections:
Idx Name          Size      VMA       LMA       File off  Algn
  0 .data         0000003a  00800100  00005f94  00006048  2**0
                  CONTENTS, ALLOC, LOAD, DATA
  1 .text         00005f94  00000000  00000000  000000b4  2**1
                  CONTENTS, ALLOC, LOAD, READONLY, CODE
  2 .bss          000000d1  0080013a  0080013a  00006082  2**0
                  ALLOC
  3 .eeprom       00000cfc  00810000  00810000  00006082  2**0
                  CONTENTS, ALLOC, LOAD, DATA
  4 .comment      00000030  00000000  00000000  00006d7e  2**0
                  CONTENTS, READONLY
  5 .note.gnu.avr.deviceinfo 0000003c  00000000  00000000  00006db0  2**2
                  CONTENTS, READONLY
  6 .debug_aranges 00000828  00000000  00000000  00006df0  2**3
                  CONTENTS, READONLY, DEBUGGING
  7 .debug_info   0000cac3  00000000  00000000  00007618  2**0
                  CONTENTS, READONLY, DEBUGGING
  8 .debug_abbrev 00002a23  00000000  00000000  000140db  2**0
                  CONTENTS, READONLY, DEBUGGING
  9 .debug_line   00005dc9  00000000  00000000  00016afe  2**0
                  CONTENTS, READONLY, DEBUGGING
 10 .debug_frame  00001464  00000000  00000000  0001c8c8  2**2
                  CONTENTS, READONLY, DEBUGGING
 11 .debug_str    00002efb  00000000  00000000  0001dd2c  2**0
                  CONTENTS, READONLY, DEBUGGING
 12 .debug_loc    00005969  00000000  00000000  00020c27  2**0
                  CONTENTS, READONLY, DEBUGGING
 13 .debug_ranges 00000730  00000000  00000000  00026590  2**0
                  CONTENTS, READONLY, DEBUGGING

Disassembly of section .text:

00000000 <__vectors>:
       0:	4b c2       	rjmp	.+1174   	; 0x498 <__ctors_end>
       2:	00 00       	nop
       4:	73 c2       	rjmp	.+1254   	; 0x4ec <__bad_interrupt>
       6:	00 00       	nop
       8:	71 c2       	rjmp	.+1250   	; 0x4ec <__bad_interrupt>
       a:	00 00       	nop
       c:	6f c2       	rjmp	.+1246   	; 0x4ec <__bad_interrupt>
       e:	00 00       	nop
      10:	6d c2       	rjmp	.+1242   	; 0x4ec <__bad_interrupt>
      12:	00 00       	nop
      14:	6b c2       	rjmp	.+1238   	; 0x4ec <__bad_interrupt>
      16:	00 00       	nop
      18:	69 c2       	rjmp	.+1234   	; 0x4ec <__bad_interrupt>
      1a:	00 00       	nop
      1c:	67 c2       	rjmp	.+1230   	; 0x4ec <__bad_interrupt>
      1e:	00 00       	nop
      20:	65 c2       	rjmp	.+1226   	; 0x4ec <__bad_interrupt>
      22:	00 00       	nop
      24:	0c 94 73 2c 	jmp	0x58e6	; 0x58e6 <__vector_9>
      28:	61 c2       	rjmp	.+1218   	; 0x4ec <__bad_interrupt>
      2a:	00 00       	nop
      2c:	5f c2       	rjmp	.+1214   	; 0x4ec <__bad_interrupt>
      2e:	00 00       	nop
      30:	5d c2       	rjmp	.+1210   	; 0x4ec <__bad_interrupt>
      32:	00 00       	nop
      34:	5b c2       	rjmp	.+1206   	; 0x4ec <__bad_interrupt>
      36:	00 00       	nop
      38:	59 c2       	rjmp	.+1202   	; 0x4ec <__bad_interrupt>
      3a:	00 00       	nop
      3c:	0c 94 85 2a 	jmp	0x550a	; 0x550a <__vector_15>
      40:	55 c2       	rjmp	.+1194   	; 0x4ec <__bad_interrupt>
      42:	00 00       	nop
      44:	53 c2       	rjmp	.+1190   	; 0x4ec <__bad_interrupt>
      46:	00 00       	nop
      48:	0c 94 51 2b 	jmp	0x56a2	; 0x56a2 <__vector_18>
      4c:	0c 94 7d 2b 	jmp	0x56fa	; 0x56fa <__vector_19>
      50:	4d c2       	rjmp	.+1178   	; 0x4ec <__bad_interrupt>
      52:	00 00       	nop
      54:	4b c2       	rjmp	.+1174   	; 0x4ec <__bad_interrupt>
      56:	00 00       	nop
      58:	49 c2       	rjmp	.+1170   	; 0x4ec <__bad_interrupt>
      5a:	00 00       	nop
      5c:	47 c2       	rjmp	.+1166   	; 0x4ec <__bad_interrupt>
      5e:	00 00       	nop
      60:	45 c2       	rjmp	.+1162   	; 0x4ec <__bad_interrupt>
      62:	00 00       	nop
      64:	43 c2       	rjmp	.+1158   	; 0x4ec <__bad_interrupt>
      66:	00 00       	nop
      68:	41 c2       	rjmp	.+1154   	; 0x4ec <__bad_interrupt>
      6a:	00 00       	nop
      6c:	3f c2       	rjmp	.+1150   	; 0x4ec <__bad_interrupt>
      6e:	00 00       	nop
      70:	3d c2       	rjmp	.+1146   	; 0x4ec <__bad_interrupt>
      72:	00 00       	nop
      74:	3b c2       	rjmp	.+1142   	; 0x4ec <__bad_interrupt>
      76:	00 00       	nop
      78:	39 c2       	rjmp	.+1138   	; 0x4ec <__bad_interrupt>
      7a:	00 00       	nop
      7c:	37 c2       	rjmp	.+1134   	; 0x4ec <__bad_interrupt>
      7e:	00 00       	nop
      80:	35 c2       	rjmp	.+1130   	; 0x4ec <__bad_interrupt>
      82:	00 00       	nop
      84:	33 c2       	rjmp	.+1126   	; 0x4ec <__bad_interrupt>
      86:	00 00       	nop
      88:	31 c2       	rjmp	.+1122   	; 0x4ec <__bad_interrupt>
	...

0000008c <__trampolines_end>:
      8c:	75 6e       	ori	r23, 0xE5	; 229
      8e:	6b 6e       	ori	r22, 0xEB	; 235
      90:	6f 77       	andi	r22, 0x7F	; 127
      92:	20 65       	ori	r18, 0x50	; 80
      94:	72 72       	andi	r23, 0x22	; 34
      96:	6f 72       	andi	r22, 0x2F	; 47
      98:	0d 0a       	sbc	r0, r29
      9a:	0d 0a       	sbc	r0, r29
	...

0000009d <_ZZN7ns_line8sendTeleEjajjE3__c_10>:
      9d:	0d 0a 00                                            ...

000000a0 <_ZZN7ns_line8sendTeleEjajjE3__c_9>:
      a0:	0d 0a 00                                            ...

000000a3 <_ZZN7ns_line8sendTeleEjajjE3__c_8>:
      a3:	20 65 78 4c 3d 00                                    exL=.

000000a9 <_ZZN7ns_line8sendTeleEjajjE3__c_7>:
      a9:	20 42 61 73 65 3d 00                                 Base=.

000000b0 <_ZZN7ns_line8sendTeleEjajjE3__c_6>:
      b0:	20 53 70 65 65 64 43 6f 72 3d 00                     SpeedCor=.

000000bb <_ZZN7ns_line8sendTeleEjajjE3__c_5>:
      bb:	20 65 78 4e 3d 00                                    exN=.

000000c1 <_ZZN7ns_line8sendTeleEjajjE3__c_4>:
      c1:	0d 0a 73 71 42 61 73 65 3d 00                       ..sqBase=.

000000cb <_ZZN7ns_line8sendTeleEjajjE3__c_3>:
      cb:	0d 0a 00                                            ...

000000ce <_ZZN7ns_line8sendTeleEjajjE3__c_2>:
      ce:	0d 0a 00                                            ...

000000d1 <_ZZN7ns_line8sendTeleEjajjE3__c_1>:
      d1:	0d 0a 00                                            ...

000000d4 <_ZZN7ns_line8sendTeleEjajjE3__c_0>:
      d4:	3b 20 4c 3d 00                                      ; L=.

000000d9 <_ZZN7ns_line8sendTeleEjajjE3__c>:
      d9:	b9 20 74 75 62 65 3a 20 00                          . tube: .

000000e2 <_ZZ4mainE3__c>:
      e2:	52 65 73 74 61 72 74 20 73 79 73 74 65 6d 0d 0a     Restart system..
      f2:	0d 0a 00                                            ...

000000f5 <_ZZN7ns_menu8CorSpeedEhE3__c_0>:
      f5:	f1 ea ee f0 ee f1 f2 e8 3a 00                       ........:.

000000ff <_ZZN7ns_menu8CorSpeedEhE3__c>:
      ff:	ca ee f0 f0 e5 ea f6 e8 ff 00                       ..........

00000109 <_ZZN7ns_menu10TmIntegralEhE3__c_0>:
     109:	f1 e8 e3 ed e0 eb ee e2 3a 20 00                    ........: .

00000114 <_ZZN7ns_menu10TmIntegralEhE3__c>:
     114:	c2 f0 e5 ec ff 20 e8 ed f2 e5 f0 2e 00              ..... .......

00000121 <_ZZN7ns_menu15ProtectIntervalEhE3__c_0>:
     121:	e8 ed f2 e5 f0 e2 e0 eb 3a 00                       ........:.

0000012b <_ZZN7ns_menu15ProtectIntervalEhE3__c>:
     12b:	c7 e0 f9 e8 f2 ed fb e9 00                          .........

00000134 <_ZZN7ns_menu7ZeroArcEhE3__c_0>:
     134:	ed e0 e6 ec e8 f2 e5 20 22 2b 22 00                 ....... "+".

00000140 <_ZZN7ns_menu7ZeroArcEhE3__c>:
     140:	e4 eb ff 20 f3 e4 e0 eb e5 ed e8 ff 00              ... .........

0000014d <_ZZN7ns_menu10CorCurTubeEhE3__c_2>:
     14d:	3c 00                                               <.

0000014f <_ZZN7ns_menu10CorCurTubeEhE3__c_1>:
     14f:	3a 00                                               :.

00000151 <_ZZN7ns_menu10CorCurTubeEhE3__c_0>:
     151:	53 51 00                                            SQ.

00000154 <_ZZN7ns_menu10CorCurTubeEhE3__c>:
     154:	45 64 69 74 20 6c 65 6e 00                          Edit len.

0000015d <_ZZN7ns_menu8view_arcEhE3__c_0>:
     15d:	c0 f0 f5 e8 e2 20 ef f3 f1 f2 00                    ..... .....

00000168 <_ZZN7ns_menu8view_arcEhE3__c>:
     168:	56 69 65 77 00                                      View.

0000016d <_ZZN7ns_menu10view_arcShEvE3__c>:
     16d:	2d 32 30 00                                         -20.

00000171 <_ZZN7ns_menu8Set_TimeEhE3__c>:
     171:	cc e5 ed fe 2d e2 f0 e5 ec ff 00                    ....-......

0000017c <_ZZN7ns_menu12Set_TimeViewEvE3__c>:
     17c:	32 30 00                                            20.

0000017f <_ZZN7ns_menu10Set_PassVVEhE3__c>:
     17f:	f3 f1 f2 e0 ed ee e2 eb e5 ed 00                    ...........

0000018a <_ZZN7ns_menu8Set_PassEhE3__c>:
     18a:	cd ee e2 fb e9 20 ef e0 f0 ee eb fc 20 3a 00        ..... ...... :.

00000199 <_ZZN7ns_menu13Edit_SensorVVEhE3__c>:
     199:	2a 2a d1 ee f5 f0 e0 ed e5 ed ee 2a 2a 00           **.........**.

000001a7 <_ZZN7ns_menu11Edit_SensorEhE3__c_0>:
     1a7:	53 51 31 3c 2d 3e 53 51 00                          SQ1<->SQ.

000001b0 <_ZZN7ns_menu11Edit_SensorEhE3__c>:
     1b0:	d3 f1 f2 e0 ed ee e2 ea e0 20 e1 e0 e7 fb 00        ......... .....

000001bf <_ZZN7ns_menu16Menu_CheckPassVvEhE3__c_0>:
     1bf:	ef e0 f0 ee eb ff 20 20 20 20 20 20 20 20 20 20     ......          
	...

000001d0 <_ZZN7ns_menu16Menu_CheckPassVvEhE3__c>:
     1d0:	ce f8 e8 e1 ea e0 20 e2 e2 ee e4 e0 20 20 20 20     ...... .....    
	...

000001e1 <_ZZN7ns_menu14Menu_CheckPassEhE3__c>:
     1e1:	c2 e2 e5 e4 e8 f2 e5 20 ef e0 f0 ee eb fc 3a 00     ....... ......:.

000001f1 <_ZZN7ns_menu9Main_ViewEhE3__c>:
     1f1:	45 52 52 4f 52 20 20 20 00                          ERROR   .

000001fa <_ZZN7ns_menu11Main_ViewExEhE3__c>:
     1fa:	3a 20 00                                            : .

000001fd <_ZZN7ns_menu9Main_vArcEvE3__c>:
     1fd:	53 3a 00                                            S:.

00000200 <_ZN7ns_menuL19menuSelectTab_str12E>:
     200:	3e d3 f1 f2 2e 20 ef e0 f0 ee eb fc 20 20 20 20     >.... ......    
	...

00000211 <_ZN7ns_menuL19menuSelectTab_str11E>:
     211:	3e d3 f1 f2 2e 20 e2 f0 e5 ec e5 ed e8 20 20 20     >.... .......   
	...

00000222 <_ZN7ns_menuL19menuSelectTab_str10E>:
     222:	3e c8 ed f2 e5 e3 f0 2e f1 e8 e3 ed e0 eb e0 20     >.............. 
	...

00000233 <_ZN7ns_menuL18menuSelectTab_str9E>:
     233:	3e c7 e0 f9 2e 20 e8 ed f2 e5 f0 e2 e0 eb 20 20     >.... ........  
	...

00000244 <_ZN7ns_menuL18menuSelectTab_str8E>:
     244:	3e c4 e8 f1 f2 2e 20 53 51 31 3c 2d 3e 53 51 35     >..... SQ1<->SQ5
	...

00000255 <_ZN7ns_menuL18menuSelectTab_str7E>:
     255:	3e c4 e8 f1 f2 2e 20 53 51 31 3c 2d 3e 53 51 34     >..... SQ1<->SQ4
	...

00000266 <_ZN7ns_menuL18menuSelectTab_str6E>:
     266:	3e c4 e8 f1 f2 2e 20 53 51 31 3c 2d 3e 53 51 33     >..... SQ1<->SQ3
	...

00000277 <_ZN7ns_menuL18menuSelectTab_str5E>:
     277:	3e c4 e8 f1 f2 2e 20 53 51 31 3c 2d 3e 53 51 32     >..... SQ1<->SQ2
	...

00000288 <_ZN7ns_menuL18menuSelectTab_str4E>:
     288:	3e d1 e1 f0 ee f1 20 e0 f0 f5 e8 e2 e0 20 20 20     >..... ......   
	...

00000299 <_ZN7ns_menuL18menuSelectTab_str3E>:
     299:	3e ea ee f0 f0 2e 20 f1 ea ee f0 ee f1 f2 e8 20     >..... ........ 
	...

000002aa <_ZN7ns_menuL18menuSelectTab_str2E>:
     2aa:	3e ea ee f0 f0 2e 20 e4 eb e8 ed fb 20 20 20 20     >..... .....    
	...

000002bb <_ZN7ns_menuL18menuSelectTab_str1E>:
     2bb:	3e cf f0 ee f1 ec 2e 20 e0 f0 f5 e8 e2 20 20 20     >...... .....   
	...

000002cc <_ZN7ns_menuL6ffPassE>:
     2cc:	02 02 03 06 00                                      .....

000002d1 <_ZN7ns_menu8MassFnMnE>:
     2d1:	5f 18 5d 14 25 13 25 13 25 13 26 13 ee 17 25 13     _.].%.%.%.&...%.
     2e1:	6b 13 60 14 ab 13 d0 13 85 14 25 13 f5 13 02 15     k.`.......%.....
     2f1:	25 13 10 15 33 19 50 19 1e 15 25 13 04 19 83 15     %...3.P...%.....
     301:	25 13 91 15 db 19 ff 19 a4 15 25 13 79 19 db 15     %.........%.y...
     311:	25 13 25 13 25 13 25 13 25 13 25 13 25 13 e9 15     %.%.%.%.%.%.%...
     321:	25 13 ec 15 9c 1a c1 1a e6 1a 25 13 64 1a 07 16     %.........%.d...
     331:	25 13 25 13 25 13 25 13 25 13 25 13 25 13 15 16     %.%.%.%.%.%.%...
     341:	25 13 ef 1c 44 1c 75 1c b5 1c 25 13 09 1c 23 16     %...D.u...%...#.
     351:	25 13 31 16 5c 1e 6f 1e 27 1e 25 13 bf 1d 25 13     %.1.\.o.'.%...%.
     361:	25 13 39 16 89 1f b2 1f 4c 16 25 13 b8 1e 8a 16     %.9.....L.%.....
     371:	25 13 7c 16 7c 16 6c 16 7c 16 25 13 28 14 8a 16     %.|.|.l.|.%.(...
     381:	25 13 98 16 66 20 42 20 a6 16 25 13 ff 1f 8a 16     %...f B ..%.....
     391:	25 13 cc 16 ee 20 11 21 df 16 25 13 ad 20 8a 16     %.... .!..%.. ..
     3a1:	25 13 47 17 82 21 a0 21 2e 17 25 13 59 21 8a 16     %.G..!.!..%.Y!..
     3b1:	25 13 25 13 25 13 25 13 25 13 25 13 25 13 25 13     %.%.%.%.%.%.%.%.
     3c1:	25 13 25 13 25 13 25 13 25 13 25 13 25 13 25 13     %.%.%.%.%.%.%.%.

000003d1 <_ZN8ns_clock10nDayMountxE>:
     3d1:	00 1f 1d 1f 1e 1f 1e 1f 1f 1e 1f 1e 1f 00 1f 1c     ................
     3e1:	1f 1e 1f 1e 1f 1f 1e 1f 1e 1f 00 1f 1c 1f 1e 1f     ................
     3f1:	1e 1f 1f 1e 1f 1e 1f 00 1f 1c 1f 1e 1f 1e 1f 1f     ................
     401:	1e 1f 1e 1f                                         ....

00000405 <_ZN6ns_lcdL11symbol_workE>:
     405:	06 09 09 06 00 00 00 00 06 0f 0f 06 00 00 00 00     ................

00000415 <_ZN6ns_lcdL10tabDecoderE>:
     415:	c8 c9 ca cb d7 d8 d9 da db dc ed fd ee ef f0 f1     ................
     425:	f2 f4 cc cd ce cf d0 d1 d2 d3 d4 d5 d6 dd de df     ................
     435:	e7 e8 e9 ea eb ec f3 f5 a2 f6 f7 f8 f9 fa fb fc     ................
     445:	fe ff 20 20 20 20 20 20 b5 20 20 20 20 20 20 20     ..      .       
     455:	41 a0 42 a1 e0 45 a3 a4 a5 a6 4b a7 4d 48 4f a8     A.B..E....K.MHO.
     465:	50 43 54 a9 aa 58 e1 ab ac e2 ad ae 62 af b0 b1     PCT..X......b...
     475:	61 b2 b3 b4 e3 65 b6 b7 b8 b9 ba bb bc bd 6f be     a....e........o.
     485:	70 63 bf 79 e4 78 e5 c0 c1 e6 c2 c3 c4 c5 c6 c7     pc.y.x..........
	...

00000496 <__ctors_start>:
     496:	cd 29       	or	r28, r13

00000498 <__ctors_end>:
     498:	11 24       	eor	r1, r1
     49a:	1f be       	out	0x3f, r1	; 63
     49c:	cf ef       	ldi	r28, 0xFF	; 255
     49e:	d0 e1       	ldi	r29, 0x10	; 16
     4a0:	de bf       	out	0x3e, r29	; 62
     4a2:	cd bf       	out	0x3d, r28	; 61

000004a4 <__do_copy_data>:
     4a4:	11 e0       	ldi	r17, 0x01	; 1
     4a6:	a0 e0       	ldi	r26, 0x00	; 0
     4a8:	b1 e0       	ldi	r27, 0x01	; 1
     4aa:	e4 e9       	ldi	r30, 0x94	; 148
     4ac:	ff e5       	ldi	r31, 0x5F	; 95
     4ae:	00 e0       	ldi	r16, 0x00	; 0
     4b0:	0b bf       	out	0x3b, r16	; 59
     4b2:	02 c0       	rjmp	.+4      	; 0x4b8 <__do_copy_data+0x14>
     4b4:	07 90       	elpm	r0, Z+
     4b6:	0d 92       	st	X+, r0
     4b8:	aa 33       	cpi	r26, 0x3A	; 58
     4ba:	b1 07       	cpc	r27, r17
     4bc:	d9 f7       	brne	.-10     	; 0x4b4 <__do_copy_data+0x10>

000004be <__do_clear_bss>:
     4be:	22 e0       	ldi	r18, 0x02	; 2
     4c0:	aa e3       	ldi	r26, 0x3A	; 58
     4c2:	b1 e0       	ldi	r27, 0x01	; 1
     4c4:	01 c0       	rjmp	.+2      	; 0x4c8 <.do_clear_bss_start>

000004c6 <.do_clear_bss_loop>:
     4c6:	1d 92       	st	X+, r1

000004c8 <.do_clear_bss_start>:
     4c8:	ab 30       	cpi	r26, 0x0B	; 11
     4ca:	b2 07       	cpc	r27, r18
     4cc:	e1 f7       	brne	.-8      	; 0x4c6 <.do_clear_bss_loop>

000004ce <__do_global_ctors>:
     4ce:	12 e0       	ldi	r17, 0x02	; 2
     4d0:	cc e4       	ldi	r28, 0x4C	; 76
     4d2:	d2 e0       	ldi	r29, 0x02	; 2
     4d4:	04 c0       	rjmp	.+8      	; 0x4de <__do_global_ctors+0x10>
     4d6:	21 97       	sbiw	r28, 0x01	; 1
     4d8:	fe 01       	movw	r30, r28
     4da:	0e 94 dc 2d 	call	0x5bb8	; 0x5bb8 <__tablejump2__>
     4de:	cb 34       	cpi	r28, 0x4B	; 75
     4e0:	d1 07       	cpc	r29, r17
     4e2:	c9 f7       	brne	.-14     	; 0x4d6 <__do_global_ctors+0x8>
     4e4:	0e 94 b2 12 	call	0x2564	; 0x2564 <main>
     4e8:	0c 94 c8 2f 	jmp	0x5f90	; 0x5f90 <_exit>

000004ec <__bad_interrupt>:
     4ec:	89 cd       	rjmp	.-1262   	; 0x0 <__vectors>

000004ee <_ZN10ns_archive4InitEv>:
	TYPE_IDX len;
	uint16_t acp0;
	uint8_t acp0_new = 0;
	
	void Init()
	{
     4ee:	cf 93       	push	r28
     4f0:	df 93       	push	r29
		idx = IDX_ee_read(&idxEE);
     4f2:	82 e0       	ldi	r24, 0x02	; 2
     4f4:	90 e0       	ldi	r25, 0x00	; 0
     4f6:	0e 94 95 2f 	call	0x5f2a	; 0x5f2a <eeprom_read_word>
     4fa:	ec 01       	movw	r28, r24
     4fc:	90 93 40 01 	sts	0x0140, r25	; 0x800140 <_ZN10ns_archive3idxE+0x1>
     500:	80 93 3f 01 	sts	0x013F, r24	; 0x80013f <_ZN10ns_archive3idxE>
		len = IDX_ee_read(&lenEE);
     504:	80 e0       	ldi	r24, 0x00	; 0
     506:	90 e0       	ldi	r25, 0x00	; 0
     508:	0e 94 95 2f 	call	0x5f2a	; 0x5f2a <eeprom_read_word>
     50c:	90 93 3e 01 	sts	0x013E, r25	; 0x80013e <_ZN10ns_archive3lenE+0x1>
     510:	80 93 3d 01 	sts	0x013D, r24	; 0x80013d <_ZN10ns_archive3lenE>
		if ( (idx >= ARCHIVE_LEN) || (len >= ARCHIVE_LEN) )
     514:	cc 32       	cpi	r28, 0x2C	; 44
     516:	d1 40       	sbci	r29, 0x01	; 1
     518:	18 f4       	brcc	.+6      	; 0x520 <_ZN10ns_archive4InitEv+0x32>
     51a:	8c 32       	cpi	r24, 0x2C	; 44
     51c:	91 40       	sbci	r25, 0x01	; 1
     51e:	40 f0       	brcs	.+16     	; 0x530 <_ZN10ns_archive4InitEv+0x42>
		{
			idx = 0;
     520:	10 92 40 01 	sts	0x0140, r1	; 0x800140 <_ZN10ns_archive3idxE+0x1>
     524:	10 92 3f 01 	sts	0x013F, r1	; 0x80013f <_ZN10ns_archive3idxE>
			len = 0;
     528:	10 92 3e 01 	sts	0x013E, r1	; 0x80013e <_ZN10ns_archive3lenE+0x1>
     52c:	10 92 3d 01 	sts	0x013D, r1	; 0x80013d <_ZN10ns_archive3lenE>
		}
		IDX_ee_update(&idxEE, idx);
     530:	60 91 3f 01 	lds	r22, 0x013F	; 0x80013f <_ZN10ns_archive3idxE>
     534:	70 91 40 01 	lds	r23, 0x0140	; 0x800140 <_ZN10ns_archive3idxE+0x1>
     538:	82 e0       	ldi	r24, 0x02	; 2
     53a:	90 e0       	ldi	r25, 0x00	; 0
     53c:	0e 94 ab 2f 	call	0x5f56	; 0x5f56 <eeprom_update_word>
		IDX_ee_update(&lenEE, len);
     540:	60 91 3d 01 	lds	r22, 0x013D	; 0x80013d <_ZN10ns_archive3lenE>
     544:	70 91 3e 01 	lds	r23, 0x013E	; 0x80013e <_ZN10ns_archive3lenE+0x1>
     548:	80 e0       	ldi	r24, 0x00	; 0
     54a:	90 e0       	ldi	r25, 0x00	; 0
     54c:	0e 94 ab 2f 	call	0x5f56	; 0x5f56 <eeprom_update_word>
		
	}
     550:	df 91       	pop	r29
     552:	cf 91       	pop	r28
     554:	08 95       	ret

00000556 <_ZN10ns_archive4PushEhhhhhjja>:
	
	void Push(uint8_t year, uint8_t mounth, uint8_t date, uint8_t hour, uint8_t minute, uint16_t nTube, uint16_t lenTube, int8_t sqBas)
	{
     556:	af 92       	push	r10
     558:	cf 92       	push	r12
     55a:	df 92       	push	r13
     55c:	ef 92       	push	r14
     55e:	ff 92       	push	r15
     560:	0f 93       	push	r16
     562:	1f 93       	push	r17
     564:	cf 93       	push	r28
     566:	df 93       	push	r29
     568:	cd b7       	in	r28, 0x3d	; 61
     56a:	de b7       	in	r29, 0x3e	; 62
     56c:	2b 97       	sbiw	r28, 0x0b	; 11
     56e:	0f b6       	in	r0, 0x3f	; 63
     570:	f8 94       	cli
     572:	de bf       	out	0x3e, r29	; 62
     574:	0f be       	out	0x3f, r0	; 63
     576:	cd bf       	out	0x3d, r28	; 61
		archiveStruct m;
		m.year = year;
     578:	89 83       	std	Y+1, r24	; 0x01
		m.mounth = mounth;
     57a:	6a 83       	std	Y+2, r22	; 0x02
		m.date = date;
     57c:	4b 83       	std	Y+3, r20	; 0x03
		m.hour = hour;
     57e:	2c 83       	std	Y+4, r18	; 0x04
		m.minute = minute;
     580:	0d 83       	std	Y+5, r16	; 0x05
		m.nTube = nTube;
     582:	ff 82       	std	Y+7, r15	; 0x07
     584:	ee 82       	std	Y+6, r14	; 0x06
		m.len = lenTube;
     586:	d9 86       	std	Y+9, r13	; 0x09
     588:	c8 86       	std	Y+8, r12	; 0x08
		m.ok = 1;
     58a:	81 e0       	ldi	r24, 0x01	; 1
     58c:	8a 87       	std	Y+10, r24	; 0x0a
		m.sqBas = sqBas;
     58e:	ab 86       	std	Y+11, r10	; 0x0b
		//
		eeprom_write_block(&m, &archive[idx], sizeof(archiveStruct));
     590:	80 91 3f 01 	lds	r24, 0x013F	; 0x80013f <_ZN10ns_archive3idxE>
     594:	90 91 40 01 	lds	r25, 0x0140	; 0x800140 <_ZN10ns_archive3idxE+0x1>
     598:	2b e0       	ldi	r18, 0x0B	; 11
     59a:	28 9f       	mul	r18, r24
     59c:	b0 01       	movw	r22, r0
     59e:	29 9f       	mul	r18, r25
     5a0:	70 0d       	add	r23, r0
     5a2:	11 24       	eor	r1, r1
     5a4:	6c 5f       	subi	r22, 0xFC	; 252
     5a6:	7f 4f       	sbci	r23, 0xFF	; 255
     5a8:	4b e0       	ldi	r20, 0x0B	; 11
     5aa:	50 e0       	ldi	r21, 0x00	; 0
     5ac:	ce 01       	movw	r24, r28
     5ae:	01 96       	adiw	r24, 0x01	; 1
     5b0:	0e 94 af 2f 	call	0x5f5e	; 0x5f5e <eeprom_write_block>
		//
		idx++;
     5b4:	80 91 3f 01 	lds	r24, 0x013F	; 0x80013f <_ZN10ns_archive3idxE>
     5b8:	90 91 40 01 	lds	r25, 0x0140	; 0x800140 <_ZN10ns_archive3idxE+0x1>
     5bc:	01 96       	adiw	r24, 0x01	; 1
		if (idx >= ARCHIVE_LEN) idx = 0;
     5be:	8c 32       	cpi	r24, 0x2C	; 44
     5c0:	21 e0       	ldi	r18, 0x01	; 1
     5c2:	92 07       	cpc	r25, r18
     5c4:	28 f4       	brcc	.+10     	; 0x5d0 <_ZN10ns_archive4PushEhhhhhjja+0x7a>
		m.ok = 1;
		m.sqBas = sqBas;
		//
		eeprom_write_block(&m, &archive[idx], sizeof(archiveStruct));
		//
		idx++;
     5c6:	90 93 40 01 	sts	0x0140, r25	; 0x800140 <_ZN10ns_archive3idxE+0x1>
     5ca:	80 93 3f 01 	sts	0x013F, r24	; 0x80013f <_ZN10ns_archive3idxE>
     5ce:	04 c0       	rjmp	.+8      	; 0x5d8 <_ZN10ns_archive4PushEhhhhhjja+0x82>
		if (idx >= ARCHIVE_LEN) idx = 0;
     5d0:	10 92 40 01 	sts	0x0140, r1	; 0x800140 <_ZN10ns_archive3idxE+0x1>
     5d4:	10 92 3f 01 	sts	0x013F, r1	; 0x80013f <_ZN10ns_archive3idxE>
		if (len < ARCHIVE_LEN) len++;
     5d8:	80 91 3d 01 	lds	r24, 0x013D	; 0x80013d <_ZN10ns_archive3lenE>
     5dc:	90 91 3e 01 	lds	r25, 0x013E	; 0x80013e <_ZN10ns_archive3lenE+0x1>
     5e0:	8c 32       	cpi	r24, 0x2C	; 44
     5e2:	21 e0       	ldi	r18, 0x01	; 1
     5e4:	92 07       	cpc	r25, r18
     5e6:	28 f4       	brcc	.+10     	; 0x5f2 <_ZN10ns_archive4PushEhhhhhjja+0x9c>
     5e8:	01 96       	adiw	r24, 0x01	; 1
     5ea:	90 93 3e 01 	sts	0x013E, r25	; 0x80013e <_ZN10ns_archive3lenE+0x1>
     5ee:	80 93 3d 01 	sts	0x013D, r24	; 0x80013d <_ZN10ns_archive3lenE>
				CRITICAL_SECTION
     5f2:	1f b7       	in	r17, 0x3f	; 63
    return 1;
}

static __inline__ uint8_t __iCliRetVal(void)
{
    cli();
     5f4:	f8 94       	cli
				{
					IDX_ee_update(&idxEE, idx);
     5f6:	60 91 3f 01 	lds	r22, 0x013F	; 0x80013f <_ZN10ns_archive3idxE>
     5fa:	70 91 40 01 	lds	r23, 0x0140	; 0x800140 <_ZN10ns_archive3idxE+0x1>
     5fe:	82 e0       	ldi	r24, 0x02	; 2
     600:	90 e0       	ldi	r25, 0x00	; 0
     602:	0e 94 ab 2f 	call	0x5f56	; 0x5f56 <eeprom_update_word>
					IDX_ee_update(&lenEE, len);
     606:	60 91 3d 01 	lds	r22, 0x013D	; 0x80013d <_ZN10ns_archive3lenE>
     60a:	70 91 3e 01 	lds	r23, 0x013E	; 0x80013e <_ZN10ns_archive3lenE+0x1>
     60e:	80 e0       	ldi	r24, 0x00	; 0
     610:	90 e0       	ldi	r25, 0x00	; 0
     612:	0e 94 ab 2f 	call	0x5f56	; 0x5f56 <eeprom_update_word>
    (void)__s;
}

static __inline__ void __iRestore(const  uint8_t *__s)
{
    SREG = *__s;
     616:	1f bf       	out	0x3f, r17	; 63
					//__delay_ms(10000);
				}
	}
     618:	2b 96       	adiw	r28, 0x0b	; 11
     61a:	0f b6       	in	r0, 0x3f	; 63
     61c:	f8 94       	cli
     61e:	de bf       	out	0x3e, r29	; 62
     620:	0f be       	out	0x3f, r0	; 63
     622:	cd bf       	out	0x3d, r28	; 61
     624:	df 91       	pop	r29
     626:	cf 91       	pop	r28
     628:	1f 91       	pop	r17
     62a:	0f 91       	pop	r16
     62c:	ff 90       	pop	r15
     62e:	ef 90       	pop	r14
     630:	df 90       	pop	r13
     632:	cf 90       	pop	r12
     634:	af 90       	pop	r10
     636:	08 95       	ret

00000638 <_ZN10ns_archive4SummEPm>:
	
	TYPE_IDX Summ(uint32_t* lenSumma)
	{
     638:	5f 92       	push	r5
     63a:	6f 92       	push	r6
     63c:	7f 92       	push	r7
     63e:	8f 92       	push	r8
     640:	9f 92       	push	r9
     642:	af 92       	push	r10
     644:	bf 92       	push	r11
     646:	cf 92       	push	r12
     648:	df 92       	push	r13
     64a:	ef 92       	push	r14
     64c:	ff 92       	push	r15
     64e:	0f 93       	push	r16
     650:	1f 93       	push	r17
     652:	cf 93       	push	r28
     654:	df 93       	push	r29
     656:	6c 01       	movw	r12, r24
		uint32_t summa = 0;
		TYPE_IDX n = 0;
		TYPE_IDX id = idx;
     658:	c0 91 3f 01 	lds	r28, 0x013F	; 0x80013f <_ZN10ns_archive3idxE>
     65c:	d0 91 40 01 	lds	r29, 0x0140	; 0x800140 <_ZN10ns_archive3idxE+0x1>
		TYPE_IDX ln = len;
     660:	00 91 3d 01 	lds	r16, 0x013D	; 0x80013d <_ZN10ns_archive3lenE>
     664:	10 91 3e 01 	lds	r17, 0x013E	; 0x80013e <_ZN10ns_archive3lenE+0x1>
		while (ln > 0)
     668:	01 15       	cp	r16, r1
     66a:	11 05       	cpc	r17, r1
     66c:	a9 f1       	breq	.+106    	; 0x6d8 <_ZN10ns_archive4SummEPm+0xa0>
     66e:	e1 2c       	mov	r14, r1
     670:	f1 2c       	mov	r15, r1
     672:	81 2c       	mov	r8, r1
     674:	91 2c       	mov	r9, r1
     676:	54 01       	movw	r10, r8
		{
			if (id == 0) id = ARCHIVE_LEN;
     678:	0f 2e       	mov	r0, r31
     67a:	fc e2       	ldi	r31, 0x2C	; 44
     67c:	5f 2e       	mov	r5, r31
     67e:	f0 2d       	mov	r31, r0
     680:	66 24       	eor	r6, r6
     682:	63 94       	inc	r6
			id--;
			ln--;
			if ( eeprom_read_byte(&archive[id].ok) == 1 )
     684:	0f 2e       	mov	r0, r31
     686:	fb e0       	ldi	r31, 0x0B	; 11
     688:	7f 2e       	mov	r7, r31
     68a:	f0 2d       	mov	r31, r0
		TYPE_IDX n = 0;
		TYPE_IDX id = idx;
		TYPE_IDX ln = len;
		while (ln > 0)
		{
			if (id == 0) id = ARCHIVE_LEN;
     68c:	20 97       	sbiw	r28, 0x00	; 0
     68e:	11 f4       	brne	.+4      	; 0x694 <_ZN10ns_archive4SummEPm+0x5c>
     690:	c5 2d       	mov	r28, r5
     692:	d6 2d       	mov	r29, r6
			id--;
     694:	21 97       	sbiw	r28, 0x01	; 1
			ln--;
     696:	01 50       	subi	r16, 0x01	; 1
     698:	11 09       	sbc	r17, r1
			if ( eeprom_read_byte(&archive[id].ok) == 1 )
     69a:	7c 9e       	mul	r7, r28
     69c:	c0 01       	movw	r24, r0
     69e:	7d 9e       	mul	r7, r29
     6a0:	90 0d       	add	r25, r0
     6a2:	11 24       	eor	r1, r1
     6a4:	83 5f       	subi	r24, 0xF3	; 243
     6a6:	9f 4f       	sbci	r25, 0xFF	; 255
     6a8:	0e 94 8d 2f 	call	0x5f1a	; 0x5f1a <eeprom_read_byte>
     6ac:	81 30       	cpi	r24, 0x01	; 1
     6ae:	81 f4       	brne	.+32     	; 0x6d0 <_ZN10ns_archive4SummEPm+0x98>
			{
				summa += eeprom_read_word(&archive[id].len);
     6b0:	7c 9e       	mul	r7, r28
     6b2:	c0 01       	movw	r24, r0
     6b4:	7d 9e       	mul	r7, r29
     6b6:	90 0d       	add	r25, r0
     6b8:	11 24       	eor	r1, r1
     6ba:	85 5f       	subi	r24, 0xF5	; 245
     6bc:	9f 4f       	sbci	r25, 0xFF	; 255
     6be:	0e 94 95 2f 	call	0x5f2a	; 0x5f2a <eeprom_read_word>
     6c2:	88 0e       	add	r8, r24
     6c4:	99 1e       	adc	r9, r25
     6c6:	a1 1c       	adc	r10, r1
     6c8:	b1 1c       	adc	r11, r1
				n++;
     6ca:	ff ef       	ldi	r31, 0xFF	; 255
     6cc:	ef 1a       	sub	r14, r31
     6ce:	ff 0a       	sbc	r15, r31
	{
		uint32_t summa = 0;
		TYPE_IDX n = 0;
		TYPE_IDX id = idx;
		TYPE_IDX ln = len;
		while (ln > 0)
     6d0:	01 15       	cp	r16, r1
     6d2:	11 05       	cpc	r17, r1
     6d4:	d9 f6       	brne	.-74     	; 0x68c <_ZN10ns_archive4SummEPm+0x54>
     6d6:	05 c0       	rjmp	.+10     	; 0x6e2 <_ZN10ns_archive4SummEPm+0xaa>
	}
	
	TYPE_IDX Summ(uint32_t* lenSumma)
	{
		uint32_t summa = 0;
		TYPE_IDX n = 0;
     6d8:	e1 2c       	mov	r14, r1
     6da:	f1 2c       	mov	r15, r1
				}
	}
	
	TYPE_IDX Summ(uint32_t* lenSumma)
	{
		uint32_t summa = 0;
     6dc:	81 2c       	mov	r8, r1
     6de:	91 2c       	mov	r9, r1
     6e0:	54 01       	movw	r10, r8
			{
				summa += eeprom_read_word(&archive[id].len);
				n++;
			}
		}
		CRITICAL_SECTION
     6e2:	8f b7       	in	r24, 0x3f	; 63
    return 1;
}

static __inline__ uint8_t __iCliRetVal(void)
{
    cli();
     6e4:	f8 94       	cli
		{
			*lenSumma = summa;
     6e6:	f6 01       	movw	r30, r12
     6e8:	80 82       	st	Z, r8
     6ea:	91 82       	std	Z+1, r9	; 0x01
     6ec:	a2 82       	std	Z+2, r10	; 0x02
     6ee:	b3 82       	std	Z+3, r11	; 0x03
    (void)__s;
}

static __inline__ void __iRestore(const  uint8_t *__s)
{
    SREG = *__s;
     6f0:	8f bf       	out	0x3f, r24	; 63
		}
		return n;
	}
     6f2:	c7 01       	movw	r24, r14
     6f4:	df 91       	pop	r29
     6f6:	cf 91       	pop	r28
     6f8:	1f 91       	pop	r17
     6fa:	0f 91       	pop	r16
     6fc:	ff 90       	pop	r15
     6fe:	ef 90       	pop	r14
     700:	df 90       	pop	r13
     702:	cf 90       	pop	r12
     704:	bf 90       	pop	r11
     706:	af 90       	pop	r10
     708:	9f 90       	pop	r9
     70a:	8f 90       	pop	r8
     70c:	7f 90       	pop	r7
     70e:	6f 90       	pop	r6
     710:	5f 90       	pop	r5
     712:	08 95       	ret

00000714 <_ZN10ns_archive8SummZeroEv>:
	
	void SummZero()
	{
		idx = 0;
     714:	10 92 40 01 	sts	0x0140, r1	; 0x800140 <_ZN10ns_archive3idxE+0x1>
     718:	10 92 3f 01 	sts	0x013F, r1	; 0x80013f <_ZN10ns_archive3idxE>
		len = 0;
     71c:	10 92 3e 01 	sts	0x013E, r1	; 0x80013e <_ZN10ns_archive3lenE+0x1>
     720:	10 92 3d 01 	sts	0x013D, r1	; 0x80013d <_ZN10ns_archive3lenE>
		IDX_ee_update(&idxEE, idx);
     724:	60 e0       	ldi	r22, 0x00	; 0
     726:	70 e0       	ldi	r23, 0x00	; 0
     728:	82 e0       	ldi	r24, 0x02	; 2
     72a:	90 e0       	ldi	r25, 0x00	; 0
     72c:	0e 94 ab 2f 	call	0x5f56	; 0x5f56 <eeprom_update_word>
		IDX_ee_update(&lenEE, len);
     730:	60 91 3d 01 	lds	r22, 0x013D	; 0x80013d <_ZN10ns_archive3lenE>
     734:	70 91 3e 01 	lds	r23, 0x013E	; 0x80013e <_ZN10ns_archive3lenE+0x1>
     738:	80 e0       	ldi	r24, 0x00	; 0
     73a:	90 e0       	ldi	r25, 0x00	; 0
     73c:	0c 94 ab 2f 	jmp	0x5f56	; 0x5f56 <eeprom_update_word>
     740:	08 95       	ret

00000742 <_ZN10ns_archive9InterruptEv>:
		unsigned low:8;
		unsigned high:2;
	} structACP;
	
	void Interrupt()
	{
     742:	cf 93       	push	r28
     744:	df 93       	push	r29
     746:	00 d0       	rcall	.+0      	; 0x748 <_ZN10ns_archive9InterruptEv+0x6>
     748:	cd b7       	in	r28, 0x3d	; 61
     74a:	de b7       	in	r29, 0x3e	; 62
		uint16_t acp = 0;
     74c:	1a 82       	std	Y+2, r1	; 0x02
     74e:	19 82       	std	Y+1, r1	; 0x01
		CRITICAL_SECTION
     750:	8f b7       	in	r24, 0x3f	; 63
    return 1;
}

static __inline__ uint8_t __iCliRetVal(void)
{
    cli();
     752:	f8 94       	cli
		(*((volatile structACP*)(&acp))).low = ADCL;
     754:	94 b1       	in	r25, 0x04	; 4
     756:	99 83       	std	Y+1, r25	; 0x01
    (void)__s;
}

static __inline__ void __iRestore(const  uint8_t *__s)
{
    SREG = *__s;
     758:	8f bf       	out	0x3f, r24	; 63
		(*((volatile structACP*)(&acp))).high = ADCH;
     75a:	85 b1       	in	r24, 0x05	; 5
     75c:	98 2f       	mov	r25, r24
     75e:	93 70       	andi	r25, 0x03	; 3
     760:	8a 81       	ldd	r24, Y+2	; 0x02
     762:	8c 7f       	andi	r24, 0xFC	; 252
     764:	89 2b       	or	r24, r25
     766:	8a 83       	std	Y+2, r24	; 0x02
		acp0 = acp;
     768:	89 81       	ldd	r24, Y+1	; 0x01
     76a:	9a 81       	ldd	r25, Y+2	; 0x02
     76c:	90 93 3c 01 	sts	0x013C, r25	; 0x80013c <_ZN10ns_archive4acp0E+0x1>
     770:	80 93 3b 01 	sts	0x013B, r24	; 0x80013b <_ZN10ns_archive4acp0E>
		acp0_new = 1;
     774:	81 e0       	ldi	r24, 0x01	; 1
     776:	80 93 3a 01 	sts	0x013A, r24	; 0x80013a <__data_end>
		ADMUX = 0;
     77a:	17 b8       	out	0x07, r1	; 7
		ADCSR = 0xd7;
     77c:	87 ed       	ldi	r24, 0xD7	; 215
     77e:	86 b9       	out	0x06, r24	; 6
	}
     780:	0f 90       	pop	r0
     782:	0f 90       	pop	r0
     784:	df 91       	pop	r29
     786:	cf 91       	pop	r28
     788:	08 95       	ret

0000078a <_ZN10ns_archive4MainEv>:
	
	void Main()
	{
     78a:	cf 93       	push	r28
		uint16_t acp;
		uint8_t newd = 0;
		CRITICAL_SECTION
     78c:	9f b7       	in	r25, 0x3f	; 63
    return 1;
}

static __inline__ uint8_t __iCliRetVal(void)
{
    cli();
     78e:	f8 94       	cli
		{
			if (acp0_new)
     790:	80 91 3a 01 	lds	r24, 0x013A	; 0x80013a <__data_end>
     794:	88 23       	and	r24, r24
     796:	41 f0       	breq	.+16     	; 0x7a8 <_ZN10ns_archive4MainEv+0x1e>
			{
				acp = acp0;
     798:	20 91 3b 01 	lds	r18, 0x013B	; 0x80013b <_ZN10ns_archive4acp0E>
     79c:	30 91 3c 01 	lds	r19, 0x013C	; 0x80013c <_ZN10ns_archive4acp0E+0x1>
				acp0_new = 0;
     7a0:	10 92 3a 01 	sts	0x013A, r1	; 0x80013a <__data_end>
				newd = 1;
     7a4:	81 e0       	ldi	r24, 0x01	; 1
     7a6:	01 c0       	rjmp	.+2      	; 0x7aa <_ZN10ns_archive4MainEv+0x20>
	}
	
	void Main()
	{
		uint16_t acp;
		uint8_t newd = 0;
     7a8:	80 e0       	ldi	r24, 0x00	; 0
    (void)__s;
}

static __inline__ void __iRestore(const  uint8_t *__s)
{
    SREG = *__s;
     7aa:	9f bf       	out	0x3f, r25	; 63
				acp = acp0;
				acp0_new = 0;
				newd = 1;
			}
		}
		if (newd)
     7ac:	88 23       	and	r24, r24
     7ae:	b1 f0       	breq	.+44     	; 0x7dc <_ZN10ns_archive4MainEv+0x52>
		{
			newd = 0;
			if ( acp < ( ((uint16_t)20) * 1023 / 50) )
     7b0:	29 39       	cpi	r18, 0x99	; 153
     7b2:	31 40       	sbci	r19, 0x01	; 1
     7b4:	98 f4       	brcc	.+38     	; 0x7dc <_ZN10ns_archive4MainEv+0x52>
			{
				CRITICAL_SECTION
     7b6:	cf b7       	in	r28, 0x3f	; 63
    return 1;
}

static __inline__ uint8_t __iCliRetVal(void)
{
    cli();
     7b8:	f8 94       	cli
				{
					IDX_ee_update(&idxEE, idx);
     7ba:	60 91 3f 01 	lds	r22, 0x013F	; 0x80013f <_ZN10ns_archive3idxE>
     7be:	70 91 40 01 	lds	r23, 0x0140	; 0x800140 <_ZN10ns_archive3idxE+0x1>
     7c2:	82 e0       	ldi	r24, 0x02	; 2
     7c4:	90 e0       	ldi	r25, 0x00	; 0
     7c6:	0e 94 ab 2f 	call	0x5f56	; 0x5f56 <eeprom_update_word>
					IDX_ee_update(&lenEE, len);
     7ca:	60 91 3d 01 	lds	r22, 0x013D	; 0x80013d <_ZN10ns_archive3lenE>
     7ce:	70 91 3e 01 	lds	r23, 0x013E	; 0x80013e <_ZN10ns_archive3lenE+0x1>
     7d2:	80 e0       	ldi	r24, 0x00	; 0
     7d4:	90 e0       	ldi	r25, 0x00	; 0
     7d6:	0e 94 ab 2f 	call	0x5f56	; 0x5f56 <eeprom_update_word>
    (void)__s;
}

static __inline__ void __iRestore(const  uint8_t *__s)
{
    SREG = *__s;
     7da:	cf bf       	out	0x3f, r28	; 63
				}
					//scr::DigitZ(scr::SetPosition(8, 1), 8, acp);
					//while(true) {__delay_ms(1);}
			}
		}
	}
     7dc:	cf 91       	pop	r28
     7de:	08 95       	ret

000007e0 <_ZN7ns_line4InitEv>:

//	uint16_t distance[5] = {0, 750, 8500, 10000, 11500};
	int16_t distance[5] = {0, 500, 2000, 3000, 4000};
	uint16_t protect[5] = {0, 0, 0, 0, 0};
	void Init()
	{
     7e0:	0f 93       	push	r16
     7e2:	1f 93       	push	r17
     7e4:	cf 93       	push	r28
     7e6:	df 93       	push	r29
     7e8:	cd b7       	in	r28, 0x3d	; 61
     7ea:	de b7       	in	r29, 0x3e	; 62
     7ec:	2b 97       	sbiw	r28, 0x0b	; 11
     7ee:	0f b6       	in	r0, 0x3f	; 63
     7f0:	f8 94       	cli
     7f2:	de bf       	out	0x3e, r29	; 62
     7f4:	0f be       	out	0x3f, r0	; 63
     7f6:	cd bf       	out	0x3d, r28	; 61
		//uint16_t k = (uint16_t)(((uint32_t)10) * ((uint32_t)FtTimerMain) / ((uint32_t)1000));
		uint16_t k = eeprom_read_word(&ns_vg::eeInteral);
     7f8:	8e ee       	ldi	r24, 0xEE	; 238
     7fa:	9c e0       	ldi	r25, 0x0C	; 12
     7fc:	0e 94 95 2f 	call	0x5f2a	; 0x5f2a <eeprom_read_word>
     800:	8c 01       	movw	r16, r24
		sensors[0] = new tc_pin<uint16_t>(&DDRC, &PORTC, &PINC, 0, k);
     802:	8e e0       	ldi	r24, 0x0E	; 14
     804:	90 e0       	ldi	r25, 0x00	; 0
     806:	0e 94 bb 2a 	call	0x5576	; 0x5576 <_Znwj>
     80a:	fc 01       	movw	r30, r24
	//tc_pin() {}
	tc_pin(volatile unsigned char* ddr, volatile unsigned char* port, volatile unsigned char* pin, unsigned char bit, T porog)
//	{ Init(ddr, port, pin, bit, porog); }
//	void Init(volatile unsigned char* ddr, volatile unsigned char* port, volatile unsigned char* pin, unsigned char bit, T porog)
	{
		this->ddr = ddr;
     80c:	84 e3       	ldi	r24, 0x34	; 52
     80e:	90 e0       	ldi	r25, 0x00	; 0
     810:	94 83       	std	Z+4, r25	; 0x04
     812:	83 83       	std	Z+3, r24	; 0x03
		this->port = port;
     814:	85 e3       	ldi	r24, 0x35	; 53
     816:	90 e0       	ldi	r25, 0x00	; 0
     818:	96 83       	std	Z+6, r25	; 0x06
     81a:	85 83       	std	Z+5, r24	; 0x05
		this->pin = pin;
     81c:	83 e3       	ldi	r24, 0x33	; 51
     81e:	90 e0       	ldi	r25, 0x00	; 0
     820:	90 87       	std	Z+8, r25	; 0x08
     822:	87 83       	std	Z+7, r24	; 0x07
		this->mask = (1<<(bit & 0x07));
     824:	81 e0       	ldi	r24, 0x01	; 1
     826:	90 e0       	ldi	r25, 0x00	; 0
     828:	92 87       	std	Z+10, r25	; 0x0a
     82a:	81 87       	std	Z+9, r24	; 0x09
		this->porog = porog;
     82c:	12 83       	std	Z+2, r17	; 0x02
     82e:	01 83       	std	Z+1, r16	; 0x01
		*this->ddr &= ~mask;
     830:	a0 98       	cbi	0x14, 0	; 20
		*this->port |= 1<<mask;
     832:	a5 81       	ldd	r26, Z+5	; 0x05
     834:	b6 81       	ldd	r27, Z+6	; 0x06
     836:	2c 91       	ld	r18, X
     838:	01 84       	ldd	r0, Z+9	; 0x09
     83a:	02 c0       	rjmp	.+4      	; 0x840 <_ZN7ns_line4InitEv+0x60>
     83c:	88 0f       	add	r24, r24
     83e:	99 1f       	adc	r25, r25
     840:	0a 94       	dec	r0
     842:	e2 f7       	brpl	.-8      	; 0x83c <_ZN7ns_line4InitEv+0x5c>
     844:	82 2b       	or	r24, r18
     846:	8c 93       	st	X, r24
		__delay_ms(1);
     848:	8f e9       	ldi	r24, 0x9F	; 159
     84a:	9f e0       	ldi	r25, 0x0F	; 15
     84c:	01 97       	sbiw	r24, 0x01	; 1
     84e:	f1 f7       	brne	.-4      	; 0x84c <_ZN7ns_line4InitEv+0x6c>
     850:	00 c0       	rjmp	.+0      	; 0x852 <_ZN7ns_line4InitEv+0x72>
     852:	00 00       	nop
		tr = fl = (*this->pin & mask)?1:0;
     854:	a7 81       	ldd	r26, Z+7	; 0x07
     856:	b0 85       	ldd	r27, Z+8	; 0x08
     858:	2c 91       	ld	r18, X
     85a:	30 e0       	ldi	r19, 0x00	; 0
     85c:	81 85       	ldd	r24, Z+9	; 0x09
     85e:	92 85       	ldd	r25, Z+10	; 0x0a
     860:	28 23       	and	r18, r24
     862:	39 23       	and	r19, r25
     864:	81 e0       	ldi	r24, 0x01	; 1
     866:	23 2b       	or	r18, r19
     868:	09 f4       	brne	.+2      	; 0x86c <_ZN7ns_line4InitEv+0x8c>
     86a:	80 e0       	ldi	r24, 0x00	; 0
     86c:	85 87       	std	Z+13, r24	; 0x0d
     86e:	80 83       	st	Z, r24
		if (fl)
     870:	88 23       	and	r24, r24
     872:	29 f0       	breq	.+10     	; 0x87e <_ZN7ns_line4InitEv+0x9e>
			count = this->porog;
     874:	81 81       	ldd	r24, Z+1	; 0x01
     876:	92 81       	ldd	r25, Z+2	; 0x02
     878:	94 87       	std	Z+12, r25	; 0x0c
     87a:	83 87       	std	Z+11, r24	; 0x0b
     87c:	02 c0       	rjmp	.+4      	; 0x882 <_ZN7ns_line4InitEv+0xa2>
		else
			count = (T)0;
     87e:	14 86       	std	Z+12, r1	; 0x0c
     880:	13 86       	std	Z+11, r1	; 0x0b
     882:	f0 93 80 01 	sts	0x0180, r31	; 0x800180 <_ZN7ns_line7sensorsE+0x1>
     886:	e0 93 7f 01 	sts	0x017F, r30	; 0x80017f <_ZN7ns_line7sensorsE>
		sensors[1] = new tc_pin<uint16_t>(&DDRC, &PORTC, &PINC, 1, k);
     88a:	8e e0       	ldi	r24, 0x0E	; 14
     88c:	90 e0       	ldi	r25, 0x00	; 0
     88e:	0e 94 bb 2a 	call	0x5576	; 0x5576 <_Znwj>
     892:	fc 01       	movw	r30, r24
	//tc_pin() {}
	tc_pin(volatile unsigned char* ddr, volatile unsigned char* port, volatile unsigned char* pin, unsigned char bit, T porog)
//	{ Init(ddr, port, pin, bit, porog); }
//	void Init(volatile unsigned char* ddr, volatile unsigned char* port, volatile unsigned char* pin, unsigned char bit, T porog)
	{
		this->ddr = ddr;
     894:	84 e3       	ldi	r24, 0x34	; 52
     896:	90 e0       	ldi	r25, 0x00	; 0
     898:	94 83       	std	Z+4, r25	; 0x04
     89a:	83 83       	std	Z+3, r24	; 0x03
		this->port = port;
     89c:	85 e3       	ldi	r24, 0x35	; 53
     89e:	90 e0       	ldi	r25, 0x00	; 0
     8a0:	96 83       	std	Z+6, r25	; 0x06
     8a2:	85 83       	std	Z+5, r24	; 0x05
		this->pin = pin;
     8a4:	83 e3       	ldi	r24, 0x33	; 51
     8a6:	90 e0       	ldi	r25, 0x00	; 0
     8a8:	90 87       	std	Z+8, r25	; 0x08
     8aa:	87 83       	std	Z+7, r24	; 0x07
		this->mask = (1<<(bit & 0x07));
     8ac:	82 e0       	ldi	r24, 0x02	; 2
     8ae:	90 e0       	ldi	r25, 0x00	; 0
     8b0:	92 87       	std	Z+10, r25	; 0x0a
     8b2:	81 87       	std	Z+9, r24	; 0x09
		this->porog = porog;
     8b4:	12 83       	std	Z+2, r17	; 0x02
     8b6:	01 83       	std	Z+1, r16	; 0x01
		*this->ddr &= ~mask;
     8b8:	a1 98       	cbi	0x14, 1	; 20
		*this->port |= 1<<mask;
     8ba:	a5 81       	ldd	r26, Z+5	; 0x05
     8bc:	b6 81       	ldd	r27, Z+6	; 0x06
     8be:	2c 91       	ld	r18, X
     8c0:	81 e0       	ldi	r24, 0x01	; 1
     8c2:	90 e0       	ldi	r25, 0x00	; 0
     8c4:	01 84       	ldd	r0, Z+9	; 0x09
     8c6:	02 c0       	rjmp	.+4      	; 0x8cc <_ZN7ns_line4InitEv+0xec>
     8c8:	88 0f       	add	r24, r24
     8ca:	99 1f       	adc	r25, r25
     8cc:	0a 94       	dec	r0
     8ce:	e2 f7       	brpl	.-8      	; 0x8c8 <_ZN7ns_line4InitEv+0xe8>
     8d0:	82 2b       	or	r24, r18
     8d2:	8c 93       	st	X, r24
		__delay_ms(1);
     8d4:	8f e9       	ldi	r24, 0x9F	; 159
     8d6:	9f e0       	ldi	r25, 0x0F	; 15
     8d8:	01 97       	sbiw	r24, 0x01	; 1
     8da:	f1 f7       	brne	.-4      	; 0x8d8 <_ZN7ns_line4InitEv+0xf8>
     8dc:	00 c0       	rjmp	.+0      	; 0x8de <_ZN7ns_line4InitEv+0xfe>
     8de:	00 00       	nop
		tr = fl = (*this->pin & mask)?1:0;
     8e0:	a7 81       	ldd	r26, Z+7	; 0x07
     8e2:	b0 85       	ldd	r27, Z+8	; 0x08
     8e4:	2c 91       	ld	r18, X
     8e6:	30 e0       	ldi	r19, 0x00	; 0
     8e8:	81 85       	ldd	r24, Z+9	; 0x09
     8ea:	92 85       	ldd	r25, Z+10	; 0x0a
     8ec:	28 23       	and	r18, r24
     8ee:	39 23       	and	r19, r25
     8f0:	81 e0       	ldi	r24, 0x01	; 1
     8f2:	23 2b       	or	r18, r19
     8f4:	09 f4       	brne	.+2      	; 0x8f8 <_ZN7ns_line4InitEv+0x118>
     8f6:	80 e0       	ldi	r24, 0x00	; 0
     8f8:	85 87       	std	Z+13, r24	; 0x0d
     8fa:	80 83       	st	Z, r24
		if (fl)
     8fc:	88 23       	and	r24, r24
     8fe:	29 f0       	breq	.+10     	; 0x90a <_ZN7ns_line4InitEv+0x12a>
			count = this->porog;
     900:	81 81       	ldd	r24, Z+1	; 0x01
     902:	92 81       	ldd	r25, Z+2	; 0x02
     904:	94 87       	std	Z+12, r25	; 0x0c
     906:	83 87       	std	Z+11, r24	; 0x0b
     908:	02 c0       	rjmp	.+4      	; 0x90e <_ZN7ns_line4InitEv+0x12e>
		else
			count = (T)0;
     90a:	14 86       	std	Z+12, r1	; 0x0c
     90c:	13 86       	std	Z+11, r1	; 0x0b
     90e:	f0 93 82 01 	sts	0x0182, r31	; 0x800182 <_ZN7ns_line7sensorsE+0x3>
     912:	e0 93 81 01 	sts	0x0181, r30	; 0x800181 <_ZN7ns_line7sensorsE+0x2>
		sensors[2] = new tc_pin<uint16_t>(&DDRC, &PORTC, &PINC, 2, k);
     916:	8e e0       	ldi	r24, 0x0E	; 14
     918:	90 e0       	ldi	r25, 0x00	; 0
     91a:	0e 94 bb 2a 	call	0x5576	; 0x5576 <_Znwj>
     91e:	fc 01       	movw	r30, r24
	//tc_pin() {}
	tc_pin(volatile unsigned char* ddr, volatile unsigned char* port, volatile unsigned char* pin, unsigned char bit, T porog)
//	{ Init(ddr, port, pin, bit, porog); }
//	void Init(volatile unsigned char* ddr, volatile unsigned char* port, volatile unsigned char* pin, unsigned char bit, T porog)
	{
		this->ddr = ddr;
     920:	84 e3       	ldi	r24, 0x34	; 52
     922:	90 e0       	ldi	r25, 0x00	; 0
     924:	94 83       	std	Z+4, r25	; 0x04
     926:	83 83       	std	Z+3, r24	; 0x03
		this->port = port;
     928:	85 e3       	ldi	r24, 0x35	; 53
     92a:	90 e0       	ldi	r25, 0x00	; 0
     92c:	96 83       	std	Z+6, r25	; 0x06
     92e:	85 83       	std	Z+5, r24	; 0x05
		this->pin = pin;
     930:	83 e3       	ldi	r24, 0x33	; 51
     932:	90 e0       	ldi	r25, 0x00	; 0
     934:	90 87       	std	Z+8, r25	; 0x08
     936:	87 83       	std	Z+7, r24	; 0x07
		this->mask = (1<<(bit & 0x07));
     938:	84 e0       	ldi	r24, 0x04	; 4
     93a:	90 e0       	ldi	r25, 0x00	; 0
     93c:	92 87       	std	Z+10, r25	; 0x0a
     93e:	81 87       	std	Z+9, r24	; 0x09
		this->porog = porog;
     940:	12 83       	std	Z+2, r17	; 0x02
     942:	01 83       	std	Z+1, r16	; 0x01
		*this->ddr &= ~mask;
     944:	a2 98       	cbi	0x14, 2	; 20
		*this->port |= 1<<mask;
     946:	a5 81       	ldd	r26, Z+5	; 0x05
     948:	b6 81       	ldd	r27, Z+6	; 0x06
     94a:	2c 91       	ld	r18, X
     94c:	81 e0       	ldi	r24, 0x01	; 1
     94e:	90 e0       	ldi	r25, 0x00	; 0
     950:	01 84       	ldd	r0, Z+9	; 0x09
     952:	02 c0       	rjmp	.+4      	; 0x958 <_ZN7ns_line4InitEv+0x178>
     954:	88 0f       	add	r24, r24
     956:	99 1f       	adc	r25, r25
     958:	0a 94       	dec	r0
     95a:	e2 f7       	brpl	.-8      	; 0x954 <_ZN7ns_line4InitEv+0x174>
     95c:	82 2b       	or	r24, r18
     95e:	8c 93       	st	X, r24
		__delay_ms(1);
     960:	8f e9       	ldi	r24, 0x9F	; 159
     962:	9f e0       	ldi	r25, 0x0F	; 15
     964:	01 97       	sbiw	r24, 0x01	; 1
     966:	f1 f7       	brne	.-4      	; 0x964 <_ZN7ns_line4InitEv+0x184>
     968:	00 c0       	rjmp	.+0      	; 0x96a <_ZN7ns_line4InitEv+0x18a>
     96a:	00 00       	nop
		tr = fl = (*this->pin & mask)?1:0;
     96c:	a7 81       	ldd	r26, Z+7	; 0x07
     96e:	b0 85       	ldd	r27, Z+8	; 0x08
     970:	2c 91       	ld	r18, X
     972:	30 e0       	ldi	r19, 0x00	; 0
     974:	81 85       	ldd	r24, Z+9	; 0x09
     976:	92 85       	ldd	r25, Z+10	; 0x0a
     978:	28 23       	and	r18, r24
     97a:	39 23       	and	r19, r25
     97c:	81 e0       	ldi	r24, 0x01	; 1
     97e:	23 2b       	or	r18, r19
     980:	09 f4       	brne	.+2      	; 0x984 <_ZN7ns_line4InitEv+0x1a4>
     982:	80 e0       	ldi	r24, 0x00	; 0
     984:	85 87       	std	Z+13, r24	; 0x0d
     986:	80 83       	st	Z, r24
		if (fl)
     988:	88 23       	and	r24, r24
     98a:	29 f0       	breq	.+10     	; 0x996 <_ZN7ns_line4InitEv+0x1b6>
			count = this->porog;
     98c:	81 81       	ldd	r24, Z+1	; 0x01
     98e:	92 81       	ldd	r25, Z+2	; 0x02
     990:	94 87       	std	Z+12, r25	; 0x0c
     992:	83 87       	std	Z+11, r24	; 0x0b
     994:	02 c0       	rjmp	.+4      	; 0x99a <_ZN7ns_line4InitEv+0x1ba>
		else
			count = (T)0;
     996:	14 86       	std	Z+12, r1	; 0x0c
     998:	13 86       	std	Z+11, r1	; 0x0b
     99a:	f0 93 84 01 	sts	0x0184, r31	; 0x800184 <_ZN7ns_line7sensorsE+0x5>
     99e:	e0 93 83 01 	sts	0x0183, r30	; 0x800183 <_ZN7ns_line7sensorsE+0x4>
		sensors[3] = new tc_pin<uint16_t>(&DDRC, &PORTC, &PINC, 3, k);
     9a2:	8e e0       	ldi	r24, 0x0E	; 14
     9a4:	90 e0       	ldi	r25, 0x00	; 0
     9a6:	0e 94 bb 2a 	call	0x5576	; 0x5576 <_Znwj>
     9aa:	fc 01       	movw	r30, r24
	//tc_pin() {}
	tc_pin(volatile unsigned char* ddr, volatile unsigned char* port, volatile unsigned char* pin, unsigned char bit, T porog)
//	{ Init(ddr, port, pin, bit, porog); }
//	void Init(volatile unsigned char* ddr, volatile unsigned char* port, volatile unsigned char* pin, unsigned char bit, T porog)
	{
		this->ddr = ddr;
     9ac:	84 e3       	ldi	r24, 0x34	; 52
     9ae:	90 e0       	ldi	r25, 0x00	; 0
     9b0:	94 83       	std	Z+4, r25	; 0x04
     9b2:	83 83       	std	Z+3, r24	; 0x03
		this->port = port;
     9b4:	85 e3       	ldi	r24, 0x35	; 53
     9b6:	90 e0       	ldi	r25, 0x00	; 0
     9b8:	96 83       	std	Z+6, r25	; 0x06
     9ba:	85 83       	std	Z+5, r24	; 0x05
		this->pin = pin;
     9bc:	83 e3       	ldi	r24, 0x33	; 51
     9be:	90 e0       	ldi	r25, 0x00	; 0
     9c0:	90 87       	std	Z+8, r25	; 0x08
     9c2:	87 83       	std	Z+7, r24	; 0x07
		this->mask = (1<<(bit & 0x07));
     9c4:	88 e0       	ldi	r24, 0x08	; 8
     9c6:	90 e0       	ldi	r25, 0x00	; 0
     9c8:	92 87       	std	Z+10, r25	; 0x0a
     9ca:	81 87       	std	Z+9, r24	; 0x09
		this->porog = porog;
     9cc:	12 83       	std	Z+2, r17	; 0x02
     9ce:	01 83       	std	Z+1, r16	; 0x01
		*this->ddr &= ~mask;
     9d0:	a3 98       	cbi	0x14, 3	; 20
		*this->port |= 1<<mask;
     9d2:	a5 81       	ldd	r26, Z+5	; 0x05
     9d4:	b6 81       	ldd	r27, Z+6	; 0x06
     9d6:	2c 91       	ld	r18, X
     9d8:	81 e0       	ldi	r24, 0x01	; 1
     9da:	90 e0       	ldi	r25, 0x00	; 0
     9dc:	01 84       	ldd	r0, Z+9	; 0x09
     9de:	02 c0       	rjmp	.+4      	; 0x9e4 <_ZN7ns_line4InitEv+0x204>
     9e0:	88 0f       	add	r24, r24
     9e2:	99 1f       	adc	r25, r25
     9e4:	0a 94       	dec	r0
     9e6:	e2 f7       	brpl	.-8      	; 0x9e0 <_ZN7ns_line4InitEv+0x200>
     9e8:	82 2b       	or	r24, r18
     9ea:	8c 93       	st	X, r24
		__delay_ms(1);
     9ec:	8f e9       	ldi	r24, 0x9F	; 159
     9ee:	9f e0       	ldi	r25, 0x0F	; 15
     9f0:	01 97       	sbiw	r24, 0x01	; 1
     9f2:	f1 f7       	brne	.-4      	; 0x9f0 <_ZN7ns_line4InitEv+0x210>
     9f4:	00 c0       	rjmp	.+0      	; 0x9f6 <_ZN7ns_line4InitEv+0x216>
     9f6:	00 00       	nop
		tr = fl = (*this->pin & mask)?1:0;
     9f8:	a7 81       	ldd	r26, Z+7	; 0x07
     9fa:	b0 85       	ldd	r27, Z+8	; 0x08
     9fc:	2c 91       	ld	r18, X
     9fe:	30 e0       	ldi	r19, 0x00	; 0
     a00:	81 85       	ldd	r24, Z+9	; 0x09
     a02:	92 85       	ldd	r25, Z+10	; 0x0a
     a04:	28 23       	and	r18, r24
     a06:	39 23       	and	r19, r25
     a08:	81 e0       	ldi	r24, 0x01	; 1
     a0a:	23 2b       	or	r18, r19
     a0c:	09 f4       	brne	.+2      	; 0xa10 <_ZN7ns_line4InitEv+0x230>
     a0e:	80 e0       	ldi	r24, 0x00	; 0
     a10:	85 87       	std	Z+13, r24	; 0x0d
     a12:	80 83       	st	Z, r24
		if (fl)
     a14:	88 23       	and	r24, r24
     a16:	29 f0       	breq	.+10     	; 0xa22 <_ZN7ns_line4InitEv+0x242>
			count = this->porog;
     a18:	81 81       	ldd	r24, Z+1	; 0x01
     a1a:	92 81       	ldd	r25, Z+2	; 0x02
     a1c:	94 87       	std	Z+12, r25	; 0x0c
     a1e:	83 87       	std	Z+11, r24	; 0x0b
     a20:	02 c0       	rjmp	.+4      	; 0xa26 <_ZN7ns_line4InitEv+0x246>
		else
			count = (T)0;
     a22:	14 86       	std	Z+12, r1	; 0x0c
     a24:	13 86       	std	Z+11, r1	; 0x0b
     a26:	f0 93 86 01 	sts	0x0186, r31	; 0x800186 <_ZN7ns_line7sensorsE+0x7>
     a2a:	e0 93 85 01 	sts	0x0185, r30	; 0x800185 <_ZN7ns_line7sensorsE+0x6>
		sensors[4] = new tc_pin<uint16_t>(&DDRC, &PORTC, &PINC, 4, k);
     a2e:	8e e0       	ldi	r24, 0x0E	; 14
     a30:	90 e0       	ldi	r25, 0x00	; 0
     a32:	0e 94 bb 2a 	call	0x5576	; 0x5576 <_Znwj>
     a36:	fc 01       	movw	r30, r24
	//tc_pin() {}
	tc_pin(volatile unsigned char* ddr, volatile unsigned char* port, volatile unsigned char* pin, unsigned char bit, T porog)
//	{ Init(ddr, port, pin, bit, porog); }
//	void Init(volatile unsigned char* ddr, volatile unsigned char* port, volatile unsigned char* pin, unsigned char bit, T porog)
	{
		this->ddr = ddr;
     a38:	84 e3       	ldi	r24, 0x34	; 52
     a3a:	90 e0       	ldi	r25, 0x00	; 0
     a3c:	94 83       	std	Z+4, r25	; 0x04
     a3e:	83 83       	std	Z+3, r24	; 0x03
		this->port = port;
     a40:	85 e3       	ldi	r24, 0x35	; 53
     a42:	90 e0       	ldi	r25, 0x00	; 0
     a44:	96 83       	std	Z+6, r25	; 0x06
     a46:	85 83       	std	Z+5, r24	; 0x05
		this->pin = pin;
     a48:	83 e3       	ldi	r24, 0x33	; 51
     a4a:	90 e0       	ldi	r25, 0x00	; 0
     a4c:	90 87       	std	Z+8, r25	; 0x08
     a4e:	87 83       	std	Z+7, r24	; 0x07
		this->mask = (1<<(bit & 0x07));
     a50:	80 e1       	ldi	r24, 0x10	; 16
     a52:	90 e0       	ldi	r25, 0x00	; 0
     a54:	92 87       	std	Z+10, r25	; 0x0a
     a56:	81 87       	std	Z+9, r24	; 0x09
		this->porog = porog;
     a58:	12 83       	std	Z+2, r17	; 0x02
     a5a:	01 83       	std	Z+1, r16	; 0x01
		*this->ddr &= ~mask;
     a5c:	a4 98       	cbi	0x14, 4	; 20
		*this->port |= 1<<mask;
     a5e:	a5 81       	ldd	r26, Z+5	; 0x05
     a60:	b6 81       	ldd	r27, Z+6	; 0x06
     a62:	2c 91       	ld	r18, X
     a64:	81 e0       	ldi	r24, 0x01	; 1
     a66:	90 e0       	ldi	r25, 0x00	; 0
     a68:	01 84       	ldd	r0, Z+9	; 0x09
     a6a:	02 c0       	rjmp	.+4      	; 0xa70 <_ZN7ns_line4InitEv+0x290>
     a6c:	88 0f       	add	r24, r24
     a6e:	99 1f       	adc	r25, r25
     a70:	0a 94       	dec	r0
     a72:	e2 f7       	brpl	.-8      	; 0xa6c <_ZN7ns_line4InitEv+0x28c>
     a74:	82 2b       	or	r24, r18
     a76:	8c 93       	st	X, r24
		__delay_ms(1);
     a78:	8f e9       	ldi	r24, 0x9F	; 159
     a7a:	9f e0       	ldi	r25, 0x0F	; 15
     a7c:	01 97       	sbiw	r24, 0x01	; 1
     a7e:	f1 f7       	brne	.-4      	; 0xa7c <_ZN7ns_line4InitEv+0x29c>
     a80:	00 c0       	rjmp	.+0      	; 0xa82 <_ZN7ns_line4InitEv+0x2a2>
     a82:	00 00       	nop
		tr = fl = (*this->pin & mask)?1:0;
     a84:	a7 81       	ldd	r26, Z+7	; 0x07
     a86:	b0 85       	ldd	r27, Z+8	; 0x08
     a88:	2c 91       	ld	r18, X
     a8a:	30 e0       	ldi	r19, 0x00	; 0
     a8c:	81 85       	ldd	r24, Z+9	; 0x09
     a8e:	92 85       	ldd	r25, Z+10	; 0x0a
     a90:	28 23       	and	r18, r24
     a92:	39 23       	and	r19, r25
     a94:	81 e0       	ldi	r24, 0x01	; 1
     a96:	23 2b       	or	r18, r19
     a98:	09 f4       	brne	.+2      	; 0xa9c <_ZN7ns_line4InitEv+0x2bc>
     a9a:	80 e0       	ldi	r24, 0x00	; 0
     a9c:	85 87       	std	Z+13, r24	; 0x0d
     a9e:	80 83       	st	Z, r24
		if (fl)
     aa0:	88 23       	and	r24, r24
     aa2:	29 f0       	breq	.+10     	; 0xaae <_ZN7ns_line4InitEv+0x2ce>
			count = this->porog;
     aa4:	81 81       	ldd	r24, Z+1	; 0x01
     aa6:	92 81       	ldd	r25, Z+2	; 0x02
     aa8:	94 87       	std	Z+12, r25	; 0x0c
     aaa:	83 87       	std	Z+11, r24	; 0x0b
     aac:	02 c0       	rjmp	.+4      	; 0xab2 <_ZN7ns_line4InitEv+0x2d2>
		else
			count = (T)0;
     aae:	14 86       	std	Z+12, r1	; 0x0c
     ab0:	13 86       	std	Z+11, r1	; 0x0b
     ab2:	f0 93 88 01 	sts	0x0188, r31	; 0x800188 <_ZN7ns_line7sensorsE+0x9>
     ab6:	e0 93 87 01 	sts	0x0187, r30	; 0x800187 <_ZN7ns_line7sensorsE+0x8>
		mode = 1;
     aba:	81 e0       	ldi	r24, 0x01	; 1
     abc:	80 93 10 01 	sts	0x0110, r24	; 0x800110 <_ZN7ns_line4modeE>
		if ( (ns_archive::len == 0) && (eeprom_read_word(&ns_archive::lenEE) == 0) )
     ac0:	80 91 3d 01 	lds	r24, 0x013D	; 0x80013d <_ZN10ns_archive3lenE>
     ac4:	90 91 3e 01 	lds	r25, 0x013E	; 0x80013e <_ZN10ns_archive3lenE+0x1>
     ac8:	89 2b       	or	r24, r25
     aca:	59 f4       	brne	.+22     	; 0xae2 <_ZN7ns_line4InitEv+0x302>
     acc:	80 e0       	ldi	r24, 0x00	; 0
     ace:	90 e0       	ldi	r25, 0x00	; 0
     ad0:	0e 94 95 2f 	call	0x5f2a	; 0x5f2a <eeprom_read_word>
     ad4:	89 2b       	or	r24, r25
     ad6:	29 f4       	brne	.+10     	; 0xae2 <_ZN7ns_line4InitEv+0x302>
		{
			ns_vg::nTube = 0;
     ad8:	10 92 00 02 	sts	0x0200, r1	; 0x800200 <_ZN5ns_vg5nTubeE+0x1>
     adc:	10 92 ff 01 	sts	0x01FF, r1	; 0x8001ff <_ZN5ns_vg5nTubeE>
     ae0:	1e c0       	rjmp	.+60     	; 0xb1e <_ZN7ns_line4InitEv+0x33e>
		}
		else
		{
			int16_t corCurTube_idx = ns_archive::idx;
     ae2:	80 91 3f 01 	lds	r24, 0x013F	; 0x80013f <_ZN10ns_archive3idxE>
     ae6:	90 91 40 01 	lds	r25, 0x0140	; 0x800140 <_ZN10ns_archive3idxE+0x1>
			archiveStruct corCurTube_cell;
			if (corCurTube_idx == 0) corCurTube_idx = ARCHIVE_LEN - 1;
     aea:	00 97       	sbiw	r24, 0x00	; 0
     aec:	11 f0       	breq	.+4      	; 0xaf2 <_ZN7ns_line4InitEv+0x312>
			else corCurTube_idx--;
     aee:	01 97       	sbiw	r24, 0x01	; 1
     af0:	02 c0       	rjmp	.+4      	; 0xaf6 <_ZN7ns_line4InitEv+0x316>
		}
		else
		{
			int16_t corCurTube_idx = ns_archive::idx;
			archiveStruct corCurTube_cell;
			if (corCurTube_idx == 0) corCurTube_idx = ARCHIVE_LEN - 1;
     af2:	8b e2       	ldi	r24, 0x2B	; 43
     af4:	91 e0       	ldi	r25, 0x01	; 1
			else corCurTube_idx--;
			eeprom_read_block(&corCurTube_cell, &ns_archive::archive[corCurTube_idx], sizeof(archiveStruct));
     af6:	2b e0       	ldi	r18, 0x0B	; 11
     af8:	28 9f       	mul	r18, r24
     afa:	b0 01       	movw	r22, r0
     afc:	29 9f       	mul	r18, r25
     afe:	70 0d       	add	r23, r0
     b00:	11 24       	eor	r1, r1
     b02:	6c 5f       	subi	r22, 0xFC	; 252
     b04:	7f 4f       	sbci	r23, 0xFF	; 255
     b06:	4b e0       	ldi	r20, 0x0B	; 11
     b08:	50 e0       	ldi	r21, 0x00	; 0
     b0a:	ce 01       	movw	r24, r28
     b0c:	01 96       	adiw	r24, 0x01	; 1
     b0e:	0e 94 7d 2f 	call	0x5efa	; 0x5efa <eeprom_read_block>
			ns_vg::nTube = corCurTube_cell.nTube;
     b12:	8e 81       	ldd	r24, Y+6	; 0x06
     b14:	9f 81       	ldd	r25, Y+7	; 0x07
     b16:	90 93 00 02 	sts	0x0200, r25	; 0x800200 <_ZN5ns_vg5nTubeE+0x1>
     b1a:	80 93 ff 01 	sts	0x01FF, r24	; 0x8001ff <_ZN5ns_vg5nTubeE>
		}
	}
     b1e:	2b 96       	adiw	r28, 0x0b	; 11
     b20:	0f b6       	in	r0, 0x3f	; 63
     b22:	f8 94       	cli
     b24:	de bf       	out	0x3e, r29	; 62
     b26:	0f be       	out	0x3f, r0	; 63
     b28:	cd bf       	out	0x3d, r28	; 61
     b2a:	df 91       	pop	r29
     b2c:	cf 91       	pop	r28
     b2e:	1f 91       	pop	r17
     b30:	0f 91       	pop	r16
     b32:	08 95       	ret

00000b34 <_ZN7ns_line9InterruptEv>:
	void Interrupt()
	{
     b34:	2f 92       	push	r2
     b36:	3f 92       	push	r3
     b38:	5f 92       	push	r5
     b3a:	6f 92       	push	r6
     b3c:	7f 92       	push	r7
     b3e:	8f 92       	push	r8
     b40:	9f 92       	push	r9
     b42:	af 92       	push	r10
     b44:	bf 92       	push	r11
     b46:	cf 92       	push	r12
     b48:	df 92       	push	r13
     b4a:	ef 92       	push	r14
     b4c:	ff 92       	push	r15
     b4e:	0f 93       	push	r16
     b50:	1f 93       	push	r17
     b52:	cf 93       	push	r28
     b54:	df 93       	push	r29
     b56:	0f 2e       	mov	r0, r31
     b58:	ff e7       	ldi	r31, 0x7F	; 127
     b5a:	ef 2e       	mov	r14, r31
     b5c:	f1 e0       	ldi	r31, 0x01	; 1
     b5e:	ff 2e       	mov	r15, r31
     b60:	f0 2d       	mov	r31, r0
     b62:	01 e4       	ldi	r16, 0x41	; 65
     b64:	11 e0       	ldi	r17, 0x01	; 1
     b66:	0f 2e       	mov	r0, r31
     b68:	f9 e8       	ldi	r31, 0x89	; 137
     b6a:	2f 2e       	mov	r2, r31
     b6c:	f1 e0       	ldi	r31, 0x01	; 1
     b6e:	3f 2e       	mov	r3, r31
     b70:	f0 2d       	mov	r31, r0
     b72:	a8 01       	movw	r20, r16
     b74:	d7 01       	movw	r26, r14
		//   &   
		for (uint8_t i=0; i<5; i++)
		{
			sensors[i]->tr = 10;
     b76:	6a e0       	ldi	r22, 0x0A	; 10
	{
		if (*this->pin & mask)
		{
			if ( count <  porog) count++;
			if ((count >= porog) && !fl)
				tr = fl = 1;
     b78:	71 e0       	ldi	r23, 0x01	; 1
     b7a:	ed 91       	ld	r30, X+
     b7c:	fc 91       	ld	r31, X
     b7e:	11 97       	sbiw	r26, 0x01	; 1
     b80:	60 83       	st	Z, r22
			sensors[i]->Interrupt();
     b82:	ed 91       	ld	r30, X+
     b84:	fd 91       	ld	r31, X+
			count = (T)0;
	}
	//~tc_pin() {}
	void Interrupt()
	{
		if (*this->pin & mask)
     b86:	87 81       	ldd	r24, Z+7	; 0x07
     b88:	90 85       	ldd	r25, Z+8	; 0x08
     b8a:	ec 01       	movw	r28, r24
     b8c:	88 81       	ld	r24, Y
     b8e:	28 2f       	mov	r18, r24
     b90:	30 e0       	ldi	r19, 0x00	; 0
     b92:	81 85       	ldd	r24, Z+9	; 0x09
     b94:	92 85       	ldd	r25, Z+10	; 0x0a
     b96:	82 23       	and	r24, r18
     b98:	93 23       	and	r25, r19
     b9a:	89 2b       	or	r24, r25
     b9c:	99 f0       	breq	.+38     	; 0xbc4 <_ZN7ns_line9InterruptEv+0x90>
		{
			if ( count <  porog) count++;
     b9e:	83 85       	ldd	r24, Z+11	; 0x0b
     ba0:	94 85       	ldd	r25, Z+12	; 0x0c
     ba2:	21 81       	ldd	r18, Z+1	; 0x01
     ba4:	32 81       	ldd	r19, Z+2	; 0x02
     ba6:	82 17       	cp	r24, r18
     ba8:	93 07       	cpc	r25, r19
     baa:	30 f4       	brcc	.+12     	; 0xbb8 <_ZN7ns_line9InterruptEv+0x84>
     bac:	01 96       	adiw	r24, 0x01	; 1
     bae:	94 87       	std	Z+12, r25	; 0x0c
     bb0:	83 87       	std	Z+11, r24	; 0x0b
			if ((count >= porog) && !fl)
     bb2:	82 17       	cp	r24, r18
     bb4:	93 07       	cpc	r25, r19
     bb6:	a0 f0       	brcs	.+40     	; 0xbe0 <_ZN7ns_line9InterruptEv+0xac>
     bb8:	85 85       	ldd	r24, Z+13	; 0x0d
     bba:	81 11       	cpse	r24, r1
     bbc:	11 c0       	rjmp	.+34     	; 0xbe0 <_ZN7ns_line9InterruptEv+0xac>
				tr = fl = 1;
     bbe:	75 87       	std	Z+13, r23	; 0x0d
     bc0:	70 83       	st	Z, r23
     bc2:	0e c0       	rjmp	.+28     	; 0xbe0 <_ZN7ns_line9InterruptEv+0xac>
		}
		else
		{
			if ( count >  (T)0) count--;
     bc4:	83 85       	ldd	r24, Z+11	; 0x0b
     bc6:	94 85       	ldd	r25, Z+12	; 0x0c
     bc8:	00 97       	sbiw	r24, 0x00	; 0
     bca:	29 f0       	breq	.+10     	; 0xbd6 <_ZN7ns_line9InterruptEv+0xa2>
     bcc:	01 97       	sbiw	r24, 0x01	; 1
     bce:	94 87       	std	Z+12, r25	; 0x0c
     bd0:	83 87       	std	Z+11, r24	; 0x0b
			if ((count == (T)0) && fl)
     bd2:	89 2b       	or	r24, r25
     bd4:	29 f4       	brne	.+10     	; 0xbe0 <_ZN7ns_line9InterruptEv+0xac>
     bd6:	85 85       	ldd	r24, Z+13	; 0x0d
     bd8:	88 23       	and	r24, r24
     bda:	11 f0       	breq	.+4      	; 0xbe0 <_ZN7ns_line9InterruptEv+0xac>
				tr = fl = 0;
     bdc:	15 86       	std	Z+13, r1	; 0x0d
     bde:	10 82       	st	Z, r1
			if (protect[i] > 0) protect[i]--;
     be0:	fa 01       	movw	r30, r20
     be2:	80 81       	ld	r24, Z
     be4:	91 81       	ldd	r25, Z+1	; 0x01
     be6:	00 97       	sbiw	r24, 0x00	; 0
     be8:	19 f0       	breq	.+6      	; 0xbf0 <_ZN7ns_line9InterruptEv+0xbc>
     bea:	01 97       	sbiw	r24, 0x01	; 1
     bec:	91 83       	std	Z+1, r25	; 0x01
     bee:	80 83       	st	Z, r24
     bf0:	4e 5f       	subi	r20, 0xFE	; 254
     bf2:	5f 4f       	sbci	r21, 0xFF	; 255
		}
	}
	void Interrupt()
	{
		//   &   
		for (uint8_t i=0; i<5; i++)
     bf4:	a2 15       	cp	r26, r2
     bf6:	b3 05       	cpc	r27, r3
     bf8:	09 f0       	breq	.+2      	; 0xbfc <_ZN7ns_line9InterruptEv+0xc8>
     bfa:	bf cf       	rjmp	.-130    	; 0xb7a <_ZN7ns_line9InterruptEv+0x46>
		{
			sensors[i]->tr = 10;
			sensors[i]->Interrupt();
			if (protect[i] > 0) protect[i]--;
		}
		if (mode == 0)
     bfc:	80 91 10 01 	lds	r24, 0x0110	; 0x800110 <_ZN7ns_line4modeE>
     c00:	88 23       	and	r24, r24
     c02:	09 f4       	brne	.+2      	; 0xc06 <_ZN7ns_line9InterruptEv+0xd2>
     c04:	01 c2       	rjmp	.+1026   	; 0x1008 <_ZN7ns_line9InterruptEv+0x4d4>
		{	// render
			return;
		}
		if (mode == 1)
     c06:	81 30       	cpi	r24, 0x01	; 1
     c08:	09 f0       	breq	.+2      	; 0xc0c <_ZN7ns_line9InterruptEv+0xd8>
     c0a:	59 c0       	rjmp	.+178    	; 0xcbe <_ZN7ns_line9InterruptEv+0x18a>
		{	// wait free
			uint8_t fl = 1;
			//for (uint8_t i=0; i<2; i++) //   2 
			{
				if (sensors[0]->readSensor() == 0 ) fl = 0;
     c0c:	ef e7       	ldi	r30, 0x7F	; 127
     c0e:	f1 e0       	ldi	r31, 0x01	; 1
		}
	}
	uint8_t readSensor() { return this->fl; }
     c10:	a0 81       	ld	r26, Z
     c12:	b1 81       	ldd	r27, Z+1	; 0x01
     c14:	1d 96       	adiw	r26, 0x0d	; 13
     c16:	9c 91       	ld	r25, X
     c18:	02 80       	ldd	r0, Z+2	; 0x02
     c1a:	f3 81       	ldd	r31, Z+3	; 0x03
     c1c:	e0 2d       	mov	r30, r0
				if (sensors[1]->readSensor() == 0 ) fl = 0;
     c1e:	85 85       	ldd	r24, Z+13	; 0x0d
     c20:	88 23       	and	r24, r24
     c22:	39 f1       	breq	.+78     	; 0xc72 <_ZN7ns_line9InterruptEv+0x13e>
     c24:	cb c1       	rjmp	.+918    	; 0xfbc <_ZN7ns_line9InterruptEv+0x488>
				//if (sensors[2]->readSensor() == 0 ) fl = 0;
				//if (sensors[3]->readSensor() == 0 ) fl = 0;
				//if (sensors[4]->readSensor() == 0 ) fl = 0;
			}
			if (fl)
     c26:	c0 e0       	ldi	r28, 0x00	; 0
     c28:	d0 e0       	ldi	r29, 0x00	; 0
			{	//    
				for (uint8_t i=0; i<5; i++)
				{
					times[i][0] = 0;
     c2a:	fe 01       	movw	r30, r28
     c2c:	ee 0f       	add	r30, r30
     c2e:	ff 1f       	adc	r31, r31
     c30:	ee 0f       	add	r30, r30
     c32:	ff 1f       	adc	r31, r31
     c34:	ee 0f       	add	r30, r30
     c36:	ff 1f       	adc	r31, r31
     c38:	ed 5a       	subi	r30, 0xAD	; 173
     c3a:	fe 4f       	sbci	r31, 0xFE	; 254
     c3c:	10 82       	st	Z, r1
     c3e:	11 82       	std	Z+1, r1	; 0x01
     c40:	12 82       	std	Z+2, r1	; 0x02
     c42:	13 82       	std	Z+3, r1	; 0x03
					times[i][1] = 0;
     c44:	14 82       	std	Z+4, r1	; 0x04
     c46:	15 82       	std	Z+5, r1	; 0x05
     c48:	16 82       	std	Z+6, r1	; 0x06
     c4a:	17 82       	std	Z+7, r1	; 0x07
					protect[i] = 0;
     c4c:	d8 01       	movw	r26, r16
     c4e:	1d 92       	st	X+, r1
     c50:	1d 92       	st	X+, r1
     c52:	8d 01       	movw	r16, r26
					protect_interval = eeprom_read_word(&ns_vg::eeProtect);
     c54:	80 ef       	ldi	r24, 0xF0	; 240
     c56:	9c e0       	ldi	r25, 0x0C	; 12
     c58:	0e 94 95 2f 	call	0x5f2a	; 0x5f2a <eeprom_read_word>
     c5c:	90 93 12 01 	sts	0x0112, r25	; 0x800112 <_ZN7ns_line16protect_intervalE+0x1>
     c60:	80 93 11 01 	sts	0x0111, r24	; 0x800111 <_ZN7ns_line16protect_intervalE>
     c64:	21 96       	adiw	r28, 0x01	; 1
				//if (sensors[3]->readSensor() == 0 ) fl = 0;
				//if (sensors[4]->readSensor() == 0 ) fl = 0;
			}
			if (fl)
			{	//    
				for (uint8_t i=0; i<5; i++)
     c66:	c5 30       	cpi	r28, 0x05	; 5
     c68:	d1 05       	cpc	r29, r1
     c6a:	f9 f6       	brne	.-66     	; 0xc2a <_ZN7ns_line9InterruptEv+0xf6>
					times[i][0] = 0;
					times[i][1] = 0;
					protect[i] = 0;
					protect_interval = eeprom_read_word(&ns_vg::eeProtect);
				}
				mode = 2;
     c6c:	82 e0       	ldi	r24, 0x02	; 2
     c6e:	80 93 10 01 	sts	0x0110, r24	; 0x800110 <_ZN7ns_line4modeE>
			}
			if (count > 0)
     c72:	80 91 7b 01 	lds	r24, 0x017B	; 0x80017b <_ZN7ns_line5countE>
     c76:	90 91 7c 01 	lds	r25, 0x017C	; 0x80017c <_ZN7ns_line5countE+0x1>
     c7a:	a0 91 7d 01 	lds	r26, 0x017D	; 0x80017d <_ZN7ns_line5countE+0x2>
     c7e:	b0 91 7e 01 	lds	r27, 0x017E	; 0x80017e <_ZN7ns_line5countE+0x3>
     c82:	89 2b       	or	r24, r25
     c84:	8a 2b       	or	r24, r26
     c86:	8b 2b       	or	r24, r27
     c88:	09 f4       	brne	.+2      	; 0xc8c <_ZN7ns_line9InterruptEv+0x158>
     c8a:	be c1       	rjmp	.+892    	; 0x1008 <_ZN7ns_line9InterruptEv+0x4d4>
			{
				count = 0;
     c8c:	10 92 7b 01 	sts	0x017B, r1	; 0x80017b <_ZN7ns_line5countE>
     c90:	10 92 7c 01 	sts	0x017C, r1	; 0x80017c <_ZN7ns_line5countE+0x1>
     c94:	10 92 7d 01 	sts	0x017D, r1	; 0x80017d <_ZN7ns_line5countE+0x2>
     c98:	10 92 7e 01 	sts	0x017E, r1	; 0x80017e <_ZN7ns_line5countE+0x3>
				timeEnd = 0;
     c9c:	10 92 4f 01 	sts	0x014F, r1	; 0x80014f <_ZN7ns_line7timeEndE>
     ca0:	10 92 50 01 	sts	0x0150, r1	; 0x800150 <_ZN7ns_line7timeEndE+0x1>
     ca4:	10 92 51 01 	sts	0x0151, r1	; 0x800151 <_ZN7ns_line7timeEndE+0x2>
     ca8:	10 92 52 01 	sts	0x0152, r1	; 0x800152 <_ZN7ns_line7timeEndE+0x3>
				timeCrh = 0;
     cac:	10 92 4b 01 	sts	0x014B, r1	; 0x80014b <_ZN7ns_line7timeCrhE>
     cb0:	10 92 4c 01 	sts	0x014C, r1	; 0x80014c <_ZN7ns_line7timeCrhE+0x1>
     cb4:	10 92 4d 01 	sts	0x014D, r1	; 0x80014d <_ZN7ns_line7timeCrhE+0x2>
     cb8:	10 92 4e 01 	sts	0x014E, r1	; 0x80014e <_ZN7ns_line7timeCrhE+0x3>
     cbc:	a5 c1       	rjmp	.+842    	; 0x1008 <_ZN7ns_line9InterruptEv+0x4d4>
			}
			return;
		}
		if (mode == 2)
     cbe:	82 30       	cpi	r24, 0x02	; 2
     cc0:	09 f0       	breq	.+2      	; 0xcc4 <_ZN7ns_line9InterruptEv+0x190>
     cc2:	a2 c1       	rjmp	.+836    	; 0x1008 <_ZN7ns_line9InterruptEv+0x4d4>
		{	// read data
			if (count == 0)
     cc4:	80 91 7b 01 	lds	r24, 0x017B	; 0x80017b <_ZN7ns_line5countE>
     cc8:	90 91 7c 01 	lds	r25, 0x017C	; 0x80017c <_ZN7ns_line5countE+0x1>
     ccc:	a0 91 7d 01 	lds	r26, 0x017D	; 0x80017d <_ZN7ns_line5countE+0x2>
     cd0:	b0 91 7e 01 	lds	r27, 0x017E	; 0x80017e <_ZN7ns_line5countE+0x3>
     cd4:	00 97       	sbiw	r24, 0x00	; 0
     cd6:	a1 05       	cpc	r26, r1
     cd8:	b1 05       	cpc	r27, r1
     cda:	e1 f4       	brne	.+56     	; 0xd14 <_ZN7ns_line9InterruptEv+0x1e0>
			{
				if (
				   ( (sensors[0]->readSensor() == 0) && (sensors[1]->readSensor() == 0) ) // !!!!!!!!!!!!!  
     cdc:	e0 91 7f 01 	lds	r30, 0x017F	; 0x80017f <_ZN7ns_line7sensorsE>
     ce0:	f0 91 80 01 	lds	r31, 0x0180	; 0x800180 <_ZN7ns_line7sensorsE+0x1>
				   ||
     ce4:	85 85       	ldd	r24, Z+13	; 0x0d
     ce6:	81 11       	cpse	r24, r1
     ce8:	0a c0       	rjmp	.+20     	; 0xcfe <_ZN7ns_line9InterruptEv+0x1ca>
     cea:	a0 91 81 01 	lds	r26, 0x0181	; 0x800181 <_ZN7ns_line7sensorsE+0x2>
     cee:	b0 91 82 01 	lds	r27, 0x0182	; 0x800182 <_ZN7ns_line7sensorsE+0x3>
		if (mode == 2)
		{	// read data
			if (count == 0)
			{
				if (
				   ( (sensors[0]->readSensor() == 0) && (sensors[1]->readSensor() == 0) ) // !!!!!!!!!!!!!  
     cf2:	1d 96       	adiw	r26, 0x0d	; 13
     cf4:	8c 91       	ld	r24, X
     cf6:	88 23       	and	r24, r24
     cf8:	09 f4       	brne	.+2      	; 0xcfc <_ZN7ns_line9InterruptEv+0x1c8>
     cfa:	63 c1       	rjmp	.+710    	; 0xfc2 <_ZN7ns_line9InterruptEv+0x48e>
     cfc:	81 c1       	rjmp	.+770    	; 0x1000 <_ZN7ns_line9InterruptEv+0x4cc>
				   ||
     cfe:	80 81       	ld	r24, Z
     d00:	81 11       	cpse	r24, r1
     d02:	13 c0       	rjmp	.+38     	; 0xd2a <_ZN7ns_line9InterruptEv+0x1f6>
     d04:	e0 91 81 01 	lds	r30, 0x0181	; 0x800181 <_ZN7ns_line7sensorsE+0x2>
     d08:	f0 91 82 01 	lds	r31, 0x0182	; 0x800182 <_ZN7ns_line7sensorsE+0x3>
				   ( (sensors[0]->tr == 0) && (sensors[1]->readSensor() != 0) )			// 0 , 1 - 
     d0c:	85 85       	ldd	r24, Z+13	; 0x0d
     d0e:	81 11       	cpse	r24, r1
     d10:	58 c1       	rjmp	.+688    	; 0xfc2 <_ZN7ns_line9InterruptEv+0x48e>
     d12:	0b c0       	rjmp	.+22     	; 0xd2a <_ZN7ns_line9InterruptEv+0x1f6>
					count = 1;
				}
			}
			else
			{
				count++;
     d14:	01 96       	adiw	r24, 0x01	; 1
     d16:	a1 1d       	adc	r26, r1
     d18:	b1 1d       	adc	r27, r1
     d1a:	80 93 7b 01 	sts	0x017B, r24	; 0x80017b <_ZN7ns_line5countE>
     d1e:	90 93 7c 01 	sts	0x017C, r25	; 0x80017c <_ZN7ns_line5countE+0x1>
     d22:	a0 93 7d 01 	sts	0x017D, r26	; 0x80017d <_ZN7ns_line5countE+0x2>
     d26:	b0 93 7e 01 	sts	0x017E, r27	; 0x80017e <_ZN7ns_line5countE+0x3>
				if (sensors[1]->readSensor() == 0 ) fl = 0;
				//if (sensors[2]->readSensor() == 0 ) fl = 0;
				//if (sensors[3]->readSensor() == 0 ) fl = 0;
				//if (sensors[4]->readSensor() == 0 ) fl = 0;
			}
			if (fl)
     d2a:	0f 2e       	mov	r0, r31
     d2c:	ff e7       	ldi	r31, 0x7F	; 127
     d2e:	cf 2e       	mov	r12, r31
     d30:	f1 e0       	ldi	r31, 0x01	; 1
     d32:	df 2e       	mov	r13, r31
     d34:	f0 2d       	mov	r31, r0
     d36:	0f 2e       	mov	r0, r31
     d38:	f0 e3       	ldi	r31, 0x30	; 48
     d3a:	5f 2e       	mov	r5, r31
     d3c:	f0 2d       	mov	r31, r0
     d3e:	a1 2c       	mov	r10, r1
     d40:	b1 2c       	mov	r11, r1
			{
				count++;
			}
			for (uint8_t i=0; i<5; i++)
			{
				if (sensors[i]->tr == 0) //   
     d42:	35 01       	movw	r6, r10
     d44:	46 01       	movw	r8, r12
     d46:	e6 01       	movw	r28, r12
     d48:	e8 81       	ld	r30, Y
     d4a:	f9 81       	ldd	r31, Y+1	; 0x01
     d4c:	80 81       	ld	r24, Z
     d4e:	81 11       	cpse	r24, r1
     d50:	46 c0       	rjmp	.+140    	; 0xdde <_ZN7ns_line9InterruptEv+0x2aa>
				{
					if (count > 0)	//    rs    
     d52:	80 91 7b 01 	lds	r24, 0x017B	; 0x80017b <_ZN7ns_line5countE>
     d56:	90 91 7c 01 	lds	r25, 0x017C	; 0x80017c <_ZN7ns_line5countE+0x1>
     d5a:	a0 91 7d 01 	lds	r26, 0x017D	; 0x80017d <_ZN7ns_line5countE+0x2>
     d5e:	b0 91 7e 01 	lds	r27, 0x017E	; 0x80017e <_ZN7ns_line5countE+0x3>
     d62:	89 2b       	or	r24, r25
     d64:	8a 2b       	or	r24, r26
     d66:	8b 2b       	or	r24, r27
     d68:	d1 f0       	breq	.+52     	; 0xd9e <_ZN7ns_line9InterruptEv+0x26a>
					{
						ns_rs232::SendByte('d');
     d6a:	84 e6       	ldi	r24, 0x64	; 100
     d6c:	0e 94 ae 2b 	call	0x575c	; 0x575c <_ZN8ns_rs2328SendByteEh>
						ns_rs232::SendByte('0'+i);
     d70:	85 2d       	mov	r24, r5
     d72:	0e 94 ae 2b 	call	0x575c	; 0x575c <_ZN8ns_rs2328SendByteEh>
						ns_rs232::SendByte(':');
     d76:	8a e3       	ldi	r24, 0x3A	; 58
     d78:	0e 94 ae 2b 	call	0x575c	; 0x575c <_ZN8ns_rs2328SendByteEh>
						ns_rs232::DigitZ(6, count);
     d7c:	40 91 7b 01 	lds	r20, 0x017B	; 0x80017b <_ZN7ns_line5countE>
     d80:	50 91 7c 01 	lds	r21, 0x017C	; 0x80017c <_ZN7ns_line5countE+0x1>
     d84:	60 91 7d 01 	lds	r22, 0x017D	; 0x80017d <_ZN7ns_line5countE+0x2>
     d88:	70 91 7e 01 	lds	r23, 0x017E	; 0x80017e <_ZN7ns_line5countE+0x3>
     d8c:	86 e0       	ldi	r24, 0x06	; 6
     d8e:	0e 94 ed 2b 	call	0x57da	; 0x57da <_ZN8ns_rs2326DigitZEhl>
						ns_rs232::SendByte('\r');
     d92:	8d e0       	ldi	r24, 0x0D	; 13
     d94:	0e 94 ae 2b 	call	0x575c	; 0x575c <_ZN8ns_rs2328SendByteEh>
						ns_rs232::SendByte('\n');
     d98:	8a e0       	ldi	r24, 0x0A	; 10
     d9a:	0e 94 ae 2b 	call	0x575c	; 0x575c <_ZN8ns_rs2328SendByteEh>
					}
					{
						//       i
						uint16_t tmpProtect = protect[i];
     d9e:	f8 01       	movw	r30, r16
     da0:	80 81       	ld	r24, Z
     da2:	91 81       	ldd	r25, Z+1	; 0x01
						//      i
						protect[i] = protect_interval;
     da4:	20 91 11 01 	lds	r18, 0x0111	; 0x800111 <_ZN7ns_line16protect_intervalE>
     da8:	30 91 12 01 	lds	r19, 0x0112	; 0x800112 <_ZN7ns_line16protect_intervalE+0x1>
     dac:	31 83       	std	Z+1, r19	; 0x01
     dae:	20 83       	st	Z, r18
						// ,    
						if (tmpProtect == 0) times[i][0] = count;
     db0:	89 2b       	or	r24, r25
     db2:	a9 f4       	brne	.+42     	; 0xdde <_ZN7ns_line9InterruptEv+0x2aa>
     db4:	80 91 7b 01 	lds	r24, 0x017B	; 0x80017b <_ZN7ns_line5countE>
     db8:	90 91 7c 01 	lds	r25, 0x017C	; 0x80017c <_ZN7ns_line5countE+0x1>
     dbc:	a0 91 7d 01 	lds	r26, 0x017D	; 0x80017d <_ZN7ns_line5countE+0x2>
     dc0:	b0 91 7e 01 	lds	r27, 0x017E	; 0x80017e <_ZN7ns_line5countE+0x3>
     dc4:	f3 01       	movw	r30, r6
     dc6:	ee 0f       	add	r30, r30
     dc8:	ff 1f       	adc	r31, r31
     dca:	ee 0f       	add	r30, r30
     dcc:	ff 1f       	adc	r31, r31
     dce:	ee 0f       	add	r30, r30
     dd0:	ff 1f       	adc	r31, r31
     dd2:	ed 5a       	subi	r30, 0xAD	; 173
     dd4:	fe 4f       	sbci	r31, 0xFE	; 254
     dd6:	80 83       	st	Z, r24
     dd8:	91 83       	std	Z+1, r25	; 0x01
     dda:	a2 83       	std	Z+2, r26	; 0x02
     ddc:	b3 83       	std	Z+3, r27	; 0x03
     dde:	f2 e0       	ldi	r31, 0x02	; 2
     de0:	cf 0e       	add	r12, r31
     de2:	d1 1c       	adc	r13, r1
					}
				}
				if (sensors[i]->tr == 1)	//     (c  )
     de4:	d4 01       	movw	r26, r8
     de6:	ed 91       	ld	r30, X+
     de8:	fc 91       	ld	r31, X
     dea:	80 81       	ld	r24, Z
     dec:	81 30       	cpi	r24, 0x01	; 1
     dee:	99 f5       	brne	.+102    	; 0xe56 <_ZN7ns_line9InterruptEv+0x322>
				{
					times[i][1] = count;
     df0:	80 91 7b 01 	lds	r24, 0x017B	; 0x80017b <_ZN7ns_line5countE>
     df4:	90 91 7c 01 	lds	r25, 0x017C	; 0x80017c <_ZN7ns_line5countE+0x1>
     df8:	a0 91 7d 01 	lds	r26, 0x017D	; 0x80017d <_ZN7ns_line5countE+0x2>
     dfc:	b0 91 7e 01 	lds	r27, 0x017E	; 0x80017e <_ZN7ns_line5countE+0x3>
     e00:	f3 01       	movw	r30, r6
     e02:	ee 0f       	add	r30, r30
     e04:	ff 1f       	adc	r31, r31
     e06:	ee 0f       	add	r30, r30
     e08:	ff 1f       	adc	r31, r31
     e0a:	ee 0f       	add	r30, r30
     e0c:	ff 1f       	adc	r31, r31
     e0e:	ed 5a       	subi	r30, 0xAD	; 173
     e10:	fe 4f       	sbci	r31, 0xFE	; 254
     e12:	84 83       	std	Z+4, r24	; 0x04
     e14:	95 83       	std	Z+5, r25	; 0x05
     e16:	a6 83       	std	Z+6, r26	; 0x06
     e18:	b7 83       	std	Z+7, r27	; 0x07
					if (count > 0)
     e1a:	89 2b       	or	r24, r25
     e1c:	8a 2b       	or	r24, r26
     e1e:	8b 2b       	or	r24, r27
     e20:	d1 f0       	breq	.+52     	; 0xe56 <_ZN7ns_line9InterruptEv+0x322>
					{
						ns_rs232::SendByte('D');
     e22:	84 e4       	ldi	r24, 0x44	; 68
     e24:	0e 94 ae 2b 	call	0x575c	; 0x575c <_ZN8ns_rs2328SendByteEh>
						ns_rs232::SendByte('0'+i);
     e28:	85 2d       	mov	r24, r5
     e2a:	0e 94 ae 2b 	call	0x575c	; 0x575c <_ZN8ns_rs2328SendByteEh>
						ns_rs232::SendByte(':');
     e2e:	8a e3       	ldi	r24, 0x3A	; 58
     e30:	0e 94 ae 2b 	call	0x575c	; 0x575c <_ZN8ns_rs2328SendByteEh>
						ns_rs232::DigitZ(6, count);
     e34:	40 91 7b 01 	lds	r20, 0x017B	; 0x80017b <_ZN7ns_line5countE>
     e38:	50 91 7c 01 	lds	r21, 0x017C	; 0x80017c <_ZN7ns_line5countE+0x1>
     e3c:	60 91 7d 01 	lds	r22, 0x017D	; 0x80017d <_ZN7ns_line5countE+0x2>
     e40:	70 91 7e 01 	lds	r23, 0x017E	; 0x80017e <_ZN7ns_line5countE+0x3>
     e44:	86 e0       	ldi	r24, 0x06	; 6
     e46:	0e 94 ed 2b 	call	0x57da	; 0x57da <_ZN8ns_rs2326DigitZEhl>
						ns_rs232::SendByte('\r');
     e4a:	8d e0       	ldi	r24, 0x0D	; 13
     e4c:	0e 94 ae 2b 	call	0x575c	; 0x575c <_ZN8ns_rs2328SendByteEh>
						ns_rs232::SendByte('\n');
     e50:	8a e0       	ldi	r24, 0x0A	; 10
     e52:	0e 94 ae 2b 	call	0x575c	; 0x575c <_ZN8ns_rs2328SendByteEh>
     e56:	bf ef       	ldi	r27, 0xFF	; 255
     e58:	ab 1a       	sub	r10, r27
     e5a:	bb 0a       	sbc	r11, r27
     e5c:	53 94       	inc	r5
     e5e:	0e 5f       	subi	r16, 0xFE	; 254
     e60:	1f 4f       	sbci	r17, 0xFF	; 255
			}
			else
			{
				count++;
			}
			for (uint8_t i=0; i<5; i++)
     e62:	c5 e3       	ldi	r28, 0x35	; 53
     e64:	5c 12       	cpse	r5, r28
     e66:	6d cf       	rjmp	.-294    	; 0xd42 <_ZN7ns_line9InterruptEv+0x20e>
     e68:	90 e0       	ldi	r25, 0x00	; 0
				uint8_t fl = 0;
				for (uint8_t i=0; i<5; i++)
				{
					if (sensors[i]->readSensor() == 1)
					{
						fl = 1;
     e6a:	21 e0       	ldi	r18, 0x01	; 1
			// 
			{
				uint8_t fl = 0;
				for (uint8_t i=0; i<5; i++)
				{
					if (sensors[i]->readSensor() == 1)
     e6c:	d7 01       	movw	r26, r14
     e6e:	ed 91       	ld	r30, X+
     e70:	fd 91       	ld	r31, X+
     e72:	7d 01       	movw	r14, r26
     e74:	85 85       	ldd	r24, Z+13	; 0x0d
     e76:	81 30       	cpi	r24, 0x01	; 1
     e78:	09 f4       	brne	.+2      	; 0xe7c <_ZN7ns_line9InterruptEv+0x348>
					{
						fl = 1;
     e7a:	92 2f       	mov	r25, r18
				}
			}
			// 
			{
				uint8_t fl = 0;
				for (uint8_t i=0; i<5; i++)
     e7c:	2e 14       	cp	r2, r14
     e7e:	3f 04       	cpc	r3, r15
     e80:	a9 f7       	brne	.-22     	; 0xe6c <_ZN7ns_line9InterruptEv+0x338>
					if (sensors[i]->readSensor() == 1)
					{
						fl = 1;
					}
				}
				if (!fl)
     e82:	91 11       	cpse	r25, r1
     e84:	39 c0       	rjmp	.+114    	; 0xef8 <_ZN7ns_line9InterruptEv+0x3c4>
				{
					if (timeCrh == 0)
     e86:	80 91 4b 01 	lds	r24, 0x014B	; 0x80014b <_ZN7ns_line7timeCrhE>
     e8a:	90 91 4c 01 	lds	r25, 0x014C	; 0x80014c <_ZN7ns_line7timeCrhE+0x1>
     e8e:	a0 91 4d 01 	lds	r26, 0x014D	; 0x80014d <_ZN7ns_line7timeCrhE+0x2>
     e92:	b0 91 4e 01 	lds	r27, 0x014E	; 0x80014e <_ZN7ns_line7timeCrhE+0x3>
     e96:	00 97       	sbiw	r24, 0x00	; 0
     e98:	a1 05       	cpc	r26, r1
     e9a:	b1 05       	cpc	r27, r1
     e9c:	69 f4       	brne	.+26     	; 0xeb8 <_ZN7ns_line9InterruptEv+0x384>
					{
						timeCrh = TIME_CRASH;
     e9e:	80 ec       	ldi	r24, 0xC0	; 192
     ea0:	94 ed       	ldi	r25, 0xD4	; 212
     ea2:	a1 e0       	ldi	r26, 0x01	; 1
     ea4:	b0 e0       	ldi	r27, 0x00	; 0
     ea6:	80 93 4b 01 	sts	0x014B, r24	; 0x80014b <_ZN7ns_line7timeCrhE>
     eaa:	90 93 4c 01 	sts	0x014C, r25	; 0x80014c <_ZN7ns_line7timeCrhE+0x1>
     eae:	a0 93 4d 01 	sts	0x014D, r26	; 0x80014d <_ZN7ns_line7timeCrhE+0x2>
     eb2:	b0 93 4e 01 	sts	0x014E, r27	; 0x80014e <_ZN7ns_line7timeCrhE+0x3>
     eb6:	20 c0       	rjmp	.+64     	; 0xef8 <_ZN7ns_line9InterruptEv+0x3c4>
					}
					else
					{
						timeCrh--;
     eb8:	01 97       	sbiw	r24, 0x01	; 1
     eba:	a1 09       	sbc	r26, r1
     ebc:	b1 09       	sbc	r27, r1
						if (timeCrh == 1)
     ebe:	81 30       	cpi	r24, 0x01	; 1
     ec0:	91 05       	cpc	r25, r1
     ec2:	a1 05       	cpc	r26, r1
     ec4:	b1 05       	cpc	r27, r1
     ec6:	49 f0       	breq	.+18     	; 0xeda <_ZN7ns_line9InterruptEv+0x3a6>
					{
						timeCrh = TIME_CRASH;
					}
					else
					{
						timeCrh--;
     ec8:	80 93 4b 01 	sts	0x014B, r24	; 0x80014b <_ZN7ns_line7timeCrhE>
     ecc:	90 93 4c 01 	sts	0x014C, r25	; 0x80014c <_ZN7ns_line7timeCrhE+0x1>
     ed0:	a0 93 4d 01 	sts	0x014D, r26	; 0x80014d <_ZN7ns_line7timeCrhE+0x2>
     ed4:	b0 93 4e 01 	sts	0x014E, r27	; 0x80014e <_ZN7ns_line7timeCrhE+0x3>
     ed8:	0f c0       	rjmp	.+30     	; 0xef8 <_ZN7ns_line9InterruptEv+0x3c4>
						if (timeCrh == 1)
						{
							timeCrh = 0;
     eda:	10 92 4b 01 	sts	0x014B, r1	; 0x80014b <_ZN7ns_line7timeCrhE>
     ede:	10 92 4c 01 	sts	0x014C, r1	; 0x80014c <_ZN7ns_line7timeCrhE+0x1>
     ee2:	10 92 4d 01 	sts	0x014D, r1	; 0x80014d <_ZN7ns_line7timeCrhE+0x2>
     ee6:	10 92 4e 01 	sts	0x014E, r1	; 0x80014e <_ZN7ns_line7timeCrhE+0x3>
							ns_vg::lenTubuStat = 10;
     eea:	8a e0       	ldi	r24, 0x0A	; 10
     eec:	80 93 fb 01 	sts	0x01FB, r24	; 0x8001fb <_ZN5ns_vg11lenTubuStatE>
							mode = 1;
     ef0:	81 e0       	ldi	r24, 0x01	; 1
     ef2:	80 93 10 01 	sts	0x0110, r24	; 0x800110 <_ZN7ns_line4modeE>
							return;
     ef6:	88 c0       	rjmp	.+272    	; 0x1008 <_ZN7ns_line9InterruptEv+0x4d4>
					}
				}
			}
			
			//       2
			if ( (sensors[1]->tr == 1) && (sensors[0]->readSensor() != 0) )
     ef8:	e0 91 81 01 	lds	r30, 0x0181	; 0x800181 <_ZN7ns_line7sensorsE+0x2>
     efc:	f0 91 82 01 	lds	r31, 0x0182	; 0x800182 <_ZN7ns_line7sensorsE+0x3>
     f00:	80 81       	ld	r24, Z
     f02:	81 30       	cpi	r24, 0x01	; 1
     f04:	61 f5       	brne	.+88     	; 0xf5e <_ZN7ns_line9InterruptEv+0x42a>
     f06:	e0 91 7f 01 	lds	r30, 0x017F	; 0x80017f <_ZN7ns_line7sensorsE>
     f0a:	f0 91 80 01 	lds	r31, 0x0180	; 0x800180 <_ZN7ns_line7sensorsE+0x1>
     f0e:	85 85       	ldd	r24, Z+13	; 0x0d
     f10:	81 11       	cpse	r24, r1
     f12:	64 c0       	rjmp	.+200    	; 0xfdc <_ZN7ns_line9InterruptEv+0x4a8>
     f14:	24 c0       	rjmp	.+72     	; 0xf5e <_ZN7ns_line9InterruptEv+0x42a>
				{
					if (times[2][0] == 0)
					{
						timeEnd = ((uint32_t)3) * (times[1][1] - times[0][1]) / ((uint32_t)2); //   3/4   sq1->sq2 @@@@@@@@@@@@@@@@@@@@@@@@@@@@@@@@@@@@@@@@@@
     f16:	e3 e5       	ldi	r30, 0x53	; 83
     f18:	f1 e0       	ldi	r31, 0x01	; 1
     f1a:	84 85       	ldd	r24, Z+12	; 0x0c
     f1c:	95 85       	ldd	r25, Z+13	; 0x0d
     f1e:	a6 85       	ldd	r26, Z+14	; 0x0e
     f20:	b7 85       	ldd	r27, Z+15	; 0x0f
     f22:	44 81       	ldd	r20, Z+4	; 0x04
     f24:	55 81       	ldd	r21, Z+5	; 0x05
     f26:	66 81       	ldd	r22, Z+6	; 0x06
     f28:	77 81       	ldd	r23, Z+7	; 0x07
     f2a:	84 1b       	sub	r24, r20
     f2c:	95 0b       	sbc	r25, r21
     f2e:	a6 0b       	sbc	r26, r22
     f30:	b7 0b       	sbc	r27, r23
     f32:	ac 01       	movw	r20, r24
     f34:	bd 01       	movw	r22, r26
     f36:	44 0f       	add	r20, r20
     f38:	55 1f       	adc	r21, r21
     f3a:	66 1f       	adc	r22, r22
     f3c:	77 1f       	adc	r23, r23
     f3e:	84 0f       	add	r24, r20
     f40:	95 1f       	adc	r25, r21
     f42:	a6 1f       	adc	r26, r22
     f44:	b7 1f       	adc	r27, r23
     f46:	b6 95       	lsr	r27
     f48:	a7 95       	ror	r26
     f4a:	97 95       	ror	r25
     f4c:	87 95       	ror	r24
     f4e:	80 93 4f 01 	sts	0x014F, r24	; 0x80014f <_ZN7ns_line7timeEndE>
     f52:	90 93 50 01 	sts	0x0150, r25	; 0x800150 <_ZN7ns_line7timeEndE+0x1>
     f56:	a0 93 51 01 	sts	0x0151, r26	; 0x800151 <_ZN7ns_line7timeEndE+0x2>
     f5a:	b0 93 52 01 	sts	0x0152, r27	; 0x800152 <_ZN7ns_line7timeEndE+0x3>
					else
					{
						timeEnd = ((uint32_t)FtTimerMain) / 4;
					}
				}
			if (timeEnd > 1) timeEnd--;
     f5e:	80 91 4f 01 	lds	r24, 0x014F	; 0x80014f <_ZN7ns_line7timeEndE>
     f62:	90 91 50 01 	lds	r25, 0x0150	; 0x800150 <_ZN7ns_line7timeEndE+0x1>
     f66:	a0 91 51 01 	lds	r26, 0x0151	; 0x800151 <_ZN7ns_line7timeEndE+0x2>
     f6a:	b0 91 52 01 	lds	r27, 0x0152	; 0x800152 <_ZN7ns_line7timeEndE+0x3>
     f6e:	82 30       	cpi	r24, 0x02	; 2
     f70:	91 05       	cpc	r25, r1
     f72:	a1 05       	cpc	r26, r1
     f74:	b1 05       	cpc	r27, r1
     f76:	58 f0       	brcs	.+22     	; 0xf8e <_ZN7ns_line9InterruptEv+0x45a>
     f78:	01 97       	sbiw	r24, 0x01	; 1
     f7a:	a1 09       	sbc	r26, r1
     f7c:	b1 09       	sbc	r27, r1
     f7e:	80 93 4f 01 	sts	0x014F, r24	; 0x80014f <_ZN7ns_line7timeEndE>
     f82:	90 93 50 01 	sts	0x0150, r25	; 0x800150 <_ZN7ns_line7timeEndE+0x1>
     f86:	a0 93 51 01 	sts	0x0151, r26	; 0x800151 <_ZN7ns_line7timeEndE+0x2>
     f8a:	b0 93 52 01 	sts	0x0152, r27	; 0x800152 <_ZN7ns_line7timeEndE+0x3>
			if (timeEnd == 1)
     f8e:	80 91 4f 01 	lds	r24, 0x014F	; 0x80014f <_ZN7ns_line7timeEndE>
     f92:	90 91 50 01 	lds	r25, 0x0150	; 0x800150 <_ZN7ns_line7timeEndE+0x1>
     f96:	a0 91 51 01 	lds	r26, 0x0151	; 0x800151 <_ZN7ns_line7timeEndE+0x2>
     f9a:	b0 91 52 01 	lds	r27, 0x0152	; 0x800152 <_ZN7ns_line7timeEndE+0x3>
     f9e:	01 97       	sbiw	r24, 0x01	; 1
     fa0:	a1 05       	cpc	r26, r1
     fa2:	b1 05       	cpc	r27, r1
     fa4:	89 f5       	brne	.+98     	; 0x1008 <_ZN7ns_line9InterruptEv+0x4d4>
			{
				timeEnd = 0;
     fa6:	10 92 4f 01 	sts	0x014F, r1	; 0x80014f <_ZN7ns_line7timeEndE>
     faa:	10 92 50 01 	sts	0x0150, r1	; 0x800150 <_ZN7ns_line7timeEndE+0x1>
     fae:	10 92 51 01 	sts	0x0151, r1	; 0x800151 <_ZN7ns_line7timeEndE+0x2>
     fb2:	10 92 52 01 	sts	0x0152, r1	; 0x800152 <_ZN7ns_line7timeEndE+0x3>
				mode = 0; // render
     fb6:	10 92 10 01 	sts	0x0110, r1	; 0x800110 <_ZN7ns_line4modeE>
     fba:	26 c0       	rjmp	.+76     	; 0x1008 <_ZN7ns_line9InterruptEv+0x4d4>
				if (sensors[1]->readSensor() == 0 ) fl = 0;
				//if (sensors[2]->readSensor() == 0 ) fl = 0;
				//if (sensors[3]->readSensor() == 0 ) fl = 0;
				//if (sensors[4]->readSensor() == 0 ) fl = 0;
			}
			if (fl)
     fbc:	91 11       	cpse	r25, r1
     fbe:	33 ce       	rjmp	.-922    	; 0xc26 <_ZN7ns_line9InterruptEv+0xf2>
     fc0:	58 ce       	rjmp	.-848    	; 0xc72 <_ZN7ns_line9InterruptEv+0x13e>
				   ( (sensors[0]->readSensor() == 0) && (sensors[1]->readSensor() == 0) ) // !!!!!!!!!!!!!  
				   ||
				   ( (sensors[0]->tr == 0) && (sensors[1]->readSensor() != 0) )			// 0 , 1 - 
				)
				{	//   
					count = 1;
     fc2:	81 e0       	ldi	r24, 0x01	; 1
     fc4:	90 e0       	ldi	r25, 0x00	; 0
     fc6:	a0 e0       	ldi	r26, 0x00	; 0
     fc8:	b0 e0       	ldi	r27, 0x00	; 0
     fca:	80 93 7b 01 	sts	0x017B, r24	; 0x80017b <_ZN7ns_line5countE>
     fce:	90 93 7c 01 	sts	0x017C, r25	; 0x80017c <_ZN7ns_line5countE+0x1>
     fd2:	a0 93 7d 01 	sts	0x017D, r26	; 0x80017d <_ZN7ns_line5countE+0x2>
     fd6:	b0 93 7e 01 	sts	0x017E, r27	; 0x80017e <_ZN7ns_line5countE+0x3>
     fda:	a7 ce       	rjmp	.-690    	; 0xd2a <_ZN7ns_line9InterruptEv+0x1f6>
			}
			
			//       2
			if ( (sensors[1]->tr == 1) && (sensors[0]->readSensor() != 0) )
				{
					if (times[2][0] == 0)
     fdc:	80 91 63 01 	lds	r24, 0x0163	; 0x800163 <_ZN7ns_line5timesE+0x10>
     fe0:	90 91 64 01 	lds	r25, 0x0164	; 0x800164 <_ZN7ns_line5timesE+0x11>
     fe4:	a0 91 65 01 	lds	r26, 0x0165	; 0x800165 <_ZN7ns_line5timesE+0x12>
     fe8:	b0 91 66 01 	lds	r27, 0x0166	; 0x800166 <_ZN7ns_line5timesE+0x13>
     fec:	89 2b       	or	r24, r25
     fee:	8a 2b       	or	r24, r26
     ff0:	8b 2b       	or	r24, r27
     ff2:	09 f4       	brne	.+2      	; 0xff6 <_ZN7ns_line9InterruptEv+0x4c2>
     ff4:	90 cf       	rjmp	.-224    	; 0xf16 <_ZN7ns_line9InterruptEv+0x3e2>
					else
					{
						timeEnd = ((uint32_t)FtTimerMain) / 4;
					}
				}
			if (timeEnd > 1) timeEnd--;
     ff6:	84 ef       	ldi	r24, 0xF4	; 244
     ff8:	91 e0       	ldi	r25, 0x01	; 1
     ffa:	a0 e0       	ldi	r26, 0x00	; 0
     ffc:	b0 e0       	ldi	r27, 0x00	; 0
     ffe:	bc cf       	rjmp	.-136    	; 0xf78 <_ZN7ns_line9InterruptEv+0x444>
		{	// read data
			if (count == 0)
			{
				if (
				   ( (sensors[0]->readSensor() == 0) && (sensors[1]->readSensor() == 0) ) // !!!!!!!!!!!!!  
				   ||
    1000:	80 81       	ld	r24, Z
    1002:	88 23       	and	r24, r24
    1004:	f1 f2       	breq	.-68     	; 0xfc2 <_ZN7ns_line9InterruptEv+0x48e>
    1006:	91 ce       	rjmp	.-734    	; 0xd2a <_ZN7ns_line9InterruptEv+0x1f6>
				timeEnd = 0;
				mode = 0; // render
			}
			return;
		}
	}
    1008:	df 91       	pop	r29
    100a:	cf 91       	pop	r28
    100c:	1f 91       	pop	r17
    100e:	0f 91       	pop	r16
    1010:	ff 90       	pop	r15
    1012:	ef 90       	pop	r14
    1014:	df 90       	pop	r13
    1016:	cf 90       	pop	r12
    1018:	bf 90       	pop	r11
    101a:	af 90       	pop	r10
    101c:	9f 90       	pop	r9
    101e:	8f 90       	pop	r8
    1020:	7f 90       	pop	r7
    1022:	6f 90       	pop	r6
    1024:	5f 90       	pop	r5
    1026:	3f 90       	pop	r3
    1028:	2f 90       	pop	r2
    102a:	08 95       	ret

0000102c <_ZN7ns_line8sendTeleEjajj>:
	// ====
	void sendTele(uint16_t dlina, int8_t sqBas, uint16_t base, uint16_t exL)
	{
    102c:	af 92       	push	r10
    102e:	bf 92       	push	r11
    1030:	df 92       	push	r13
    1032:	ef 92       	push	r14
    1034:	ff 92       	push	r15
    1036:	0f 93       	push	r16
    1038:	1f 93       	push	r17
    103a:	cf 93       	push	r28
    103c:	df 93       	push	r29
    103e:	ec 01       	movw	r28, r24
    1040:	d6 2e       	mov	r13, r22
    1042:	7a 01       	movw	r14, r20
    1044:	89 01       	movw	r16, r18
		// send to rs tele
		ns_rs232::String_P(PSTR(" tube: ") );
    1046:	89 ed       	ldi	r24, 0xD9	; 217
    1048:	90 e0       	ldi	r25, 0x00	; 0
    104a:	0e 94 dd 2b 	call	0x57ba	; 0x57ba <_ZN8ns_rs2328String_PEPKc>
		ns_rs232::DigitZ(3, ns_vg::nTube + 1 );
    104e:	40 91 ff 01 	lds	r20, 0x01FF	; 0x8001ff <_ZN5ns_vg5nTubeE>
    1052:	50 91 00 02 	lds	r21, 0x0200	; 0x800200 <_ZN5ns_vg5nTubeE+0x1>
    1056:	4f 5f       	subi	r20, 0xFF	; 255
    1058:	5f 4f       	sbci	r21, 0xFF	; 255
    105a:	60 e0       	ldi	r22, 0x00	; 0
    105c:	70 e0       	ldi	r23, 0x00	; 0
    105e:	83 e0       	ldi	r24, 0x03	; 3
    1060:	0e 94 ed 2b 	call	0x57da	; 0x57da <_ZN8ns_rs2326DigitZEhl>
		ns_rs232::String_P(PSTR("; L=") );
    1064:	84 ed       	ldi	r24, 0xD4	; 212
    1066:	90 e0       	ldi	r25, 0x00	; 0
    1068:	0e 94 dd 2b 	call	0x57ba	; 0x57ba <_ZN8ns_rs2328String_PEPKc>
		ns_rs232::DigitZ(5, dlina );
    106c:	ae 01       	movw	r20, r28
    106e:	60 e0       	ldi	r22, 0x00	; 0
    1070:	70 e0       	ldi	r23, 0x00	; 0
    1072:	85 e0       	ldi	r24, 0x05	; 5
    1074:	0e 94 ed 2b 	call	0x57da	; 0x57da <_ZN8ns_rs2326DigitZEhl>
		ns_rs232::String_P(PSTR("\r\n") );
    1078:	81 ed       	ldi	r24, 0xD1	; 209
    107a:	90 e0       	ldi	r25, 0x00	; 0
    107c:	0e 94 dd 2b 	call	0x57ba	; 0x57ba <_ZN8ns_rs2328String_PEPKc>
    1080:	c2 ef       	ldi	r28, 0xF2	; 242
    1082:	dc e0       	ldi	r29, 0x0C	; 12
    1084:	0f 2e       	mov	r0, r31
    1086:	fc ef       	ldi	r31, 0xFC	; 252
    1088:	af 2e       	mov	r10, r31
    108a:	fc e0       	ldi	r31, 0x0C	; 12
    108c:	bf 2e       	mov	r11, r31
    108e:	f0 2d       	mov	r31, r0
		for (uint8_t i=0; i<5; i++) { ns_rs232::DigitZ(8, eeprom_read_word(&ns_vg::eeDistance[i]) ); ns_rs232::SendByte(' '); }
    1090:	ce 01       	movw	r24, r28
    1092:	0e 94 95 2f 	call	0x5f2a	; 0x5f2a <eeprom_read_word>
    1096:	ac 01       	movw	r20, r24
    1098:	60 e0       	ldi	r22, 0x00	; 0
    109a:	70 e0       	ldi	r23, 0x00	; 0
    109c:	88 e0       	ldi	r24, 0x08	; 8
    109e:	0e 94 ed 2b 	call	0x57da	; 0x57da <_ZN8ns_rs2326DigitZEhl>
    10a2:	80 e2       	ldi	r24, 0x20	; 32
    10a4:	0e 94 ae 2b 	call	0x575c	; 0x575c <_ZN8ns_rs2328SendByteEh>
    10a8:	22 96       	adiw	r28, 0x02	; 2
    10aa:	ca 15       	cp	r28, r10
    10ac:	db 05       	cpc	r29, r11
    10ae:	81 f7       	brne	.-32     	; 0x1090 <_ZN7ns_line8sendTeleEjajj+0x64>
		ns_rs232::String_P(PSTR("\r\n") );
    10b0:	8e ec       	ldi	r24, 0xCE	; 206
    10b2:	90 e0       	ldi	r25, 0x00	; 0
    10b4:	0e 94 dd 2b 	call	0x57ba	; 0x57ba <_ZN8ns_rs2328String_PEPKc>
    10b8:	c0 e0       	ldi	r28, 0x00	; 0
    10ba:	d0 e0       	ldi	r29, 0x00	; 0
		// 
		for (uint8_t i=0; i<5; i++) { ns_rs232::DigitZ(8, times[i][0] ); ns_rs232::SendByte(' '); }
    10bc:	fe 01       	movw	r30, r28
    10be:	ee 0f       	add	r30, r30
    10c0:	ff 1f       	adc	r31, r31
    10c2:	ee 0f       	add	r30, r30
    10c4:	ff 1f       	adc	r31, r31
    10c6:	ee 0f       	add	r30, r30
    10c8:	ff 1f       	adc	r31, r31
    10ca:	ed 5a       	subi	r30, 0xAD	; 173
    10cc:	fe 4f       	sbci	r31, 0xFE	; 254
    10ce:	40 81       	ld	r20, Z
    10d0:	51 81       	ldd	r21, Z+1	; 0x01
    10d2:	62 81       	ldd	r22, Z+2	; 0x02
    10d4:	73 81       	ldd	r23, Z+3	; 0x03
    10d6:	88 e0       	ldi	r24, 0x08	; 8
    10d8:	0e 94 ed 2b 	call	0x57da	; 0x57da <_ZN8ns_rs2326DigitZEhl>
    10dc:	80 e2       	ldi	r24, 0x20	; 32
    10de:	0e 94 ae 2b 	call	0x575c	; 0x575c <_ZN8ns_rs2328SendByteEh>
    10e2:	21 96       	adiw	r28, 0x01	; 1
    10e4:	c5 30       	cpi	r28, 0x05	; 5
    10e6:	d1 05       	cpc	r29, r1
    10e8:	49 f7       	brne	.-46     	; 0x10bc <_ZN7ns_line8sendTeleEjajj+0x90>
		ns_rs232::String_P(PSTR("\r\n") );
    10ea:	8b ec       	ldi	r24, 0xCB	; 203
    10ec:	90 e0       	ldi	r25, 0x00	; 0
    10ee:	0e 94 dd 2b 	call	0x57ba	; 0x57ba <_ZN8ns_rs2328String_PEPKc>
    10f2:	c0 e0       	ldi	r28, 0x00	; 0
    10f4:	d0 e0       	ldi	r29, 0x00	; 0
		// 
		for (uint8_t i=0; i<5; i++) { ns_rs232::DigitZ(8, times[i][1] ); ns_rs232::SendByte(' '); }
    10f6:	fe 01       	movw	r30, r28
    10f8:	ee 0f       	add	r30, r30
    10fa:	ff 1f       	adc	r31, r31
    10fc:	ee 0f       	add	r30, r30
    10fe:	ff 1f       	adc	r31, r31
    1100:	ee 0f       	add	r30, r30
    1102:	ff 1f       	adc	r31, r31
    1104:	ed 5a       	subi	r30, 0xAD	; 173
    1106:	fe 4f       	sbci	r31, 0xFE	; 254
    1108:	44 81       	ldd	r20, Z+4	; 0x04
    110a:	55 81       	ldd	r21, Z+5	; 0x05
    110c:	66 81       	ldd	r22, Z+6	; 0x06
    110e:	77 81       	ldd	r23, Z+7	; 0x07
    1110:	88 e0       	ldi	r24, 0x08	; 8
    1112:	0e 94 ed 2b 	call	0x57da	; 0x57da <_ZN8ns_rs2326DigitZEhl>
    1116:	80 e2       	ldi	r24, 0x20	; 32
    1118:	0e 94 ae 2b 	call	0x575c	; 0x575c <_ZN8ns_rs2328SendByteEh>
    111c:	21 96       	adiw	r28, 0x01	; 1
    111e:	c5 30       	cpi	r28, 0x05	; 5
    1120:	d1 05       	cpc	r29, r1
    1122:	49 f7       	brne	.-46     	; 0x10f6 <_ZN7ns_line8sendTeleEjajj+0xca>
		ns_rs232::String_P(PSTR("\r\nsqBase=") );
    1124:	81 ec       	ldi	r24, 0xC1	; 193
    1126:	90 e0       	ldi	r25, 0x00	; 0
    1128:	0e 94 dd 2b 	call	0x57ba	; 0x57ba <_ZN8ns_rs2328String_PEPKc>
		//uint8_t sqB;
		if (sqBas<0)
    112c:	dd 20       	and	r13, r13
    112e:	8c f4       	brge	.+34     	; 0x1152 <__stack+0x53>
		{
			ns_rs232::SendByte('-');
    1130:	8d e2       	ldi	r24, 0x2D	; 45
    1132:	0e 94 ae 2b 	call	0x575c	; 0x575c <_ZN8ns_rs2328SendByteEh>
			ns_rs232::DigitZ(2, -sqBas);
    1136:	8d 2d       	mov	r24, r13
    1138:	99 27       	eor	r25, r25
    113a:	81 95       	neg	r24
    113c:	0c f4       	brge	.+2      	; 0x1140 <__stack+0x41>
    113e:	90 95       	com	r25
    1140:	ac 01       	movw	r20, r24
    1142:	05 2e       	mov	r0, r21
    1144:	00 0c       	add	r0, r0
    1146:	66 0b       	sbc	r22, r22
    1148:	77 0b       	sbc	r23, r23
    114a:	82 e0       	ldi	r24, 0x02	; 2
    114c:	0e 94 ed 2b 	call	0x57da	; 0x57da <_ZN8ns_rs2326DigitZEhl>
    1150:	0b c0       	rjmp	.+22     	; 0x1168 <__stack+0x69>
			//sqB = -sqBas;
		}
		else
		{
			ns_rs232::SendByte(' ');
    1152:	80 e2       	ldi	r24, 0x20	; 32
    1154:	0e 94 ae 2b 	call	0x575c	; 0x575c <_ZN8ns_rs2328SendByteEh>
			ns_rs232::DigitZ(2, sqBas);
    1158:	4d 2d       	mov	r20, r13
    115a:	dd 0c       	add	r13, r13
    115c:	55 0b       	sbc	r21, r21
    115e:	66 0b       	sbc	r22, r22
    1160:	77 0b       	sbc	r23, r23
    1162:	82 e0       	ldi	r24, 0x02	; 2
    1164:	0e 94 ed 2b 	call	0x57da	; 0x57da <_ZN8ns_rs2326DigitZEhl>
			//sqB = sqBas;
		}
		ns_rs232::String_P(PSTR(" exN="));
    1168:	8b eb       	ldi	r24, 0xBB	; 187
    116a:	90 e0       	ldi	r25, 0x00	; 0
    116c:	0e 94 dd 2b 	call	0x57ba	; 0x57ba <_ZN8ns_rs2328String_PEPKc>
		ns_rs232::DigitZ(2, ns_vg::exN);
    1170:	40 91 f9 01 	lds	r20, 0x01F9	; 0x8001f9 <_ZN5ns_vg3exNE>
    1174:	50 e0       	ldi	r21, 0x00	; 0
    1176:	60 e0       	ldi	r22, 0x00	; 0
    1178:	70 e0       	ldi	r23, 0x00	; 0
    117a:	82 e0       	ldi	r24, 0x02	; 2
    117c:	0e 94 ed 2b 	call	0x57da	; 0x57da <_ZN8ns_rs2326DigitZEhl>
		ns_rs232::String_P(PSTR(" SpeedCor="));
    1180:	80 eb       	ldi	r24, 0xB0	; 176
    1182:	90 e0       	ldi	r25, 0x00	; 0
    1184:	0e 94 dd 2b 	call	0x57ba	; 0x57ba <_ZN8ns_rs2328String_PEPKc>
		ns_rs232::DigitZ(4, (int8_t)eeprom_read_byte(&ns_vg::eeCorSpeed) );
    1188:	8d ee       	ldi	r24, 0xED	; 237
    118a:	9c e0       	ldi	r25, 0x0C	; 12
    118c:	0e 94 8d 2f 	call	0x5f1a	; 0x5f1a <eeprom_read_byte>
    1190:	48 2f       	mov	r20, r24
    1192:	88 0f       	add	r24, r24
    1194:	55 0b       	sbc	r21, r21
    1196:	66 0b       	sbc	r22, r22
    1198:	77 0b       	sbc	r23, r23
    119a:	84 e0       	ldi	r24, 0x04	; 4
    119c:	0e 94 ed 2b 	call	0x57da	; 0x57da <_ZN8ns_rs2326DigitZEhl>
		ns_rs232::String_P(PSTR(" Base="));
    11a0:	89 ea       	ldi	r24, 0xA9	; 169
    11a2:	90 e0       	ldi	r25, 0x00	; 0
    11a4:	0e 94 dd 2b 	call	0x57ba	; 0x57ba <_ZN8ns_rs2328String_PEPKc>
		ns_rs232::DigitZ(5, base);
    11a8:	a7 01       	movw	r20, r14
    11aa:	60 e0       	ldi	r22, 0x00	; 0
    11ac:	70 e0       	ldi	r23, 0x00	; 0
    11ae:	85 e0       	ldi	r24, 0x05	; 5
    11b0:	0e 94 ed 2b 	call	0x57da	; 0x57da <_ZN8ns_rs2326DigitZEhl>
		ns_rs232::String_P(PSTR(" exL="));
    11b4:	83 ea       	ldi	r24, 0xA3	; 163
    11b6:	90 e0       	ldi	r25, 0x00	; 0
    11b8:	0e 94 dd 2b 	call	0x57ba	; 0x57ba <_ZN8ns_rs2328String_PEPKc>
		ns_rs232::DigitZ(5, exL);
    11bc:	a8 01       	movw	r20, r16
    11be:	60 e0       	ldi	r22, 0x00	; 0
    11c0:	70 e0       	ldi	r23, 0x00	; 0
    11c2:	85 e0       	ldi	r24, 0x05	; 5
    11c4:	0e 94 ed 2b 	call	0x57da	; 0x57da <_ZN8ns_rs2326DigitZEhl>

		//
		ns_rs232::String_P(PSTR("\r\n") );
    11c8:	80 ea       	ldi	r24, 0xA0	; 160
    11ca:	90 e0       	ldi	r25, 0x00	; 0
    11cc:	0e 94 dd 2b 	call	0x57ba	; 0x57ba <_ZN8ns_rs2328String_PEPKc>
		ns_rs232::String_P(PSTR("\r\n") );
    11d0:	8d e9       	ldi	r24, 0x9D	; 157
    11d2:	90 e0       	ldi	r25, 0x00	; 0
    11d4:	0e 94 dd 2b 	call	0x57ba	; 0x57ba <_ZN8ns_rs2328String_PEPKc>
	}
    11d8:	df 91       	pop	r29
    11da:	cf 91       	pop	r28
    11dc:	1f 91       	pop	r17
    11de:	0f 91       	pop	r16
    11e0:	ff 90       	pop	r15
    11e2:	ef 90       	pop	r14
    11e4:	df 90       	pop	r13
    11e6:	bf 90       	pop	r11
    11e8:	af 90       	pop	r10
    11ea:	08 95       	ret

000011ec <_ZN7ns_line6RenderEPjPa>:
	//
	uint8_t Render(uint16_t* dlina, int8_t* sqBas)
	{
    11ec:	2f 92       	push	r2
    11ee:	3f 92       	push	r3
    11f0:	4f 92       	push	r4
    11f2:	5f 92       	push	r5
    11f4:	6f 92       	push	r6
    11f6:	7f 92       	push	r7
    11f8:	8f 92       	push	r8
    11fa:	9f 92       	push	r9
    11fc:	af 92       	push	r10
    11fe:	bf 92       	push	r11
    1200:	cf 92       	push	r12
    1202:	df 92       	push	r13
    1204:	ef 92       	push	r14
    1206:	ff 92       	push	r15
    1208:	0f 93       	push	r16
    120a:	1f 93       	push	r17
    120c:	cf 93       	push	r28
    120e:	df 93       	push	r29
    1210:	cd b7       	in	r28, 0x3d	; 61
    1212:	de b7       	in	r29, 0x3e	; 62
    1214:	e6 97       	sbiw	r28, 0x36	; 54
    1216:	0f b6       	in	r0, 0x3f	; 63
    1218:	f8 94       	cli
    121a:	de bf       	out	0x3e, r29	; 62
    121c:	0f be       	out	0x3f, r0	; 63
    121e:	cd bf       	out	0x3d, r28	; 61
		if (mode != 0) return 0; // no render mode
    1220:	b0 90 10 01 	lds	r11, 0x0110	; 0x800110 <_ZN7ns_line4modeE>
    1224:	b1 10       	cpse	r11, r1
    1226:	94 c7       	rjmp	.+3880   	; 0x2150 <_ZN7ns_line6RenderEPjPa+0xf64>
    1228:	3b 01       	movw	r6, r22
    122a:	4c 01       	movw	r8, r24
    122c:	0f 2e       	mov	r0, r31
    122e:	f2 ef       	ldi	r31, 0xF2	; 242
    1230:	ef 2e       	mov	r14, r31
    1232:	fc e0       	ldi	r31, 0x0C	; 12
    1234:	ff 2e       	mov	r15, r31
    1236:	f0 2d       	mov	r31, r0
    1238:	06 e0       	ldi	r16, 0x06	; 6
    123a:	11 e0       	ldi	r17, 0x01	; 1
    123c:	0f 2e       	mov	r0, r31
    123e:	f0 e1       	ldi	r31, 0x10	; 16
    1240:	cf 2e       	mov	r12, r31
    1242:	f1 e0       	ldi	r31, 0x01	; 1
    1244:	df 2e       	mov	r13, r31
    1246:	f0 2d       	mov	r31, r0
		
		// load distance
		for (uint8_t i=0; i<5; i++)
			distance[i] = eeprom_read_word(&ns_vg::eeDistance[i]);
    1248:	c7 01       	movw	r24, r14
    124a:	0e 94 95 2f 	call	0x5f2a	; 0x5f2a <eeprom_read_word>
    124e:	d8 01       	movw	r26, r16
    1250:	8d 93       	st	X+, r24
    1252:	9d 93       	st	X+, r25
    1254:	8d 01       	movw	r16, r26
    1256:	b2 e0       	ldi	r27, 0x02	; 2
    1258:	eb 0e       	add	r14, r27
    125a:	f1 1c       	adc	r15, r1
	uint8_t Render(uint16_t* dlina, int8_t* sqBas)
	{
		if (mode != 0) return 0; // no render mode
		
		// load distance
		for (uint8_t i=0; i<5; i++)
    125c:	0c 15       	cp	r16, r12
    125e:	1d 05       	cpc	r17, r13
    1260:	99 f7       	brne	.-26     	; 0x1248 <_ZN7ns_line6RenderEPjPa+0x5c>
		volatile uint16_t	exLen;
		volatile uint16_t  sampleD;
		volatile uint32_t sampleT;
		volatile uint32_t extendT;
		// sample for render (d1-d2)
		sampleD = distance[1] - distance[0] + (int8_t)( eeprom_read_byte(&ns_vg::eeCorSpeed) );
    1262:	e6 e0       	ldi	r30, 0x06	; 6
    1264:	f1 e0       	ldi	r31, 0x01	; 1
    1266:	e2 80       	ldd	r14, Z+2	; 0x02
    1268:	f3 80       	ldd	r15, Z+3	; 0x03
    126a:	c0 80       	ld	r12, Z
    126c:	d1 80       	ldd	r13, Z+1	; 0x01
    126e:	87 01       	movw	r16, r14
    1270:	0c 19       	sub	r16, r12
    1272:	1d 09       	sbc	r17, r13
    1274:	8d ee       	ldi	r24, 0xED	; 237
    1276:	9c e0       	ldi	r25, 0x0C	; 12
    1278:	0e 94 8d 2f 	call	0x5f1a	; 0x5f1a <eeprom_read_byte>
    127c:	08 0f       	add	r16, r24
    127e:	11 1d       	adc	r17, r1
    1280:	87 fd       	sbrc	r24, 7
    1282:	1a 95       	dec	r17
    1284:	1e a3       	std	Y+38, r17	; 0x26
    1286:	0d a3       	std	Y+37, r16	; 0x25
		sampleT = times[1][1] - times[0][1];
    1288:	e3 e5       	ldi	r30, 0x53	; 83
    128a:	f1 e0       	ldi	r31, 0x01	; 1
    128c:	84 85       	ldd	r24, Z+12	; 0x0c
    128e:	95 85       	ldd	r25, Z+13	; 0x0d
    1290:	a6 85       	ldd	r26, Z+14	; 0x0e
    1292:	b7 85       	ldd	r27, Z+15	; 0x0f
    1294:	44 81       	ldd	r20, Z+4	; 0x04
    1296:	55 81       	ldd	r21, Z+5	; 0x05
    1298:	66 81       	ldd	r22, Z+6	; 0x06
    129a:	77 81       	ldd	r23, Z+7	; 0x07
    129c:	84 1b       	sub	r24, r20
    129e:	95 0b       	sbc	r25, r21
    12a0:	a6 0b       	sbc	r26, r22
    12a2:	b7 0b       	sbc	r27, r23
    12a4:	89 a3       	std	Y+33, r24	; 0x21
    12a6:	9a a3       	std	Y+34, r25	; 0x22
    12a8:	ab a3       	std	Y+35, r26	; 0x23
    12aa:	bc a3       	std	Y+36, r27	; 0x24
		//
		if ( times[2][0] >= times[1][1] )
    12ac:	40 89       	ldd	r20, Z+16	; 0x10
    12ae:	51 89       	ldd	r21, Z+17	; 0x11
    12b0:	62 89       	ldd	r22, Z+18	; 0x12
    12b2:	73 89       	ldd	r23, Z+19	; 0x13
    12b4:	84 85       	ldd	r24, Z+12	; 0x0c
    12b6:	95 85       	ldd	r25, Z+13	; 0x0d
    12b8:	a6 85       	ldd	r26, Z+14	; 0x0e
    12ba:	b7 85       	ldd	r27, Z+15	; 0x0f
    12bc:	48 17       	cp	r20, r24
    12be:	59 07       	cpc	r21, r25
    12c0:	6a 07       	cpc	r22, r26
    12c2:	7b 07       	cpc	r23, r27
    12c4:	08 f4       	brcc	.+2      	; 0x12c8 <_ZN7ns_line6RenderEPjPa+0xdc>
    12c6:	83 c0       	rjmp	.+262    	; 0x13ce <_ZN7ns_line6RenderEPjPa+0x1e2>
		{	// tube small d2-d3
			base = distance[2] - distance[1];
    12c8:	80 91 0a 01 	lds	r24, 0x010A	; 0x80010a <_ZN7ns_line8distanceE+0x4>
    12cc:	90 91 0b 01 	lds	r25, 0x010B	; 0x80010b <_ZN7ns_line8distanceE+0x5>
    12d0:	8e 19       	sub	r24, r14
    12d2:	9f 09       	sbc	r25, r15
    12d4:	9a a7       	std	Y+42, r25	; 0x2a
    12d6:	89 a7       	std	Y+41, r24	; 0x29
			extendT = times[2][0] - times[1][1]; // !!! time < 0
    12d8:	80 89       	ldd	r24, Z+16	; 0x10
    12da:	91 89       	ldd	r25, Z+17	; 0x11
    12dc:	a2 89       	ldd	r26, Z+18	; 0x12
    12de:	b3 89       	ldd	r27, Z+19	; 0x13
    12e0:	44 85       	ldd	r20, Z+12	; 0x0c
    12e2:	55 85       	ldd	r21, Z+13	; 0x0d
    12e4:	66 85       	ldd	r22, Z+14	; 0x0e
    12e6:	77 85       	ldd	r23, Z+15	; 0x0f
    12e8:	84 1b       	sub	r24, r20
    12ea:	95 0b       	sbc	r25, r21
    12ec:	a6 0b       	sbc	r26, r22
    12ee:	b7 0b       	sbc	r27, r23
    12f0:	8d 8f       	std	Y+29, r24	; 0x1d
    12f2:	9e 8f       	std	Y+30, r25	; 0x1e
    12f4:	af 8f       	std	Y+31, r26	; 0x1f
    12f6:	b8 a3       	std	Y+32, r27	; 0x20
			exLen = (uint16_t)( ((uint64_t)extendT) * ((uint64_t)sampleD) / ((uint64_t)sampleT) );
    12f8:	0d 8d       	ldd	r16, Y+29	; 0x1d
    12fa:	1e 8d       	ldd	r17, Y+30	; 0x1e
    12fc:	2f 8d       	ldd	r18, Y+31	; 0x1f
    12fe:	38 a1       	ldd	r19, Y+32	; 0x20
    1300:	ed a1       	ldd	r30, Y+37	; 0x25
    1302:	fe a1       	ldd	r31, Y+38	; 0x26
    1304:	29 a0       	ldd	r2, Y+33	; 0x21
    1306:	3a a0       	ldd	r3, Y+34	; 0x22
    1308:	4b a0       	ldd	r4, Y+35	; 0x23
    130a:	5c a0       	ldd	r5, Y+36	; 0x24
    130c:	af 01       	movw	r20, r30
    130e:	60 e0       	ldi	r22, 0x00	; 0
    1310:	70 e0       	ldi	r23, 0x00	; 0
    1312:	80 e0       	ldi	r24, 0x00	; 0
    1314:	90 e0       	ldi	r25, 0x00	; 0
    1316:	dc 01       	movw	r26, r24
    1318:	ec a7       	std	Y+44, r30	; 0x2c
    131a:	5d a7       	std	Y+45, r21	; 0x2d
    131c:	6e a7       	std	Y+46, r22	; 0x2e
    131e:	7f a7       	std	Y+47, r23	; 0x2f
    1320:	88 ab       	std	Y+48, r24	; 0x30
    1322:	99 ab       	std	Y+49, r25	; 0x31
    1324:	aa ab       	std	Y+50, r26	; 0x32
    1326:	bb ab       	std	Y+51, r27	; 0x33
    1328:	a0 2e       	mov	r10, r16
    132a:	b1 2e       	mov	r11, r17
    132c:	c2 2e       	mov	r12, r18
    132e:	d3 2e       	mov	r13, r19
    1330:	e1 2c       	mov	r14, r1
    1332:	f1 2c       	mov	r15, r1
    1334:	00 e0       	ldi	r16, 0x00	; 0
    1336:	10 e0       	ldi	r17, 0x00	; 0
    1338:	2c a5       	ldd	r18, Y+44	; 0x2c
    133a:	3d a5       	ldd	r19, Y+45	; 0x2d
    133c:	40 e0       	ldi	r20, 0x00	; 0
    133e:	50 e0       	ldi	r21, 0x00	; 0
    1340:	60 e0       	ldi	r22, 0x00	; 0
    1342:	70 e0       	ldi	r23, 0x00	; 0
    1344:	80 e0       	ldi	r24, 0x00	; 0
    1346:	90 e0       	ldi	r25, 0x00	; 0
    1348:	0e 94 ff 2c 	call	0x59fe	; 0x59fe <__muldi3>
    134c:	62 01       	movw	r12, r4
    134e:	51 01       	movw	r10, r2
    1350:	e1 2c       	mov	r14, r1
    1352:	f1 2c       	mov	r15, r1
    1354:	87 01       	movw	r16, r14
    1356:	2c a6       	std	Y+44, r2	; 0x2c
    1358:	bd a6       	std	Y+45, r11	; 0x2d
    135a:	ce a6       	std	Y+46, r12	; 0x2e
    135c:	df a6       	std	Y+47, r13	; 0x2f
    135e:	e8 aa       	std	Y+48, r14	; 0x30
    1360:	f9 aa       	std	Y+49, r15	; 0x31
    1362:	0a ab       	std	Y+50, r16	; 0x32
    1364:	1b ab       	std	Y+51, r17	; 0x33
    1366:	e1 2c       	mov	r14, r1
    1368:	f1 2c       	mov	r15, r1
    136a:	00 e0       	ldi	r16, 0x00	; 0
    136c:	10 e0       	ldi	r17, 0x00	; 0
    136e:	0e 94 52 2d 	call	0x5aa4	; 0x5aa4 <__udivdi3>
    1372:	82 2f       	mov	r24, r18
    1374:	93 2f       	mov	r25, r19
    1376:	98 a7       	std	Y+40, r25	; 0x28
    1378:	8f a3       	std	Y+39, r24	; 0x27
			*dlina = base - exLen;
    137a:	89 a5       	ldd	r24, Y+41	; 0x29
    137c:	9a a5       	ldd	r25, Y+42	; 0x2a
    137e:	2f a1       	ldd	r18, Y+39	; 0x27
    1380:	38 a5       	ldd	r19, Y+40	; 0x28
    1382:	82 1b       	sub	r24, r18
    1384:	93 0b       	sbc	r25, r19
    1386:	d4 01       	movw	r26, r8
    1388:	11 96       	adiw	r26, 0x01	; 1
    138a:	9c 93       	st	X, r25
    138c:	8e 93       	st	-X, r24
			ns_vg::lenTubuStat = 1;
    138e:	11 e0       	ldi	r17, 0x01	; 1
    1390:	10 93 fb 01 	sts	0x01FB, r17	; 0x8001fb <_ZN5ns_vg11lenTubuStatE>
			ns_vg::exN = 8;
    1394:	88 e0       	ldi	r24, 0x08	; 8
    1396:	80 93 f9 01 	sts	0x01F9, r24	; 0x8001f9 <_ZN5ns_vg3exNE>
			ns_vg::lenTubuExl = -exLen;
    139a:	8f a1       	ldd	r24, Y+39	; 0x27
    139c:	98 a5       	ldd	r25, Y+40	; 0x28
    139e:	91 95       	neg	r25
    13a0:	81 95       	neg	r24
    13a2:	91 09       	sbc	r25, r1
    13a4:	90 93 fe 01 	sts	0x01FE, r25	; 0x8001fe <_ZN5ns_vg10lenTubuExlE+0x1>
    13a8:	80 93 fd 01 	sts	0x01FD, r24	; 0x8001fd <_ZN5ns_vg10lenTubuExlE>
			*sqBas = -12;
    13ac:	84 ef       	ldi	r24, 0xF4	; 244
    13ae:	f3 01       	movw	r30, r6
    13b0:	80 83       	st	Z, r24
			sendTele(*dlina, *sqBas, base, exLen);
    13b2:	2f a1       	ldd	r18, Y+39	; 0x27
    13b4:	38 a5       	ldd	r19, Y+40	; 0x28
    13b6:	49 a5       	ldd	r20, Y+41	; 0x29
    13b8:	5a a5       	ldd	r21, Y+42	; 0x2a
    13ba:	64 ef       	ldi	r22, 0xF4	; 244
    13bc:	8d 91       	ld	r24, X+
    13be:	9c 91       	ld	r25, X
    13c0:	35 de       	rcall	.-918    	; 0x102c <_ZN7ns_line8sendTeleEjajj>
			mode = 1;
    13c2:	10 93 10 01 	sts	0x0110, r17	; 0x800110 <_ZN7ns_line4modeE>
			return 1;
    13c6:	bb 24       	eor	r11, r11
    13c8:	b3 94       	inc	r11
    13ca:	0c 94 98 12 	jmp	0x2530	; 0x2530 <_ZN7ns_line6RenderEPjPa+0x1344>
		}
		else
		if ( (times[0][1] >= times[4][0]) && (times[4][0] != 0) )
    13ce:	e3 e5       	ldi	r30, 0x53	; 83
    13d0:	f1 e0       	ldi	r31, 0x01	; 1
    13d2:	44 81       	ldd	r20, Z+4	; 0x04
    13d4:	55 81       	ldd	r21, Z+5	; 0x05
    13d6:	66 81       	ldd	r22, Z+6	; 0x06
    13d8:	77 81       	ldd	r23, Z+7	; 0x07
    13da:	80 a1       	ldd	r24, Z+32	; 0x20
    13dc:	91 a1       	ldd	r25, Z+33	; 0x21
    13de:	a2 a1       	ldd	r26, Z+34	; 0x22
    13e0:	b3 a1       	ldd	r27, Z+35	; 0x23
    13e2:	48 17       	cp	r20, r24
    13e4:	59 07       	cpc	r21, r25
    13e6:	6a 07       	cpc	r22, r26
    13e8:	7b 07       	cpc	r23, r27
    13ea:	08 f4       	brcc	.+2      	; 0x13ee <_ZN7ns_line6RenderEPjPa+0x202>
    13ec:	39 c7       	rjmp	.+3698   	; 0x2260 <_ZN7ns_line6RenderEPjPa+0x1074>
    13ee:	80 91 73 01 	lds	r24, 0x0173	; 0x800173 <_ZN7ns_line5timesE+0x20>
    13f2:	90 91 74 01 	lds	r25, 0x0174	; 0x800174 <_ZN7ns_line5timesE+0x21>
    13f6:	a0 91 75 01 	lds	r26, 0x0175	; 0x800175 <_ZN7ns_line5timesE+0x22>
    13fa:	b0 91 76 01 	lds	r27, 0x0176	; 0x800176 <_ZN7ns_line5timesE+0x23>
    13fe:	89 2b       	or	r24, r25
    1400:	8a 2b       	or	r24, r26
    1402:	8b 2b       	or	r24, r27
    1404:	09 f0       	breq	.+2      	; 0x1408 <_ZN7ns_line6RenderEPjPa+0x21c>
    1406:	a6 c6       	rjmp	.+3404   	; 0x2154 <_ZN7ns_line6RenderEPjPa+0xf68>
    1408:	2b c7       	rjmp	.+3670   	; 0x2260 <_ZN7ns_line6RenderEPjPa+0x1074>
		else
		{
			// find right sensor
			for (n = 2; n < 4; n++)
			{
				if ( times[n+1][0] == 0)
    140a:	eb a5       	ldd	r30, Y+43	; 0x2b
    140c:	f0 e0       	ldi	r31, 0x00	; 0
    140e:	ee 0f       	add	r30, r30
    1410:	ff 1f       	adc	r31, r31
    1412:	ee 0f       	add	r30, r30
    1414:	ff 1f       	adc	r31, r31
    1416:	ee 0f       	add	r30, r30
    1418:	ff 1f       	adc	r31, r31
    141a:	e5 5a       	subi	r30, 0xA5	; 165
    141c:	fe 4f       	sbci	r31, 0xFE	; 254
    141e:	80 81       	ld	r24, Z
    1420:	91 81       	ldd	r25, Z+1	; 0x01
    1422:	a2 81       	ldd	r26, Z+2	; 0x02
    1424:	b3 81       	ldd	r27, Z+3	; 0x03
    1426:	89 2b       	or	r24, r25
    1428:	8a 2b       	or	r24, r26
    142a:	8b 2b       	or	r24, r27
    142c:	a9 f0       	breq	.+42     	; 0x1458 <_ZN7ns_line6RenderEPjPa+0x26c>
				{
					n--;
					break;
				}
				if ( (times[1][1] >= times[n][0]) && (times[1][1] < times[n+1][0]) )
    142e:	a3 e5       	ldi	r26, 0x53	; 83
    1430:	b1 e0       	ldi	r27, 0x01	; 1
    1432:	16 c0       	rjmp	.+44     	; 0x1460 <_ZN7ns_line6RenderEPjPa+0x274>
		else
		{
			// find right sensor
			for (n = 2; n < 4; n++)
			{
				if ( times[n+1][0] == 0)
    1434:	eb a5       	ldd	r30, Y+43	; 0x2b
    1436:	f0 e0       	ldi	r31, 0x00	; 0
    1438:	ee 0f       	add	r30, r30
    143a:	ff 1f       	adc	r31, r31
    143c:	ee 0f       	add	r30, r30
    143e:	ff 1f       	adc	r31, r31
    1440:	ee 0f       	add	r30, r30
    1442:	ff 1f       	adc	r31, r31
    1444:	e5 5a       	subi	r30, 0xA5	; 165
    1446:	fe 4f       	sbci	r31, 0xFE	; 254
    1448:	40 81       	ld	r20, Z
    144a:	51 81       	ldd	r21, Z+1	; 0x01
    144c:	62 81       	ldd	r22, Z+2	; 0x02
    144e:	73 81       	ldd	r23, Z+3	; 0x03
    1450:	45 2b       	or	r20, r21
    1452:	46 2b       	or	r20, r22
    1454:	47 2b       	or	r20, r23
    1456:	21 f4       	brne	.+8      	; 0x1460 <_ZN7ns_line6RenderEPjPa+0x274>
				{
					n--;
    1458:	8b a5       	ldd	r24, Y+43	; 0x2b
    145a:	81 50       	subi	r24, 0x01	; 1
    145c:	8b a7       	std	Y+43, r24	; 0x2b
					break;
    145e:	06 c7       	rjmp	.+3596   	; 0x226c <_ZN7ns_line6RenderEPjPa+0x1080>
				}
				if ( (times[1][1] >= times[n][0]) && (times[1][1] < times[n+1][0]) )
    1460:	1c 96       	adiw	r26, 0x0c	; 12
    1462:	0d 91       	ld	r16, X+
    1464:	1d 91       	ld	r17, X+
    1466:	2d 91       	ld	r18, X+
    1468:	3c 91       	ld	r19, X
    146a:	1f 97       	sbiw	r26, 0x0f	; 15
    146c:	eb a5       	ldd	r30, Y+43	; 0x2b
    146e:	f0 e0       	ldi	r31, 0x00	; 0
    1470:	ee 0f       	add	r30, r30
    1472:	ff 1f       	adc	r31, r31
    1474:	ee 0f       	add	r30, r30
    1476:	ff 1f       	adc	r31, r31
    1478:	ee 0f       	add	r30, r30
    147a:	ff 1f       	adc	r31, r31
    147c:	ed 5a       	subi	r30, 0xAD	; 173
    147e:	fe 4f       	sbci	r31, 0xFE	; 254
    1480:	40 81       	ld	r20, Z
    1482:	51 81       	ldd	r21, Z+1	; 0x01
    1484:	62 81       	ldd	r22, Z+2	; 0x02
    1486:	73 81       	ldd	r23, Z+3	; 0x03
    1488:	04 17       	cp	r16, r20
    148a:	15 07       	cpc	r17, r21
    148c:	26 07       	cpc	r18, r22
    148e:	37 07       	cpc	r19, r23
    1490:	08 f4       	brcc	.+2      	; 0x1494 <_ZN7ns_line6RenderEPjPa+0x2a8>
    1492:	f6 c6       	rjmp	.+3564   	; 0x2280 <_ZN7ns_line6RenderEPjPa+0x1094>
    1494:	1c 96       	adiw	r26, 0x0c	; 12
    1496:	0d 91       	ld	r16, X+
    1498:	1d 91       	ld	r17, X+
    149a:	2d 91       	ld	r18, X+
    149c:	3c 91       	ld	r19, X
    149e:	1f 97       	sbiw	r26, 0x0f	; 15
    14a0:	eb a5       	ldd	r30, Y+43	; 0x2b
    14a2:	f0 e0       	ldi	r31, 0x00	; 0
    14a4:	ee 0f       	add	r30, r30
    14a6:	ff 1f       	adc	r31, r31
    14a8:	ee 0f       	add	r30, r30
    14aa:	ff 1f       	adc	r31, r31
    14ac:	ee 0f       	add	r30, r30
    14ae:	ff 1f       	adc	r31, r31
    14b0:	e5 5a       	subi	r30, 0xA5	; 165
    14b2:	fe 4f       	sbci	r31, 0xFE	; 254
    14b4:	40 81       	ld	r20, Z
    14b6:	51 81       	ldd	r21, Z+1	; 0x01
    14b8:	62 81       	ldd	r22, Z+2	; 0x02
    14ba:	73 81       	ldd	r23, Z+3	; 0x03
    14bc:	04 17       	cp	r16, r20
    14be:	15 07       	cpc	r17, r21
    14c0:	26 07       	cpc	r18, r22
    14c2:	37 07       	cpc	r19, r23
    14c4:	08 f0       	brcs	.+2      	; 0x14c8 <_ZN7ns_line6RenderEPjPa+0x2dc>
    14c6:	dc c6       	rjmp	.+3512   	; 0x2280 <_ZN7ns_line6RenderEPjPa+0x1094>
    14c8:	d1 c6       	rjmp	.+3490   	; 0x226c <_ZN7ns_line6RenderEPjPa+0x1080>
					break;
			}
			
			uint32_t ex[7];
			for (uint8_t i=0; i<7; i++) ex[i] = 99999;
    14ca:	41 93       	st	Z+, r20
    14cc:	51 93       	st	Z+, r21
    14ce:	61 93       	st	Z+, r22
    14d0:	71 93       	st	Z+, r23
    14d2:	e8 17       	cp	r30, r24
    14d4:	f9 07       	cpc	r31, r25
    14d6:	c9 f7       	brne	.-14     	; 0x14ca <_ZN7ns_line6RenderEPjPa+0x2de>
			uint8_t exN;
			
			// render all metod
			
			if ( (times[n][0] > times[0][1]) && (times[n][0] != 0) && (n < 5) )
    14d8:	eb a5       	ldd	r30, Y+43	; 0x2b
    14da:	f0 e0       	ldi	r31, 0x00	; 0
    14dc:	ee 0f       	add	r30, r30
    14de:	ff 1f       	adc	r31, r31
    14e0:	ee 0f       	add	r30, r30
    14e2:	ff 1f       	adc	r31, r31
    14e4:	ee 0f       	add	r30, r30
    14e6:	ff 1f       	adc	r31, r31
    14e8:	ed 5a       	subi	r30, 0xAD	; 173
    14ea:	fe 4f       	sbci	r31, 0xFE	; 254
    14ec:	00 81       	ld	r16, Z
    14ee:	11 81       	ldd	r17, Z+1	; 0x01
    14f0:	22 81       	ldd	r18, Z+2	; 0x02
    14f2:	33 81       	ldd	r19, Z+3	; 0x03
    14f4:	40 91 57 01 	lds	r20, 0x0157	; 0x800157 <_ZN7ns_line5timesE+0x4>
    14f8:	50 91 58 01 	lds	r21, 0x0158	; 0x800158 <_ZN7ns_line5timesE+0x5>
    14fc:	60 91 59 01 	lds	r22, 0x0159	; 0x800159 <_ZN7ns_line5timesE+0x6>
    1500:	70 91 5a 01 	lds	r23, 0x015A	; 0x80015a <_ZN7ns_line5timesE+0x7>
    1504:	40 17       	cp	r20, r16
    1506:	51 07       	cpc	r21, r17
    1508:	62 07       	cpc	r22, r18
    150a:	73 07       	cpc	r23, r19
    150c:	08 f0       	brcs	.+2      	; 0x1510 <_ZN7ns_line6RenderEPjPa+0x324>
    150e:	e7 c6       	rjmp	.+3534   	; 0x22de <_ZN7ns_line6RenderEPjPa+0x10f2>
    1510:	eb a5       	ldd	r30, Y+43	; 0x2b
    1512:	f0 e0       	ldi	r31, 0x00	; 0
    1514:	ee 0f       	add	r30, r30
    1516:	ff 1f       	adc	r31, r31
    1518:	ee 0f       	add	r30, r30
    151a:	ff 1f       	adc	r31, r31
    151c:	ee 0f       	add	r30, r30
    151e:	ff 1f       	adc	r31, r31
    1520:	ed 5a       	subi	r30, 0xAD	; 173
    1522:	fe 4f       	sbci	r31, 0xFE	; 254
    1524:	40 81       	ld	r20, Z
    1526:	51 81       	ldd	r21, Z+1	; 0x01
    1528:	62 81       	ldd	r22, Z+2	; 0x02
    152a:	73 81       	ldd	r23, Z+3	; 0x03
    152c:	45 2b       	or	r20, r21
    152e:	46 2b       	or	r20, r22
    1530:	47 2b       	or	r20, r23
    1532:	09 f4       	brne	.+2      	; 0x1536 <_ZN7ns_line6RenderEPjPa+0x34a>
    1534:	d4 c6       	rjmp	.+3496   	; 0x22de <_ZN7ns_line6RenderEPjPa+0x10f2>
    1536:	8b a5       	ldd	r24, Y+43	; 0x2b
    1538:	85 30       	cpi	r24, 0x05	; 5
    153a:	08 f4       	brcc	.+2      	; 0x153e <_ZN7ns_line6RenderEPjPa+0x352>
    153c:	a9 c6       	rjmp	.+3410   	; 0x2290 <_ZN7ns_line6RenderEPjPa+0x10a4>
    153e:	cf c6       	rjmp	.+3486   	; 0x22de <_ZN7ns_line6RenderEPjPa+0x10f2>
						extendT = times[n][0] - times[0][1];		// 1920 = -20	base[n-0]		- ex	:	n-0
						ex[0] = extendT;
					}
			else    ex[0] = 99999;
			
			if ( (times[0][1] >= times[n][0]) && (times[n][0] != 0) && (n < 5) )
    1540:	00 91 57 01 	lds	r16, 0x0157	; 0x800157 <_ZN7ns_line5timesE+0x4>
    1544:	10 91 58 01 	lds	r17, 0x0158	; 0x800158 <_ZN7ns_line5timesE+0x5>
    1548:	20 91 59 01 	lds	r18, 0x0159	; 0x800159 <_ZN7ns_line5timesE+0x6>
    154c:	30 91 5a 01 	lds	r19, 0x015A	; 0x80015a <_ZN7ns_line5timesE+0x7>
    1550:	eb a5       	ldd	r30, Y+43	; 0x2b
    1552:	f0 e0       	ldi	r31, 0x00	; 0
    1554:	ee 0f       	add	r30, r30
    1556:	ff 1f       	adc	r31, r31
    1558:	ee 0f       	add	r30, r30
    155a:	ff 1f       	adc	r31, r31
    155c:	ee 0f       	add	r30, r30
    155e:	ff 1f       	adc	r31, r31
    1560:	ed 5a       	subi	r30, 0xAD	; 173
    1562:	fe 4f       	sbci	r31, 0xFE	; 254
    1564:	40 81       	ld	r20, Z
    1566:	51 81       	ldd	r21, Z+1	; 0x01
    1568:	62 81       	ldd	r22, Z+2	; 0x02
    156a:	73 81       	ldd	r23, Z+3	; 0x03
    156c:	04 17       	cp	r16, r20
    156e:	15 07       	cpc	r17, r21
    1570:	26 07       	cpc	r18, r22
    1572:	37 07       	cpc	r19, r23
    1574:	08 f4       	brcc	.+2      	; 0x1578 <_ZN7ns_line6RenderEPjPa+0x38c>
    1576:	e3 c6       	rjmp	.+3526   	; 0x233e <_ZN7ns_line6RenderEPjPa+0x1152>
    1578:	eb a5       	ldd	r30, Y+43	; 0x2b
    157a:	f0 e0       	ldi	r31, 0x00	; 0
    157c:	ee 0f       	add	r30, r30
    157e:	ff 1f       	adc	r31, r31
    1580:	ee 0f       	add	r30, r30
    1582:	ff 1f       	adc	r31, r31
    1584:	ee 0f       	add	r30, r30
    1586:	ff 1f       	adc	r31, r31
    1588:	ed 5a       	subi	r30, 0xAD	; 173
    158a:	fe 4f       	sbci	r31, 0xFE	; 254
    158c:	40 81       	ld	r20, Z
    158e:	51 81       	ldd	r21, Z+1	; 0x01
    1590:	62 81       	ldd	r22, Z+2	; 0x02
    1592:	73 81       	ldd	r23, Z+3	; 0x03
    1594:	45 2b       	or	r20, r21
    1596:	46 2b       	or	r20, r22
    1598:	47 2b       	or	r20, r23
    159a:	09 f4       	brne	.+2      	; 0x159e <_ZN7ns_line6RenderEPjPa+0x3b2>
    159c:	d0 c6       	rjmp	.+3488   	; 0x233e <_ZN7ns_line6RenderEPjPa+0x1152>
    159e:	8b a5       	ldd	r24, Y+43	; 0x2b
    15a0:	85 30       	cpi	r24, 0x05	; 5
    15a2:	08 f4       	brcc	.+2      	; 0x15a6 <_ZN7ns_line6RenderEPjPa+0x3ba>
    15a4:	a5 c6       	rjmp	.+3402   	; 0x22f0 <_ZN7ns_line6RenderEPjPa+0x1104>
    15a6:	cb c6       	rjmp	.+3478   	; 0x233e <_ZN7ns_line6RenderEPjPa+0x1152>
						extendT = times[0][1] - times[n][0];		// 2013 = +12	base[n-0]		+ ex	:	0-n
						ex[1] = extendT;
					}
			else	ex[1] = 99999;
			
			if ( (times[0][1] >= times[n+1][0]) && (times[n+1][0] != 0) && ((n + 1) < 5) )
    15a8:	00 91 57 01 	lds	r16, 0x0157	; 0x800157 <_ZN7ns_line5timesE+0x4>
    15ac:	10 91 58 01 	lds	r17, 0x0158	; 0x800158 <_ZN7ns_line5timesE+0x5>
    15b0:	20 91 59 01 	lds	r18, 0x0159	; 0x800159 <_ZN7ns_line5timesE+0x6>
    15b4:	30 91 5a 01 	lds	r19, 0x015A	; 0x80015a <_ZN7ns_line5timesE+0x7>
    15b8:	eb a5       	ldd	r30, Y+43	; 0x2b
    15ba:	f0 e0       	ldi	r31, 0x00	; 0
    15bc:	ee 0f       	add	r30, r30
    15be:	ff 1f       	adc	r31, r31
    15c0:	ee 0f       	add	r30, r30
    15c2:	ff 1f       	adc	r31, r31
    15c4:	ee 0f       	add	r30, r30
    15c6:	ff 1f       	adc	r31, r31
    15c8:	e5 5a       	subi	r30, 0xA5	; 165
    15ca:	fe 4f       	sbci	r31, 0xFE	; 254
    15cc:	40 81       	ld	r20, Z
    15ce:	51 81       	ldd	r21, Z+1	; 0x01
    15d0:	62 81       	ldd	r22, Z+2	; 0x02
    15d2:	73 81       	ldd	r23, Z+3	; 0x03
    15d4:	04 17       	cp	r16, r20
    15d6:	15 07       	cpc	r17, r21
    15d8:	26 07       	cpc	r18, r22
    15da:	37 07       	cpc	r19, r23
    15dc:	08 f4       	brcc	.+2      	; 0x15e0 <_ZN7ns_line6RenderEPjPa+0x3f4>
    15de:	df c6       	rjmp	.+3518   	; 0x239e <_ZN7ns_line6RenderEPjPa+0x11b2>
    15e0:	eb a5       	ldd	r30, Y+43	; 0x2b
    15e2:	f0 e0       	ldi	r31, 0x00	; 0
    15e4:	ee 0f       	add	r30, r30
    15e6:	ff 1f       	adc	r31, r31
    15e8:	ee 0f       	add	r30, r30
    15ea:	ff 1f       	adc	r31, r31
    15ec:	ee 0f       	add	r30, r30
    15ee:	ff 1f       	adc	r31, r31
    15f0:	e5 5a       	subi	r30, 0xA5	; 165
    15f2:	fe 4f       	sbci	r31, 0xFE	; 254
    15f4:	40 81       	ld	r20, Z
    15f6:	51 81       	ldd	r21, Z+1	; 0x01
    15f8:	62 81       	ldd	r22, Z+2	; 0x02
    15fa:	73 81       	ldd	r23, Z+3	; 0x03
    15fc:	45 2b       	or	r20, r21
    15fe:	46 2b       	or	r20, r22
    1600:	47 2b       	or	r20, r23
    1602:	09 f4       	brne	.+2      	; 0x1606 <_ZN7ns_line6RenderEPjPa+0x41a>
    1604:	cc c6       	rjmp	.+3480   	; 0x239e <_ZN7ns_line6RenderEPjPa+0x11b2>
    1606:	8b a5       	ldd	r24, Y+43	; 0x2b
    1608:	90 e0       	ldi	r25, 0x00	; 0
    160a:	01 96       	adiw	r24, 0x01	; 1
    160c:	05 97       	sbiw	r24, 0x05	; 5
    160e:	0c f4       	brge	.+2      	; 0x1612 <_ZN7ns_line6RenderEPjPa+0x426>
    1610:	9f c6       	rjmp	.+3390   	; 0x2350 <_ZN7ns_line6RenderEPjPa+0x1164>
    1612:	c5 c6       	rjmp	.+3466   	; 0x239e <_ZN7ns_line6RenderEPjPa+0x11b2>
						extendT = times[0][1] - times[n+1][0];		// 2013 = +xx	base[(n+1)-0]	+ ex	:	0-(n+1)
						ex[5] = extendT;
					}
			else	ex[5] = 99999;

			if ( (times[1][1] >= times[n][0]) && (times[n][0] != 0) && (n < 5) )
    1614:	00 91 5f 01 	lds	r16, 0x015F	; 0x80015f <_ZN7ns_line5timesE+0xc>
    1618:	10 91 60 01 	lds	r17, 0x0160	; 0x800160 <_ZN7ns_line5timesE+0xd>
    161c:	20 91 61 01 	lds	r18, 0x0161	; 0x800161 <_ZN7ns_line5timesE+0xe>
    1620:	30 91 62 01 	lds	r19, 0x0162	; 0x800162 <_ZN7ns_line5timesE+0xf>
    1624:	eb a5       	ldd	r30, Y+43	; 0x2b
    1626:	f0 e0       	ldi	r31, 0x00	; 0
    1628:	ee 0f       	add	r30, r30
    162a:	ff 1f       	adc	r31, r31
    162c:	ee 0f       	add	r30, r30
    162e:	ff 1f       	adc	r31, r31
    1630:	ee 0f       	add	r30, r30
    1632:	ff 1f       	adc	r31, r31
    1634:	ed 5a       	subi	r30, 0xAD	; 173
    1636:	fe 4f       	sbci	r31, 0xFE	; 254
    1638:	40 81       	ld	r20, Z
    163a:	51 81       	ldd	r21, Z+1	; 0x01
    163c:	62 81       	ldd	r22, Z+2	; 0x02
    163e:	73 81       	ldd	r23, Z+3	; 0x03
    1640:	04 17       	cp	r16, r20
    1642:	15 07       	cpc	r17, r21
    1644:	26 07       	cpc	r18, r22
    1646:	37 07       	cpc	r19, r23
    1648:	08 f4       	brcc	.+2      	; 0x164c <_ZN7ns_line6RenderEPjPa+0x460>
    164a:	d9 c6       	rjmp	.+3506   	; 0x23fe <_ZN7ns_line6RenderEPjPa+0x1212>
    164c:	eb a5       	ldd	r30, Y+43	; 0x2b
    164e:	f0 e0       	ldi	r31, 0x00	; 0
    1650:	ee 0f       	add	r30, r30
    1652:	ff 1f       	adc	r31, r31
    1654:	ee 0f       	add	r30, r30
    1656:	ff 1f       	adc	r31, r31
    1658:	ee 0f       	add	r30, r30
    165a:	ff 1f       	adc	r31, r31
    165c:	ed 5a       	subi	r30, 0xAD	; 173
    165e:	fe 4f       	sbci	r31, 0xFE	; 254
    1660:	40 81       	ld	r20, Z
    1662:	51 81       	ldd	r21, Z+1	; 0x01
    1664:	62 81       	ldd	r22, Z+2	; 0x02
    1666:	73 81       	ldd	r23, Z+3	; 0x03
    1668:	45 2b       	or	r20, r21
    166a:	46 2b       	or	r20, r22
    166c:	47 2b       	or	r20, r23
    166e:	09 f4       	brne	.+2      	; 0x1672 <_ZN7ns_line6RenderEPjPa+0x486>
    1670:	c6 c6       	rjmp	.+3468   	; 0x23fe <_ZN7ns_line6RenderEPjPa+0x1212>
    1672:	8b a5       	ldd	r24, Y+43	; 0x2b
    1674:	85 30       	cpi	r24, 0x05	; 5
    1676:	08 f4       	brcc	.+2      	; 0x167a <_ZN7ns_line6RenderEPjPa+0x48e>
    1678:	9b c6       	rjmp	.+3382   	; 0x23b0 <_ZN7ns_line6RenderEPjPa+0x11c4>
    167a:	c1 c6       	rjmp	.+3458   	; 0x23fe <_ZN7ns_line6RenderEPjPa+0x1212>
						extendT = times[1][1] - times[n][0];		// 2013 = +512	base[n-1]		+ ex	:	1-n
						ex[2] = extendT;
					}
			else	ex[2] = 99999;

			if ( (times[1][1] >= times[n+1][0]) && (times[n+1][0] != 0) && ((n + 1) < 5) )
    167c:	00 91 5f 01 	lds	r16, 0x015F	; 0x80015f <_ZN7ns_line5timesE+0xc>
    1680:	10 91 60 01 	lds	r17, 0x0160	; 0x800160 <_ZN7ns_line5timesE+0xd>
    1684:	20 91 61 01 	lds	r18, 0x0161	; 0x800161 <_ZN7ns_line5timesE+0xe>
    1688:	30 91 62 01 	lds	r19, 0x0162	; 0x800162 <_ZN7ns_line5timesE+0xf>
    168c:	eb a5       	ldd	r30, Y+43	; 0x2b
    168e:	f0 e0       	ldi	r31, 0x00	; 0
    1690:	ee 0f       	add	r30, r30
    1692:	ff 1f       	adc	r31, r31
    1694:	ee 0f       	add	r30, r30
    1696:	ff 1f       	adc	r31, r31
    1698:	ee 0f       	add	r30, r30
    169a:	ff 1f       	adc	r31, r31
    169c:	e5 5a       	subi	r30, 0xA5	; 165
    169e:	fe 4f       	sbci	r31, 0xFE	; 254
    16a0:	40 81       	ld	r20, Z
    16a2:	51 81       	ldd	r21, Z+1	; 0x01
    16a4:	62 81       	ldd	r22, Z+2	; 0x02
    16a6:	73 81       	ldd	r23, Z+3	; 0x03
    16a8:	04 17       	cp	r16, r20
    16aa:	15 07       	cpc	r17, r21
    16ac:	26 07       	cpc	r18, r22
    16ae:	37 07       	cpc	r19, r23
    16b0:	08 f4       	brcc	.+2      	; 0x16b4 <_ZN7ns_line6RenderEPjPa+0x4c8>
    16b2:	d5 c6       	rjmp	.+3498   	; 0x245e <_ZN7ns_line6RenderEPjPa+0x1272>
    16b4:	eb a5       	ldd	r30, Y+43	; 0x2b
    16b6:	f0 e0       	ldi	r31, 0x00	; 0
    16b8:	ee 0f       	add	r30, r30
    16ba:	ff 1f       	adc	r31, r31
    16bc:	ee 0f       	add	r30, r30
    16be:	ff 1f       	adc	r31, r31
    16c0:	ee 0f       	add	r30, r30
    16c2:	ff 1f       	adc	r31, r31
    16c4:	e5 5a       	subi	r30, 0xA5	; 165
    16c6:	fe 4f       	sbci	r31, 0xFE	; 254
    16c8:	40 81       	ld	r20, Z
    16ca:	51 81       	ldd	r21, Z+1	; 0x01
    16cc:	62 81       	ldd	r22, Z+2	; 0x02
    16ce:	73 81       	ldd	r23, Z+3	; 0x03
    16d0:	45 2b       	or	r20, r21
    16d2:	46 2b       	or	r20, r22
    16d4:	47 2b       	or	r20, r23
    16d6:	09 f4       	brne	.+2      	; 0x16da <_ZN7ns_line6RenderEPjPa+0x4ee>
    16d8:	c2 c6       	rjmp	.+3460   	; 0x245e <_ZN7ns_line6RenderEPjPa+0x1272>
    16da:	8b a5       	ldd	r24, Y+43	; 0x2b
    16dc:	90 e0       	ldi	r25, 0x00	; 0
    16de:	01 96       	adiw	r24, 0x01	; 1
    16e0:	05 97       	sbiw	r24, 0x05	; 5
    16e2:	0c f4       	brge	.+2      	; 0x16e6 <_ZN7ns_line6RenderEPjPa+0x4fa>
    16e4:	95 c6       	rjmp	.+3370   	; 0x2410 <_ZN7ns_line6RenderEPjPa+0x1224>
    16e6:	bb c6       	rjmp	.+3446   	; 0x245e <_ZN7ns_line6RenderEPjPa+0x1272>
						extendT = times[1][1] - times[n+1][0];		// 2013 = +xx	base[(n+1)-1]		+ ex	:	1-(n+1)
						ex[6] = extendT;
					}
			else	ex[6] = 99999;

			if ( (times[n+1][0] > times[1][1]) && (times[n+1][0] != 0) && ((n + 1) < 5) )
    16e8:	eb a5       	ldd	r30, Y+43	; 0x2b
    16ea:	f0 e0       	ldi	r31, 0x00	; 0
    16ec:	ee 0f       	add	r30, r30
    16ee:	ff 1f       	adc	r31, r31
    16f0:	ee 0f       	add	r30, r30
    16f2:	ff 1f       	adc	r31, r31
    16f4:	ee 0f       	add	r30, r30
    16f6:	ff 1f       	adc	r31, r31
    16f8:	e5 5a       	subi	r30, 0xA5	; 165
    16fa:	fe 4f       	sbci	r31, 0xFE	; 254
    16fc:	00 81       	ld	r16, Z
    16fe:	11 81       	ldd	r17, Z+1	; 0x01
    1700:	22 81       	ldd	r18, Z+2	; 0x02
    1702:	33 81       	ldd	r19, Z+3	; 0x03
    1704:	40 91 5f 01 	lds	r20, 0x015F	; 0x80015f <_ZN7ns_line5timesE+0xc>
    1708:	50 91 60 01 	lds	r21, 0x0160	; 0x800160 <_ZN7ns_line5timesE+0xd>
    170c:	60 91 61 01 	lds	r22, 0x0161	; 0x800161 <_ZN7ns_line5timesE+0xe>
    1710:	70 91 62 01 	lds	r23, 0x0162	; 0x800162 <_ZN7ns_line5timesE+0xf>
    1714:	40 17       	cp	r20, r16
    1716:	51 07       	cpc	r21, r17
    1718:	62 07       	cpc	r22, r18
    171a:	73 07       	cpc	r23, r19
    171c:	08 f0       	brcs	.+2      	; 0x1720 <_ZN7ns_line6RenderEPjPa+0x534>
    171e:	cf c6       	rjmp	.+3486   	; 0x24be <_ZN7ns_line6RenderEPjPa+0x12d2>
    1720:	eb a5       	ldd	r30, Y+43	; 0x2b
    1722:	f0 e0       	ldi	r31, 0x00	; 0
    1724:	ee 0f       	add	r30, r30
    1726:	ff 1f       	adc	r31, r31
    1728:	ee 0f       	add	r30, r30
    172a:	ff 1f       	adc	r31, r31
    172c:	ee 0f       	add	r30, r30
    172e:	ff 1f       	adc	r31, r31
    1730:	e5 5a       	subi	r30, 0xA5	; 165
    1732:	fe 4f       	sbci	r31, 0xFE	; 254
    1734:	40 81       	ld	r20, Z
    1736:	51 81       	ldd	r21, Z+1	; 0x01
    1738:	62 81       	ldd	r22, Z+2	; 0x02
    173a:	73 81       	ldd	r23, Z+3	; 0x03
    173c:	45 2b       	or	r20, r21
    173e:	46 2b       	or	r20, r22
    1740:	47 2b       	or	r20, r23
    1742:	09 f4       	brne	.+2      	; 0x1746 <_ZN7ns_line6RenderEPjPa+0x55a>
    1744:	bc c6       	rjmp	.+3448   	; 0x24be <_ZN7ns_line6RenderEPjPa+0x12d2>
    1746:	8b a5       	ldd	r24, Y+43	; 0x2b
    1748:	90 e0       	ldi	r25, 0x00	; 0
    174a:	01 96       	adiw	r24, 0x01	; 1
    174c:	05 97       	sbiw	r24, 0x05	; 5
    174e:	0c f4       	brge	.+2      	; 0x1752 <_ZN7ns_line6RenderEPjPa+0x566>
    1750:	8f c6       	rjmp	.+3358   	; 0x2470 <_ZN7ns_line6RenderEPjPa+0x1284>
    1752:	b5 c6       	rjmp	.+3434   	; 0x24be <_ZN7ns_line6RenderEPjPa+0x12d2>
						extendT = times[n+1][0] - times[1][1];	// 2013 = -488	base[(n+1)-1]	- ex	:	(n+1)-1
						ex[3] = extendT;
					}
			else	ex[3] = 99999;

			if ( (times[n+1][0] > times[0][1]) && (times[n+1][0] != 0) && ((n + 1) < 5) )
    1754:	eb a5       	ldd	r30, Y+43	; 0x2b
    1756:	f0 e0       	ldi	r31, 0x00	; 0
    1758:	ee 0f       	add	r30, r30
    175a:	ff 1f       	adc	r31, r31
    175c:	ee 0f       	add	r30, r30
    175e:	ff 1f       	adc	r31, r31
    1760:	ee 0f       	add	r30, r30
    1762:	ff 1f       	adc	r31, r31
    1764:	e5 5a       	subi	r30, 0xA5	; 165
    1766:	fe 4f       	sbci	r31, 0xFE	; 254
    1768:	00 81       	ld	r16, Z
    176a:	11 81       	ldd	r17, Z+1	; 0x01
    176c:	22 81       	ldd	r18, Z+2	; 0x02
    176e:	33 81       	ldd	r19, Z+3	; 0x03
    1770:	40 91 57 01 	lds	r20, 0x0157	; 0x800157 <_ZN7ns_line5timesE+0x4>
    1774:	50 91 58 01 	lds	r21, 0x0158	; 0x800158 <_ZN7ns_line5timesE+0x5>
    1778:	60 91 59 01 	lds	r22, 0x0159	; 0x800159 <_ZN7ns_line5timesE+0x6>
    177c:	70 91 5a 01 	lds	r23, 0x015A	; 0x80015a <_ZN7ns_line5timesE+0x7>
    1780:	40 17       	cp	r20, r16
    1782:	51 07       	cpc	r21, r17
    1784:	62 07       	cpc	r22, r18
    1786:	73 07       	cpc	r23, r19
    1788:	08 f0       	brcs	.+2      	; 0x178c <_ZN7ns_line6RenderEPjPa+0x5a0>
    178a:	c9 c6       	rjmp	.+3474   	; 0x251e <_ZN7ns_line6RenderEPjPa+0x1332>
    178c:	eb a5       	ldd	r30, Y+43	; 0x2b
    178e:	f0 e0       	ldi	r31, 0x00	; 0
    1790:	ee 0f       	add	r30, r30
    1792:	ff 1f       	adc	r31, r31
    1794:	ee 0f       	add	r30, r30
    1796:	ff 1f       	adc	r31, r31
    1798:	ee 0f       	add	r30, r30
    179a:	ff 1f       	adc	r31, r31
    179c:	e5 5a       	subi	r30, 0xA5	; 165
    179e:	fe 4f       	sbci	r31, 0xFE	; 254
    17a0:	40 81       	ld	r20, Z
    17a2:	51 81       	ldd	r21, Z+1	; 0x01
    17a4:	62 81       	ldd	r22, Z+2	; 0x02
    17a6:	73 81       	ldd	r23, Z+3	; 0x03
    17a8:	45 2b       	or	r20, r21
    17aa:	46 2b       	or	r20, r22
    17ac:	47 2b       	or	r20, r23
    17ae:	09 f4       	brne	.+2      	; 0x17b2 <_ZN7ns_line6RenderEPjPa+0x5c6>
    17b0:	b6 c6       	rjmp	.+3436   	; 0x251e <_ZN7ns_line6RenderEPjPa+0x1332>
    17b2:	8b a5       	ldd	r24, Y+43	; 0x2b
    17b4:	90 e0       	ldi	r25, 0x00	; 0
    17b6:	01 96       	adiw	r24, 0x01	; 1
    17b8:	05 97       	sbiw	r24, 0x05	; 5
    17ba:	0c f4       	brge	.+2      	; 0x17be <_ZN7ns_line6RenderEPjPa+0x5d2>
    17bc:	89 c6       	rjmp	.+3346   	; 0x24d0 <_ZN7ns_line6RenderEPjPa+0x12e4>
    17be:	af c6       	rjmp	.+3422   	; 0x251e <_ZN7ns_line6RenderEPjPa+0x1332>
						extendT = times[n+1][0] - times[0][1];	// 2013 = -988	base[(n+1)-0]	- ex	:	(n+1)-0
						ex[4] = extendT;
					}
			else	ex[4] = (uint32_t)99999;

			extendT = 99999;
    17c0:	4f e9       	ldi	r20, 0x9F	; 159
    17c2:	56 e8       	ldi	r21, 0x86	; 134
    17c4:	61 e0       	ldi	r22, 0x01	; 1
    17c6:	70 e0       	ldi	r23, 0x00	; 0
    17c8:	4d 8f       	std	Y+29, r20	; 0x1d
    17ca:	5e 8f       	std	Y+30, r21	; 0x1e
    17cc:	6f 8f       	std	Y+31, r22	; 0x1f
    17ce:	78 a3       	std	Y+32, r23	; 0x20
			exN = 10;
			
			// find min render
			for (uint8_t i=0; i<7; i++)
    17d0:	80 e0       	ldi	r24, 0x00	; 0
						ex[4] = extendT;
					}
			else	ex[4] = (uint32_t)99999;

			extendT = 99999;
			exN = 10;
    17d2:	9a e0       	ldi	r25, 0x0A	; 10
			
			// find min render
			for (uint8_t i=0; i<7; i++)
			{
				if ( ex[i] < extendT )
    17d4:	4d 91       	ld	r20, X+
    17d6:	5d 91       	ld	r21, X+
    17d8:	6d 91       	ld	r22, X+
    17da:	7d 91       	ld	r23, X+
    17dc:	0d 8d       	ldd	r16, Y+29	; 0x1d
    17de:	1e 8d       	ldd	r17, Y+30	; 0x1e
    17e0:	2f 8d       	ldd	r18, Y+31	; 0x1f
    17e2:	38 a1       	ldd	r19, Y+32	; 0x20
    17e4:	40 17       	cp	r20, r16
    17e6:	51 07       	cpc	r21, r17
    17e8:	62 07       	cpc	r22, r18
    17ea:	73 07       	cpc	r23, r19
    17ec:	28 f4       	brcc	.+10     	; 0x17f8 <_ZN7ns_line6RenderEPjPa+0x60c>
				{
					extendT = ex[i];
    17ee:	4d 8f       	std	Y+29, r20	; 0x1d
    17f0:	5e 8f       	std	Y+30, r21	; 0x1e
    17f2:	6f 8f       	std	Y+31, r22	; 0x1f
    17f4:	78 a3       	std	Y+32, r23	; 0x20
    17f6:	98 2f       	mov	r25, r24

			extendT = 99999;
			exN = 10;
			
			// find min render
			for (uint8_t i=0; i<7; i++)
    17f8:	8f 5f       	subi	r24, 0xFF	; 255
    17fa:	87 30       	cpi	r24, 0x07	; 7
    17fc:	59 f7       	brne	.-42     	; 0x17d4 <_ZN7ns_line6RenderEPjPa+0x5e8>
					extendT = ex[i];
					exN = i;
				}
			}
			
			if (extendT == 99999)
    17fe:	4d 8d       	ldd	r20, Y+29	; 0x1d
    1800:	5e 8d       	ldd	r21, Y+30	; 0x1e
    1802:	6f 8d       	ldd	r22, Y+31	; 0x1f
    1804:	78 a1       	ldd	r23, Y+32	; 0x20
    1806:	4f 39       	cpi	r20, 0x9F	; 159
    1808:	56 48       	sbci	r21, 0x86	; 134
    180a:	61 40       	sbci	r22, 0x01	; 1
    180c:	71 05       	cpc	r23, r1
    180e:	39 f4       	brne	.+14     	; 0x181e <_ZN7ns_line6RenderEPjPa+0x632>
			{	// error - no solution
				ns_vg::lenTubuStat = 10;
    1810:	8a e0       	ldi	r24, 0x0A	; 10
    1812:	80 93 fb 01 	sts	0x01FB, r24	; 0x8001fb <_ZN5ns_vg11lenTubuStatE>
				mode = 1;
    1816:	81 e0       	ldi	r24, 0x01	; 1
    1818:	80 93 10 01 	sts	0x0110, r24	; 0x800110 <_ZN7ns_line4modeE>
				return 0;
    181c:	89 c6       	rjmp	.+3346   	; 0x2530 <_ZN7ns_line6RenderEPjPa+0x1344>
			}
			ns_vg::exN = exN;
    181e:	90 93 f9 01 	sts	0x01F9, r25	; 0x8001f9 <_ZN5ns_vg3exNE>
			// new render tube
			ns_vg::lenTubuStat = 1;
    1822:	81 e0       	ldi	r24, 0x01	; 1
    1824:	80 93 fb 01 	sts	0x01FB, r24	; 0x8001fb <_ZN5ns_vg11lenTubuStatE>
			if ( exN == 0 )
    1828:	91 11       	cpse	r25, r1
    182a:	a5 c0       	rjmp	.+330    	; 0x1976 <_ZN7ns_line6RenderEPjPa+0x78a>
			{	// 1920 = -20	base[n-0]		- ex	:	n-0
				base = distance[n] - distance[0];
    182c:	eb a5       	ldd	r30, Y+43	; 0x2b
    182e:	f0 e0       	ldi	r31, 0x00	; 0
    1830:	ee 0f       	add	r30, r30
    1832:	ff 1f       	adc	r31, r31
    1834:	ea 5f       	subi	r30, 0xFA	; 250
    1836:	fe 4f       	sbci	r31, 0xFE	; 254
    1838:	80 81       	ld	r24, Z
    183a:	91 81       	ldd	r25, Z+1	; 0x01
    183c:	20 91 06 01 	lds	r18, 0x0106	; 0x800106 <_ZN7ns_line8distanceE>
    1840:	30 91 07 01 	lds	r19, 0x0107	; 0x800107 <_ZN7ns_line8distanceE+0x1>
    1844:	82 1b       	sub	r24, r18
    1846:	93 0b       	sbc	r25, r19
    1848:	9a a7       	std	Y+42, r25	; 0x2a
    184a:	89 a7       	std	Y+41, r24	; 0x29
				exLen = (uint16_t)((((((uint64_t)extendT) * ((uint64_t)sampleD) * ((uint64_t)10) ) / ((uint64_t)sampleT)) + 5) / 10);
    184c:	8d 8d       	ldd	r24, Y+29	; 0x1d
    184e:	9e 8d       	ldd	r25, Y+30	; 0x1e
    1850:	af 8d       	ldd	r26, Y+31	; 0x1f
    1852:	b8 a1       	ldd	r27, Y+32	; 0x20
    1854:	ed a1       	ldd	r30, Y+37	; 0x25
    1856:	fe a1       	ldd	r31, Y+38	; 0x26
    1858:	29 a0       	ldd	r2, Y+33	; 0x21
    185a:	3a a0       	ldd	r3, Y+34	; 0x22
    185c:	4b a0       	ldd	r4, Y+35	; 0x23
    185e:	5c a0       	ldd	r5, Y+36	; 0x24
    1860:	5c 01       	movw	r10, r24
    1862:	6d 01       	movw	r12, r26
    1864:	e1 2c       	mov	r14, r1
    1866:	f1 2c       	mov	r15, r1
    1868:	87 01       	movw	r16, r14
    186a:	8c a7       	std	Y+44, r24	; 0x2c
    186c:	bd a6       	std	Y+45, r11	; 0x2d
    186e:	ce a6       	std	Y+46, r12	; 0x2e
    1870:	df a6       	std	Y+47, r13	; 0x2f
    1872:	e8 aa       	std	Y+48, r14	; 0x30
    1874:	f9 aa       	std	Y+49, r15	; 0x31
    1876:	0a ab       	std	Y+50, r16	; 0x32
    1878:	1b ab       	std	Y+51, r17	; 0x33
    187a:	8f 01       	movw	r16, r30
    187c:	ae 2e       	mov	r10, r30
    187e:	b1 2e       	mov	r11, r17
    1880:	c1 2c       	mov	r12, r1
    1882:	d1 2c       	mov	r13, r1
    1884:	e1 2c       	mov	r14, r1
    1886:	f1 2c       	mov	r15, r1
    1888:	00 e0       	ldi	r16, 0x00	; 0
    188a:	10 e0       	ldi	r17, 0x00	; 0
    188c:	2c a5       	ldd	r18, Y+44	; 0x2c
    188e:	3d a5       	ldd	r19, Y+45	; 0x2d
    1890:	4e a5       	ldd	r20, Y+46	; 0x2e
    1892:	5f a5       	ldd	r21, Y+47	; 0x2f
    1894:	60 e0       	ldi	r22, 0x00	; 0
    1896:	70 e0       	ldi	r23, 0x00	; 0
    1898:	80 e0       	ldi	r24, 0x00	; 0
    189a:	90 e0       	ldi	r25, 0x00	; 0
    189c:	0e 94 ff 2c 	call	0x59fe	; 0x59fe <__muldi3>
    18a0:	01 e0       	ldi	r16, 0x01	; 1
    18a2:	0e 94 ae 2d 	call	0x5b5c	; 0x5b5c <__ashldi3>
    18a6:	2c a7       	std	Y+44, r18	; 0x2c
    18a8:	3c ab       	std	Y+52, r19	; 0x34
    18aa:	4d ab       	std	Y+53, r20	; 0x35
    18ac:	5e ab       	std	Y+54, r21	; 0x36
    18ae:	b6 2f       	mov	r27, r22
    18b0:	a7 2f       	mov	r26, r23
    18b2:	f8 2f       	mov	r31, r24
    18b4:	e9 2f       	mov	r30, r25
    18b6:	7a 2f       	mov	r23, r26
    18b8:	8f 2f       	mov	r24, r31
    18ba:	9e 2f       	mov	r25, r30
    18bc:	02 e0       	ldi	r16, 0x02	; 2
    18be:	0e 94 ae 2d 	call	0x5b5c	; 0x5b5c <__ashldi3>
    18c2:	a2 2e       	mov	r10, r18
    18c4:	b3 2e       	mov	r11, r19
    18c6:	c4 2e       	mov	r12, r20
    18c8:	d5 2e       	mov	r13, r21
    18ca:	e6 2e       	mov	r14, r22
    18cc:	f7 2e       	mov	r15, r23
    18ce:	08 2f       	mov	r16, r24
    18d0:	19 2f       	mov	r17, r25
    18d2:	2c a5       	ldd	r18, Y+44	; 0x2c
    18d4:	3c a9       	ldd	r19, Y+52	; 0x34
    18d6:	4d a9       	ldd	r20, Y+53	; 0x35
    18d8:	5e a9       	ldd	r21, Y+54	; 0x36
    18da:	6b 2f       	mov	r22, r27
    18dc:	7a 2f       	mov	r23, r26
    18de:	8f 2f       	mov	r24, r31
    18e0:	9e 2f       	mov	r25, r30
    18e2:	0e 94 c7 2d 	call	0x5b8e	; 0x5b8e <__adddi3>
    18e6:	62 01       	movw	r12, r4
    18e8:	51 01       	movw	r10, r2
    18ea:	e1 2c       	mov	r14, r1
    18ec:	f1 2c       	mov	r15, r1
    18ee:	87 01       	movw	r16, r14
    18f0:	2c a6       	std	Y+44, r2	; 0x2c
    18f2:	bd a6       	std	Y+45, r11	; 0x2d
    18f4:	ce a6       	std	Y+46, r12	; 0x2e
    18f6:	df a6       	std	Y+47, r13	; 0x2f
    18f8:	e8 aa       	std	Y+48, r14	; 0x30
    18fa:	f9 aa       	std	Y+49, r15	; 0x31
    18fc:	0a ab       	std	Y+50, r16	; 0x32
    18fe:	1b ab       	std	Y+51, r17	; 0x33
    1900:	e1 2c       	mov	r14, r1
    1902:	f1 2c       	mov	r15, r1
    1904:	00 e0       	ldi	r16, 0x00	; 0
    1906:	10 e0       	ldi	r17, 0x00	; 0
    1908:	0e 94 52 2d 	call	0x5aa4	; 0x5aa4 <__udivdi3>
    190c:	a5 e0       	ldi	r26, 0x05	; 5
    190e:	0e 94 d0 2d 	call	0x5ba0	; 0x5ba0 <__adddi3_s8>
    1912:	0f 2e       	mov	r0, r31
    1914:	fa e0       	ldi	r31, 0x0A	; 10
    1916:	af 2e       	mov	r10, r31
    1918:	f0 2d       	mov	r31, r0
    191a:	b1 2c       	mov	r11, r1
    191c:	c1 2c       	mov	r12, r1
    191e:	d1 2c       	mov	r13, r1
    1920:	0e 94 52 2d 	call	0x5aa4	; 0x5aa4 <__udivdi3>
    1924:	82 2f       	mov	r24, r18
    1926:	93 2f       	mov	r25, r19
    1928:	98 a7       	std	Y+40, r25	; 0x28
    192a:	8f a3       	std	Y+39, r24	; 0x27
				*dlina = base - exLen;
    192c:	89 a5       	ldd	r24, Y+41	; 0x29
    192e:	9a a5       	ldd	r25, Y+42	; 0x2a
    1930:	2f a1       	ldd	r18, Y+39	; 0x27
    1932:	38 a5       	ldd	r19, Y+40	; 0x28
    1934:	82 1b       	sub	r24, r18
    1936:	93 0b       	sbc	r25, r19
    1938:	d4 01       	movw	r26, r8
    193a:	11 96       	adiw	r26, 0x01	; 1
    193c:	9c 93       	st	X, r25
    193e:	8e 93       	st	-X, r24
				*sqBas = -((0 * 10) + (n + 0));
    1940:	8b a5       	ldd	r24, Y+43	; 0x2b
    1942:	81 95       	neg	r24
    1944:	f3 01       	movw	r30, r6
    1946:	80 83       	st	Z, r24
				ns_vg::lenTubuExl = -exLen;
    1948:	8f a1       	ldd	r24, Y+39	; 0x27
    194a:	98 a5       	ldd	r25, Y+40	; 0x28
    194c:	91 95       	neg	r25
    194e:	81 95       	neg	r24
    1950:	91 09       	sbc	r25, r1
    1952:	90 93 fe 01 	sts	0x01FE, r25	; 0x8001fe <_ZN5ns_vg10lenTubuExlE+0x1>
    1956:	80 93 fd 01 	sts	0x01FD, r24	; 0x8001fd <_ZN5ns_vg10lenTubuExlE>
				sendTele(*dlina, (*sqBas), base, exLen );
    195a:	2f a1       	ldd	r18, Y+39	; 0x27
    195c:	38 a5       	ldd	r19, Y+40	; 0x28
    195e:	49 a5       	ldd	r20, Y+41	; 0x29
    1960:	5a a5       	ldd	r21, Y+42	; 0x2a
    1962:	60 81       	ld	r22, Z
    1964:	8d 91       	ld	r24, X+
    1966:	9c 91       	ld	r25, X
    1968:	61 db       	rcall	.-2366   	; 0x102c <_ZN7ns_line8sendTeleEjajj>
				mode = 1;
    196a:	81 e0       	ldi	r24, 0x01	; 1
    196c:	80 93 10 01 	sts	0x0110, r24	; 0x800110 <_ZN7ns_line4modeE>
				return 1;
    1970:	bb 24       	eor	r11, r11
    1972:	b3 94       	inc	r11
    1974:	dd c5       	rjmp	.+3002   	; 0x2530 <_ZN7ns_line6RenderEPjPa+0x1344>
			}
			if ( exN == 1 )
    1976:	91 30       	cpi	r25, 0x01	; 1
    1978:	09 f0       	breq	.+2      	; 0x197c <_ZN7ns_line6RenderEPjPa+0x790>
    197a:	a1 c0       	rjmp	.+322    	; 0x1abe <_ZN7ns_line6RenderEPjPa+0x8d2>
			{	// 2013 = +12	base[n-0]		+ ex	:	0-n
				base = distance[n] - distance[0];
    197c:	eb a5       	ldd	r30, Y+43	; 0x2b
    197e:	f0 e0       	ldi	r31, 0x00	; 0
    1980:	ee 0f       	add	r30, r30
    1982:	ff 1f       	adc	r31, r31
    1984:	ea 5f       	subi	r30, 0xFA	; 250
    1986:	fe 4f       	sbci	r31, 0xFE	; 254
    1988:	80 81       	ld	r24, Z
    198a:	91 81       	ldd	r25, Z+1	; 0x01
    198c:	20 91 06 01 	lds	r18, 0x0106	; 0x800106 <_ZN7ns_line8distanceE>
    1990:	30 91 07 01 	lds	r19, 0x0107	; 0x800107 <_ZN7ns_line8distanceE+0x1>
    1994:	82 1b       	sub	r24, r18
    1996:	93 0b       	sbc	r25, r19
    1998:	9a a7       	std	Y+42, r25	; 0x2a
    199a:	89 a7       	std	Y+41, r24	; 0x29
				exLen = (uint16_t)( ( ( ((uint64_t)10) * ((uint64_t)extendT) * ((uint64_t)sampleD) / ((uint64_t)sampleT) ) + 5) / 10);
    199c:	8d 8d       	ldd	r24, Y+29	; 0x1d
    199e:	9e 8d       	ldd	r25, Y+30	; 0x1e
    19a0:	af 8d       	ldd	r26, Y+31	; 0x1f
    19a2:	b8 a1       	ldd	r27, Y+32	; 0x20
    19a4:	ed a1       	ldd	r30, Y+37	; 0x25
    19a6:	fe a1       	ldd	r31, Y+38	; 0x26
    19a8:	29 a0       	ldd	r2, Y+33	; 0x21
    19aa:	3a a0       	ldd	r3, Y+34	; 0x22
    19ac:	4b a0       	ldd	r4, Y+35	; 0x23
    19ae:	5c a0       	ldd	r5, Y+36	; 0x24
    19b0:	5c 01       	movw	r10, r24
    19b2:	6d 01       	movw	r12, r26
    19b4:	e1 2c       	mov	r14, r1
    19b6:	f1 2c       	mov	r15, r1
    19b8:	87 01       	movw	r16, r14
    19ba:	8c a7       	std	Y+44, r24	; 0x2c
    19bc:	bd a6       	std	Y+45, r11	; 0x2d
    19be:	ce a6       	std	Y+46, r12	; 0x2e
    19c0:	df a6       	std	Y+47, r13	; 0x2f
    19c2:	e8 aa       	std	Y+48, r14	; 0x30
    19c4:	f9 aa       	std	Y+49, r15	; 0x31
    19c6:	0a ab       	std	Y+50, r16	; 0x32
    19c8:	1b ab       	std	Y+51, r17	; 0x33
    19ca:	8f 01       	movw	r16, r30
    19cc:	ae 2e       	mov	r10, r30
    19ce:	b1 2e       	mov	r11, r17
    19d0:	c1 2c       	mov	r12, r1
    19d2:	d1 2c       	mov	r13, r1
    19d4:	e1 2c       	mov	r14, r1
    19d6:	f1 2c       	mov	r15, r1
    19d8:	00 e0       	ldi	r16, 0x00	; 0
    19da:	10 e0       	ldi	r17, 0x00	; 0
    19dc:	2c a5       	ldd	r18, Y+44	; 0x2c
    19de:	3d a5       	ldd	r19, Y+45	; 0x2d
    19e0:	4e a5       	ldd	r20, Y+46	; 0x2e
    19e2:	5f a5       	ldd	r21, Y+47	; 0x2f
    19e4:	60 e0       	ldi	r22, 0x00	; 0
    19e6:	70 e0       	ldi	r23, 0x00	; 0
    19e8:	80 e0       	ldi	r24, 0x00	; 0
    19ea:	90 e0       	ldi	r25, 0x00	; 0
    19ec:	0e 94 ff 2c 	call	0x59fe	; 0x59fe <__muldi3>
    19f0:	01 e0       	ldi	r16, 0x01	; 1
    19f2:	0e 94 ae 2d 	call	0x5b5c	; 0x5b5c <__ashldi3>
    19f6:	2c a7       	std	Y+44, r18	; 0x2c
    19f8:	3c ab       	std	Y+52, r19	; 0x34
    19fa:	4d ab       	std	Y+53, r20	; 0x35
    19fc:	5e ab       	std	Y+54, r21	; 0x36
    19fe:	b6 2f       	mov	r27, r22
    1a00:	a7 2f       	mov	r26, r23
    1a02:	f8 2f       	mov	r31, r24
    1a04:	e9 2f       	mov	r30, r25
    1a06:	7a 2f       	mov	r23, r26
    1a08:	8f 2f       	mov	r24, r31
    1a0a:	9e 2f       	mov	r25, r30
    1a0c:	02 e0       	ldi	r16, 0x02	; 2
    1a0e:	0e 94 ae 2d 	call	0x5b5c	; 0x5b5c <__ashldi3>
    1a12:	a2 2e       	mov	r10, r18
    1a14:	b3 2e       	mov	r11, r19
    1a16:	c4 2e       	mov	r12, r20
    1a18:	d5 2e       	mov	r13, r21
    1a1a:	e6 2e       	mov	r14, r22
    1a1c:	f7 2e       	mov	r15, r23
    1a1e:	08 2f       	mov	r16, r24
    1a20:	19 2f       	mov	r17, r25
    1a22:	2c a5       	ldd	r18, Y+44	; 0x2c
    1a24:	3c a9       	ldd	r19, Y+52	; 0x34
    1a26:	4d a9       	ldd	r20, Y+53	; 0x35
    1a28:	5e a9       	ldd	r21, Y+54	; 0x36
    1a2a:	6b 2f       	mov	r22, r27
    1a2c:	7a 2f       	mov	r23, r26
    1a2e:	8f 2f       	mov	r24, r31
    1a30:	9e 2f       	mov	r25, r30
    1a32:	0e 94 c7 2d 	call	0x5b8e	; 0x5b8e <__adddi3>
    1a36:	62 01       	movw	r12, r4
    1a38:	51 01       	movw	r10, r2
    1a3a:	e1 2c       	mov	r14, r1
    1a3c:	f1 2c       	mov	r15, r1
    1a3e:	87 01       	movw	r16, r14
    1a40:	2c a6       	std	Y+44, r2	; 0x2c
    1a42:	bd a6       	std	Y+45, r11	; 0x2d
    1a44:	ce a6       	std	Y+46, r12	; 0x2e
    1a46:	df a6       	std	Y+47, r13	; 0x2f
    1a48:	e8 aa       	std	Y+48, r14	; 0x30
    1a4a:	f9 aa       	std	Y+49, r15	; 0x31
    1a4c:	0a ab       	std	Y+50, r16	; 0x32
    1a4e:	1b ab       	std	Y+51, r17	; 0x33
    1a50:	e1 2c       	mov	r14, r1
    1a52:	f1 2c       	mov	r15, r1
    1a54:	00 e0       	ldi	r16, 0x00	; 0
    1a56:	10 e0       	ldi	r17, 0x00	; 0
    1a58:	0e 94 52 2d 	call	0x5aa4	; 0x5aa4 <__udivdi3>
    1a5c:	a5 e0       	ldi	r26, 0x05	; 5
    1a5e:	0e 94 d0 2d 	call	0x5ba0	; 0x5ba0 <__adddi3_s8>
    1a62:	0f 2e       	mov	r0, r31
    1a64:	fa e0       	ldi	r31, 0x0A	; 10
    1a66:	af 2e       	mov	r10, r31
    1a68:	f0 2d       	mov	r31, r0
    1a6a:	b1 2c       	mov	r11, r1
    1a6c:	c1 2c       	mov	r12, r1
    1a6e:	d1 2c       	mov	r13, r1
    1a70:	0e 94 52 2d 	call	0x5aa4	; 0x5aa4 <__udivdi3>
    1a74:	82 2f       	mov	r24, r18
    1a76:	93 2f       	mov	r25, r19
    1a78:	98 a7       	std	Y+40, r25	; 0x28
    1a7a:	8f a3       	std	Y+39, r24	; 0x27
				*dlina = base + exLen;
    1a7c:	89 a5       	ldd	r24, Y+41	; 0x29
    1a7e:	9a a5       	ldd	r25, Y+42	; 0x2a
    1a80:	2f a1       	ldd	r18, Y+39	; 0x27
    1a82:	38 a5       	ldd	r19, Y+40	; 0x28
    1a84:	82 0f       	add	r24, r18
    1a86:	93 1f       	adc	r25, r19
    1a88:	d4 01       	movw	r26, r8
    1a8a:	11 96       	adiw	r26, 0x01	; 1
    1a8c:	9c 93       	st	X, r25
    1a8e:	8e 93       	st	-X, r24
				*sqBas = ((0 * 10) + (n + 0));
    1a90:	8b a5       	ldd	r24, Y+43	; 0x2b
    1a92:	f3 01       	movw	r30, r6
    1a94:	80 83       	st	Z, r24
				ns_vg::lenTubuExl = exLen;
    1a96:	8f a1       	ldd	r24, Y+39	; 0x27
    1a98:	98 a5       	ldd	r25, Y+40	; 0x28
    1a9a:	90 93 fe 01 	sts	0x01FE, r25	; 0x8001fe <_ZN5ns_vg10lenTubuExlE+0x1>
    1a9e:	80 93 fd 01 	sts	0x01FD, r24	; 0x8001fd <_ZN5ns_vg10lenTubuExlE>
				sendTele(*dlina, (*sqBas), base, exLen);
    1aa2:	2f a1       	ldd	r18, Y+39	; 0x27
    1aa4:	38 a5       	ldd	r19, Y+40	; 0x28
    1aa6:	49 a5       	ldd	r20, Y+41	; 0x29
    1aa8:	5a a5       	ldd	r21, Y+42	; 0x2a
    1aaa:	60 81       	ld	r22, Z
    1aac:	8d 91       	ld	r24, X+
    1aae:	9c 91       	ld	r25, X
    1ab0:	bd da       	rcall	.-2694   	; 0x102c <_ZN7ns_line8sendTeleEjajj>
				mode = 1;
    1ab2:	81 e0       	ldi	r24, 0x01	; 1
    1ab4:	80 93 10 01 	sts	0x0110, r24	; 0x800110 <_ZN7ns_line4modeE>
				return 1;
    1ab8:	bb 24       	eor	r11, r11
    1aba:	b3 94       	inc	r11
    1abc:	39 c5       	rjmp	.+2674   	; 0x2530 <_ZN7ns_line6RenderEPjPa+0x1344>
			}
			if ( exN == 5 )
    1abe:	95 30       	cpi	r25, 0x05	; 5
    1ac0:	09 f0       	breq	.+2      	; 0x1ac4 <_ZN7ns_line6RenderEPjPa+0x8d8>
    1ac2:	a2 c0       	rjmp	.+324    	; 0x1c08 <_ZN7ns_line6RenderEPjPa+0xa1c>
			{	// 2013 = +12	base[(n+1)-0]		+ ex	:	0-(n+1)
				base = distance[n+1] - distance[0];
    1ac4:	eb a5       	ldd	r30, Y+43	; 0x2b
    1ac6:	f0 e0       	ldi	r31, 0x00	; 0
    1ac8:	ee 0f       	add	r30, r30
    1aca:	ff 1f       	adc	r31, r31
    1acc:	e8 5f       	subi	r30, 0xF8	; 248
    1ace:	fe 4f       	sbci	r31, 0xFE	; 254
    1ad0:	80 81       	ld	r24, Z
    1ad2:	91 81       	ldd	r25, Z+1	; 0x01
    1ad4:	20 91 06 01 	lds	r18, 0x0106	; 0x800106 <_ZN7ns_line8distanceE>
    1ad8:	30 91 07 01 	lds	r19, 0x0107	; 0x800107 <_ZN7ns_line8distanceE+0x1>
    1adc:	82 1b       	sub	r24, r18
    1ade:	93 0b       	sbc	r25, r19
    1ae0:	9a a7       	std	Y+42, r25	; 0x2a
    1ae2:	89 a7       	std	Y+41, r24	; 0x29
				exLen = (uint16_t)( ( ( ((uint64_t)10) * ((uint64_t)extendT) * ((uint64_t)sampleD) / ((uint64_t)sampleT) ) + 5) / 10);
    1ae4:	8d 8d       	ldd	r24, Y+29	; 0x1d
    1ae6:	9e 8d       	ldd	r25, Y+30	; 0x1e
    1ae8:	af 8d       	ldd	r26, Y+31	; 0x1f
    1aea:	b8 a1       	ldd	r27, Y+32	; 0x20
    1aec:	ed a1       	ldd	r30, Y+37	; 0x25
    1aee:	fe a1       	ldd	r31, Y+38	; 0x26
    1af0:	29 a0       	ldd	r2, Y+33	; 0x21
    1af2:	3a a0       	ldd	r3, Y+34	; 0x22
    1af4:	4b a0       	ldd	r4, Y+35	; 0x23
    1af6:	5c a0       	ldd	r5, Y+36	; 0x24
    1af8:	5c 01       	movw	r10, r24
    1afa:	6d 01       	movw	r12, r26
    1afc:	e1 2c       	mov	r14, r1
    1afe:	f1 2c       	mov	r15, r1
    1b00:	87 01       	movw	r16, r14
    1b02:	8c a7       	std	Y+44, r24	; 0x2c
    1b04:	bd a6       	std	Y+45, r11	; 0x2d
    1b06:	ce a6       	std	Y+46, r12	; 0x2e
    1b08:	df a6       	std	Y+47, r13	; 0x2f
    1b0a:	e8 aa       	std	Y+48, r14	; 0x30
    1b0c:	f9 aa       	std	Y+49, r15	; 0x31
    1b0e:	0a ab       	std	Y+50, r16	; 0x32
    1b10:	1b ab       	std	Y+51, r17	; 0x33
    1b12:	8f 01       	movw	r16, r30
    1b14:	ae 2e       	mov	r10, r30
    1b16:	b1 2e       	mov	r11, r17
    1b18:	c1 2c       	mov	r12, r1
    1b1a:	d1 2c       	mov	r13, r1
    1b1c:	e1 2c       	mov	r14, r1
    1b1e:	f1 2c       	mov	r15, r1
    1b20:	00 e0       	ldi	r16, 0x00	; 0
    1b22:	10 e0       	ldi	r17, 0x00	; 0
    1b24:	2c a5       	ldd	r18, Y+44	; 0x2c
    1b26:	3d a5       	ldd	r19, Y+45	; 0x2d
    1b28:	4e a5       	ldd	r20, Y+46	; 0x2e
    1b2a:	5f a5       	ldd	r21, Y+47	; 0x2f
    1b2c:	60 e0       	ldi	r22, 0x00	; 0
    1b2e:	70 e0       	ldi	r23, 0x00	; 0
    1b30:	80 e0       	ldi	r24, 0x00	; 0
    1b32:	90 e0       	ldi	r25, 0x00	; 0
    1b34:	0e 94 ff 2c 	call	0x59fe	; 0x59fe <__muldi3>
    1b38:	01 e0       	ldi	r16, 0x01	; 1
    1b3a:	0e 94 ae 2d 	call	0x5b5c	; 0x5b5c <__ashldi3>
    1b3e:	2c a7       	std	Y+44, r18	; 0x2c
    1b40:	3c ab       	std	Y+52, r19	; 0x34
    1b42:	4d ab       	std	Y+53, r20	; 0x35
    1b44:	5e ab       	std	Y+54, r21	; 0x36
    1b46:	b6 2f       	mov	r27, r22
    1b48:	a7 2f       	mov	r26, r23
    1b4a:	f8 2f       	mov	r31, r24
    1b4c:	e9 2f       	mov	r30, r25
    1b4e:	7a 2f       	mov	r23, r26
    1b50:	8f 2f       	mov	r24, r31
    1b52:	9e 2f       	mov	r25, r30
    1b54:	02 e0       	ldi	r16, 0x02	; 2
    1b56:	0e 94 ae 2d 	call	0x5b5c	; 0x5b5c <__ashldi3>
    1b5a:	a2 2e       	mov	r10, r18
    1b5c:	b3 2e       	mov	r11, r19
    1b5e:	c4 2e       	mov	r12, r20
    1b60:	d5 2e       	mov	r13, r21
    1b62:	e6 2e       	mov	r14, r22
    1b64:	f7 2e       	mov	r15, r23
    1b66:	08 2f       	mov	r16, r24
    1b68:	19 2f       	mov	r17, r25
    1b6a:	2c a5       	ldd	r18, Y+44	; 0x2c
    1b6c:	3c a9       	ldd	r19, Y+52	; 0x34
    1b6e:	4d a9       	ldd	r20, Y+53	; 0x35
    1b70:	5e a9       	ldd	r21, Y+54	; 0x36
    1b72:	6b 2f       	mov	r22, r27
    1b74:	7a 2f       	mov	r23, r26
    1b76:	8f 2f       	mov	r24, r31
    1b78:	9e 2f       	mov	r25, r30
    1b7a:	0e 94 c7 2d 	call	0x5b8e	; 0x5b8e <__adddi3>
    1b7e:	62 01       	movw	r12, r4
    1b80:	51 01       	movw	r10, r2
    1b82:	e1 2c       	mov	r14, r1
    1b84:	f1 2c       	mov	r15, r1
    1b86:	87 01       	movw	r16, r14
    1b88:	2c a6       	std	Y+44, r2	; 0x2c
    1b8a:	bd a6       	std	Y+45, r11	; 0x2d
    1b8c:	ce a6       	std	Y+46, r12	; 0x2e
    1b8e:	df a6       	std	Y+47, r13	; 0x2f
    1b90:	e8 aa       	std	Y+48, r14	; 0x30
    1b92:	f9 aa       	std	Y+49, r15	; 0x31
    1b94:	0a ab       	std	Y+50, r16	; 0x32
    1b96:	1b ab       	std	Y+51, r17	; 0x33
    1b98:	e1 2c       	mov	r14, r1
    1b9a:	f1 2c       	mov	r15, r1
    1b9c:	00 e0       	ldi	r16, 0x00	; 0
    1b9e:	10 e0       	ldi	r17, 0x00	; 0
    1ba0:	0e 94 52 2d 	call	0x5aa4	; 0x5aa4 <__udivdi3>
    1ba4:	a5 e0       	ldi	r26, 0x05	; 5
    1ba6:	0e 94 d0 2d 	call	0x5ba0	; 0x5ba0 <__adddi3_s8>
    1baa:	0f 2e       	mov	r0, r31
    1bac:	fa e0       	ldi	r31, 0x0A	; 10
    1bae:	af 2e       	mov	r10, r31
    1bb0:	f0 2d       	mov	r31, r0
    1bb2:	b1 2c       	mov	r11, r1
    1bb4:	c1 2c       	mov	r12, r1
    1bb6:	d1 2c       	mov	r13, r1
    1bb8:	0e 94 52 2d 	call	0x5aa4	; 0x5aa4 <__udivdi3>
    1bbc:	82 2f       	mov	r24, r18
    1bbe:	93 2f       	mov	r25, r19
    1bc0:	98 a7       	std	Y+40, r25	; 0x28
    1bc2:	8f a3       	std	Y+39, r24	; 0x27
				*dlina = base + exLen;
    1bc4:	89 a5       	ldd	r24, Y+41	; 0x29
    1bc6:	9a a5       	ldd	r25, Y+42	; 0x2a
    1bc8:	2f a1       	ldd	r18, Y+39	; 0x27
    1bca:	38 a5       	ldd	r19, Y+40	; 0x28
    1bcc:	82 0f       	add	r24, r18
    1bce:	93 1f       	adc	r25, r19
    1bd0:	d4 01       	movw	r26, r8
    1bd2:	11 96       	adiw	r26, 0x01	; 1
    1bd4:	9c 93       	st	X, r25
    1bd6:	8e 93       	st	-X, r24
				*sqBas = ((0 * 10) + (n + 1));
    1bd8:	8b a5       	ldd	r24, Y+43	; 0x2b
    1bda:	8f 5f       	subi	r24, 0xFF	; 255
    1bdc:	f3 01       	movw	r30, r6
    1bde:	80 83       	st	Z, r24
				ns_vg::lenTubuExl = exLen;
    1be0:	8f a1       	ldd	r24, Y+39	; 0x27
    1be2:	98 a5       	ldd	r25, Y+40	; 0x28
    1be4:	90 93 fe 01 	sts	0x01FE, r25	; 0x8001fe <_ZN5ns_vg10lenTubuExlE+0x1>
    1be8:	80 93 fd 01 	sts	0x01FD, r24	; 0x8001fd <_ZN5ns_vg10lenTubuExlE>
				sendTele(*dlina, (*sqBas), base, exLen);
    1bec:	2f a1       	ldd	r18, Y+39	; 0x27
    1bee:	38 a5       	ldd	r19, Y+40	; 0x28
    1bf0:	49 a5       	ldd	r20, Y+41	; 0x29
    1bf2:	5a a5       	ldd	r21, Y+42	; 0x2a
    1bf4:	60 81       	ld	r22, Z
    1bf6:	8d 91       	ld	r24, X+
    1bf8:	9c 91       	ld	r25, X
    1bfa:	18 da       	rcall	.-3024   	; 0x102c <_ZN7ns_line8sendTeleEjajj>
				mode = 1;
    1bfc:	81 e0       	ldi	r24, 0x01	; 1
    1bfe:	80 93 10 01 	sts	0x0110, r24	; 0x800110 <_ZN7ns_line4modeE>
				return 1;
    1c02:	bb 24       	eor	r11, r11
    1c04:	b3 94       	inc	r11
    1c06:	94 c4       	rjmp	.+2344   	; 0x2530 <_ZN7ns_line6RenderEPjPa+0x1344>
			}
			if ( exN == 2 )
    1c08:	92 30       	cpi	r25, 0x02	; 2
    1c0a:	09 f0       	breq	.+2      	; 0x1c0e <_ZN7ns_line6RenderEPjPa+0xa22>
    1c0c:	a2 c0       	rjmp	.+324    	; 0x1d52 <_ZN7ns_line6RenderEPjPa+0xb66>
			{	// 2013 = +512	base[n-1]		+ ex	:	1-n
				base = distance[n] - distance[1];
    1c0e:	eb a5       	ldd	r30, Y+43	; 0x2b
    1c10:	f0 e0       	ldi	r31, 0x00	; 0
    1c12:	ee 0f       	add	r30, r30
    1c14:	ff 1f       	adc	r31, r31
    1c16:	ea 5f       	subi	r30, 0xFA	; 250
    1c18:	fe 4f       	sbci	r31, 0xFE	; 254
    1c1a:	80 81       	ld	r24, Z
    1c1c:	91 81       	ldd	r25, Z+1	; 0x01
    1c1e:	20 91 08 01 	lds	r18, 0x0108	; 0x800108 <_ZN7ns_line8distanceE+0x2>
    1c22:	30 91 09 01 	lds	r19, 0x0109	; 0x800109 <_ZN7ns_line8distanceE+0x3>
    1c26:	82 1b       	sub	r24, r18
    1c28:	93 0b       	sbc	r25, r19
    1c2a:	9a a7       	std	Y+42, r25	; 0x2a
    1c2c:	89 a7       	std	Y+41, r24	; 0x29
				exLen = (uint16_t)( ( ( ((uint64_t)10) * ((uint64_t)extendT) * ((uint64_t)sampleD) / ((uint64_t)sampleT) ) + 5) / 10);
    1c2e:	8d 8d       	ldd	r24, Y+29	; 0x1d
    1c30:	9e 8d       	ldd	r25, Y+30	; 0x1e
    1c32:	af 8d       	ldd	r26, Y+31	; 0x1f
    1c34:	b8 a1       	ldd	r27, Y+32	; 0x20
    1c36:	ed a1       	ldd	r30, Y+37	; 0x25
    1c38:	fe a1       	ldd	r31, Y+38	; 0x26
    1c3a:	29 a0       	ldd	r2, Y+33	; 0x21
    1c3c:	3a a0       	ldd	r3, Y+34	; 0x22
    1c3e:	4b a0       	ldd	r4, Y+35	; 0x23
    1c40:	5c a0       	ldd	r5, Y+36	; 0x24
    1c42:	5c 01       	movw	r10, r24
    1c44:	6d 01       	movw	r12, r26
    1c46:	e1 2c       	mov	r14, r1
    1c48:	f1 2c       	mov	r15, r1
    1c4a:	87 01       	movw	r16, r14
    1c4c:	8c a7       	std	Y+44, r24	; 0x2c
    1c4e:	bd a6       	std	Y+45, r11	; 0x2d
    1c50:	ce a6       	std	Y+46, r12	; 0x2e
    1c52:	df a6       	std	Y+47, r13	; 0x2f
    1c54:	e8 aa       	std	Y+48, r14	; 0x30
    1c56:	f9 aa       	std	Y+49, r15	; 0x31
    1c58:	0a ab       	std	Y+50, r16	; 0x32
    1c5a:	1b ab       	std	Y+51, r17	; 0x33
    1c5c:	8f 01       	movw	r16, r30
    1c5e:	ae 2e       	mov	r10, r30
    1c60:	b1 2e       	mov	r11, r17
    1c62:	c1 2c       	mov	r12, r1
    1c64:	d1 2c       	mov	r13, r1
    1c66:	e1 2c       	mov	r14, r1
    1c68:	f1 2c       	mov	r15, r1
    1c6a:	00 e0       	ldi	r16, 0x00	; 0
    1c6c:	10 e0       	ldi	r17, 0x00	; 0
    1c6e:	2c a5       	ldd	r18, Y+44	; 0x2c
    1c70:	3d a5       	ldd	r19, Y+45	; 0x2d
    1c72:	4e a5       	ldd	r20, Y+46	; 0x2e
    1c74:	5f a5       	ldd	r21, Y+47	; 0x2f
    1c76:	60 e0       	ldi	r22, 0x00	; 0
    1c78:	70 e0       	ldi	r23, 0x00	; 0
    1c7a:	80 e0       	ldi	r24, 0x00	; 0
    1c7c:	90 e0       	ldi	r25, 0x00	; 0
    1c7e:	0e 94 ff 2c 	call	0x59fe	; 0x59fe <__muldi3>
    1c82:	01 e0       	ldi	r16, 0x01	; 1
    1c84:	0e 94 ae 2d 	call	0x5b5c	; 0x5b5c <__ashldi3>
    1c88:	2c a7       	std	Y+44, r18	; 0x2c
    1c8a:	3c ab       	std	Y+52, r19	; 0x34
    1c8c:	4d ab       	std	Y+53, r20	; 0x35
    1c8e:	5e ab       	std	Y+54, r21	; 0x36
    1c90:	b6 2f       	mov	r27, r22
    1c92:	a7 2f       	mov	r26, r23
    1c94:	f8 2f       	mov	r31, r24
    1c96:	e9 2f       	mov	r30, r25
    1c98:	7a 2f       	mov	r23, r26
    1c9a:	8f 2f       	mov	r24, r31
    1c9c:	9e 2f       	mov	r25, r30
    1c9e:	02 e0       	ldi	r16, 0x02	; 2
    1ca0:	0e 94 ae 2d 	call	0x5b5c	; 0x5b5c <__ashldi3>
    1ca4:	a2 2e       	mov	r10, r18
    1ca6:	b3 2e       	mov	r11, r19
    1ca8:	c4 2e       	mov	r12, r20
    1caa:	d5 2e       	mov	r13, r21
    1cac:	e6 2e       	mov	r14, r22
    1cae:	f7 2e       	mov	r15, r23
    1cb0:	08 2f       	mov	r16, r24
    1cb2:	19 2f       	mov	r17, r25
    1cb4:	2c a5       	ldd	r18, Y+44	; 0x2c
    1cb6:	3c a9       	ldd	r19, Y+52	; 0x34
    1cb8:	4d a9       	ldd	r20, Y+53	; 0x35
    1cba:	5e a9       	ldd	r21, Y+54	; 0x36
    1cbc:	6b 2f       	mov	r22, r27
    1cbe:	7a 2f       	mov	r23, r26
    1cc0:	8f 2f       	mov	r24, r31
    1cc2:	9e 2f       	mov	r25, r30
    1cc4:	0e 94 c7 2d 	call	0x5b8e	; 0x5b8e <__adddi3>
    1cc8:	62 01       	movw	r12, r4
    1cca:	51 01       	movw	r10, r2
    1ccc:	e1 2c       	mov	r14, r1
    1cce:	f1 2c       	mov	r15, r1
    1cd0:	87 01       	movw	r16, r14
    1cd2:	2c a6       	std	Y+44, r2	; 0x2c
    1cd4:	bd a6       	std	Y+45, r11	; 0x2d
    1cd6:	ce a6       	std	Y+46, r12	; 0x2e
    1cd8:	df a6       	std	Y+47, r13	; 0x2f
    1cda:	e8 aa       	std	Y+48, r14	; 0x30
    1cdc:	f9 aa       	std	Y+49, r15	; 0x31
    1cde:	0a ab       	std	Y+50, r16	; 0x32
    1ce0:	1b ab       	std	Y+51, r17	; 0x33
    1ce2:	e1 2c       	mov	r14, r1
    1ce4:	f1 2c       	mov	r15, r1
    1ce6:	00 e0       	ldi	r16, 0x00	; 0
    1ce8:	10 e0       	ldi	r17, 0x00	; 0
    1cea:	0e 94 52 2d 	call	0x5aa4	; 0x5aa4 <__udivdi3>
    1cee:	a5 e0       	ldi	r26, 0x05	; 5
    1cf0:	0e 94 d0 2d 	call	0x5ba0	; 0x5ba0 <__adddi3_s8>
    1cf4:	0f 2e       	mov	r0, r31
    1cf6:	fa e0       	ldi	r31, 0x0A	; 10
    1cf8:	af 2e       	mov	r10, r31
    1cfa:	f0 2d       	mov	r31, r0
    1cfc:	b1 2c       	mov	r11, r1
    1cfe:	c1 2c       	mov	r12, r1
    1d00:	d1 2c       	mov	r13, r1
    1d02:	0e 94 52 2d 	call	0x5aa4	; 0x5aa4 <__udivdi3>
    1d06:	82 2f       	mov	r24, r18
    1d08:	93 2f       	mov	r25, r19
    1d0a:	98 a7       	std	Y+40, r25	; 0x28
    1d0c:	8f a3       	std	Y+39, r24	; 0x27
				*dlina = base + exLen;
    1d0e:	89 a5       	ldd	r24, Y+41	; 0x29
    1d10:	9a a5       	ldd	r25, Y+42	; 0x2a
    1d12:	2f a1       	ldd	r18, Y+39	; 0x27
    1d14:	38 a5       	ldd	r19, Y+40	; 0x28
    1d16:	82 0f       	add	r24, r18
    1d18:	93 1f       	adc	r25, r19
    1d1a:	d4 01       	movw	r26, r8
    1d1c:	11 96       	adiw	r26, 0x01	; 1
    1d1e:	9c 93       	st	X, r25
    1d20:	8e 93       	st	-X, r24
				*sqBas = ((1 * 10) + (n + 0));
    1d22:	8b a5       	ldd	r24, Y+43	; 0x2b
    1d24:	86 5f       	subi	r24, 0xF6	; 246
    1d26:	f3 01       	movw	r30, r6
    1d28:	80 83       	st	Z, r24
				ns_vg::lenTubuExl = exLen;
    1d2a:	8f a1       	ldd	r24, Y+39	; 0x27
    1d2c:	98 a5       	ldd	r25, Y+40	; 0x28
    1d2e:	90 93 fe 01 	sts	0x01FE, r25	; 0x8001fe <_ZN5ns_vg10lenTubuExlE+0x1>
    1d32:	80 93 fd 01 	sts	0x01FD, r24	; 0x8001fd <_ZN5ns_vg10lenTubuExlE>
				sendTele(*dlina, (*sqBas), base, exLen);
    1d36:	2f a1       	ldd	r18, Y+39	; 0x27
    1d38:	38 a5       	ldd	r19, Y+40	; 0x28
    1d3a:	49 a5       	ldd	r20, Y+41	; 0x29
    1d3c:	5a a5       	ldd	r21, Y+42	; 0x2a
    1d3e:	60 81       	ld	r22, Z
    1d40:	8d 91       	ld	r24, X+
    1d42:	9c 91       	ld	r25, X
    1d44:	73 d9       	rcall	.-3354   	; 0x102c <_ZN7ns_line8sendTeleEjajj>
				mode = 1;
    1d46:	81 e0       	ldi	r24, 0x01	; 1
    1d48:	80 93 10 01 	sts	0x0110, r24	; 0x800110 <_ZN7ns_line4modeE>
				return 1;
    1d4c:	bb 24       	eor	r11, r11
    1d4e:	b3 94       	inc	r11
    1d50:	ef c3       	rjmp	.+2014   	; 0x2530 <_ZN7ns_line6RenderEPjPa+0x1344>
			}
			if ( exN == 6 )
    1d52:	96 30       	cpi	r25, 0x06	; 6
    1d54:	09 f0       	breq	.+2      	; 0x1d58 <_ZN7ns_line6RenderEPjPa+0xb6c>
    1d56:	a2 c0       	rjmp	.+324    	; 0x1e9c <_ZN7ns_line6RenderEPjPa+0xcb0>
			{	// 2013 = +xx	base[(n+1)-1]		+ ex	:	1-(n+1)
				base = distance[n+1] - distance[1];
    1d58:	eb a5       	ldd	r30, Y+43	; 0x2b
    1d5a:	f0 e0       	ldi	r31, 0x00	; 0
    1d5c:	ee 0f       	add	r30, r30
    1d5e:	ff 1f       	adc	r31, r31
    1d60:	e8 5f       	subi	r30, 0xF8	; 248
    1d62:	fe 4f       	sbci	r31, 0xFE	; 254
    1d64:	80 81       	ld	r24, Z
    1d66:	91 81       	ldd	r25, Z+1	; 0x01
    1d68:	20 91 08 01 	lds	r18, 0x0108	; 0x800108 <_ZN7ns_line8distanceE+0x2>
    1d6c:	30 91 09 01 	lds	r19, 0x0109	; 0x800109 <_ZN7ns_line8distanceE+0x3>
    1d70:	82 1b       	sub	r24, r18
    1d72:	93 0b       	sbc	r25, r19
    1d74:	9a a7       	std	Y+42, r25	; 0x2a
    1d76:	89 a7       	std	Y+41, r24	; 0x29
				exLen = (uint16_t)( ( ( ((uint64_t)10) * ((uint64_t)extendT) * ((uint64_t)sampleD) / ((uint64_t)sampleT) ) + 5) / 10);
    1d78:	8d 8d       	ldd	r24, Y+29	; 0x1d
    1d7a:	9e 8d       	ldd	r25, Y+30	; 0x1e
    1d7c:	af 8d       	ldd	r26, Y+31	; 0x1f
    1d7e:	b8 a1       	ldd	r27, Y+32	; 0x20
    1d80:	ed a1       	ldd	r30, Y+37	; 0x25
    1d82:	fe a1       	ldd	r31, Y+38	; 0x26
    1d84:	29 a0       	ldd	r2, Y+33	; 0x21
    1d86:	3a a0       	ldd	r3, Y+34	; 0x22
    1d88:	4b a0       	ldd	r4, Y+35	; 0x23
    1d8a:	5c a0       	ldd	r5, Y+36	; 0x24
    1d8c:	5c 01       	movw	r10, r24
    1d8e:	6d 01       	movw	r12, r26
    1d90:	e1 2c       	mov	r14, r1
    1d92:	f1 2c       	mov	r15, r1
    1d94:	87 01       	movw	r16, r14
    1d96:	8c a7       	std	Y+44, r24	; 0x2c
    1d98:	bd a6       	std	Y+45, r11	; 0x2d
    1d9a:	ce a6       	std	Y+46, r12	; 0x2e
    1d9c:	df a6       	std	Y+47, r13	; 0x2f
    1d9e:	e8 aa       	std	Y+48, r14	; 0x30
    1da0:	f9 aa       	std	Y+49, r15	; 0x31
    1da2:	0a ab       	std	Y+50, r16	; 0x32
    1da4:	1b ab       	std	Y+51, r17	; 0x33
    1da6:	8f 01       	movw	r16, r30
    1da8:	ae 2e       	mov	r10, r30
    1daa:	b1 2e       	mov	r11, r17
    1dac:	c1 2c       	mov	r12, r1
    1dae:	d1 2c       	mov	r13, r1
    1db0:	e1 2c       	mov	r14, r1
    1db2:	f1 2c       	mov	r15, r1
    1db4:	00 e0       	ldi	r16, 0x00	; 0
    1db6:	10 e0       	ldi	r17, 0x00	; 0
    1db8:	2c a5       	ldd	r18, Y+44	; 0x2c
    1dba:	3d a5       	ldd	r19, Y+45	; 0x2d
    1dbc:	4e a5       	ldd	r20, Y+46	; 0x2e
    1dbe:	5f a5       	ldd	r21, Y+47	; 0x2f
    1dc0:	60 e0       	ldi	r22, 0x00	; 0
    1dc2:	70 e0       	ldi	r23, 0x00	; 0
    1dc4:	80 e0       	ldi	r24, 0x00	; 0
    1dc6:	90 e0       	ldi	r25, 0x00	; 0
    1dc8:	0e 94 ff 2c 	call	0x59fe	; 0x59fe <__muldi3>
    1dcc:	01 e0       	ldi	r16, 0x01	; 1
    1dce:	0e 94 ae 2d 	call	0x5b5c	; 0x5b5c <__ashldi3>
    1dd2:	2c a7       	std	Y+44, r18	; 0x2c
    1dd4:	3c ab       	std	Y+52, r19	; 0x34
    1dd6:	4d ab       	std	Y+53, r20	; 0x35
    1dd8:	5e ab       	std	Y+54, r21	; 0x36
    1dda:	b6 2f       	mov	r27, r22
    1ddc:	a7 2f       	mov	r26, r23
    1dde:	f8 2f       	mov	r31, r24
    1de0:	e9 2f       	mov	r30, r25
    1de2:	7a 2f       	mov	r23, r26
    1de4:	8f 2f       	mov	r24, r31
    1de6:	9e 2f       	mov	r25, r30
    1de8:	02 e0       	ldi	r16, 0x02	; 2
    1dea:	0e 94 ae 2d 	call	0x5b5c	; 0x5b5c <__ashldi3>
    1dee:	a2 2e       	mov	r10, r18
    1df0:	b3 2e       	mov	r11, r19
    1df2:	c4 2e       	mov	r12, r20
    1df4:	d5 2e       	mov	r13, r21
    1df6:	e6 2e       	mov	r14, r22
    1df8:	f7 2e       	mov	r15, r23
    1dfa:	08 2f       	mov	r16, r24
    1dfc:	19 2f       	mov	r17, r25
    1dfe:	2c a5       	ldd	r18, Y+44	; 0x2c
    1e00:	3c a9       	ldd	r19, Y+52	; 0x34
    1e02:	4d a9       	ldd	r20, Y+53	; 0x35
    1e04:	5e a9       	ldd	r21, Y+54	; 0x36
    1e06:	6b 2f       	mov	r22, r27
    1e08:	7a 2f       	mov	r23, r26
    1e0a:	8f 2f       	mov	r24, r31
    1e0c:	9e 2f       	mov	r25, r30
    1e0e:	0e 94 c7 2d 	call	0x5b8e	; 0x5b8e <__adddi3>
    1e12:	62 01       	movw	r12, r4
    1e14:	51 01       	movw	r10, r2
    1e16:	e1 2c       	mov	r14, r1
    1e18:	f1 2c       	mov	r15, r1
    1e1a:	87 01       	movw	r16, r14
    1e1c:	2c a6       	std	Y+44, r2	; 0x2c
    1e1e:	bd a6       	std	Y+45, r11	; 0x2d
    1e20:	ce a6       	std	Y+46, r12	; 0x2e
    1e22:	df a6       	std	Y+47, r13	; 0x2f
    1e24:	e8 aa       	std	Y+48, r14	; 0x30
    1e26:	f9 aa       	std	Y+49, r15	; 0x31
    1e28:	0a ab       	std	Y+50, r16	; 0x32
    1e2a:	1b ab       	std	Y+51, r17	; 0x33
    1e2c:	e1 2c       	mov	r14, r1
    1e2e:	f1 2c       	mov	r15, r1
    1e30:	00 e0       	ldi	r16, 0x00	; 0
    1e32:	10 e0       	ldi	r17, 0x00	; 0
    1e34:	0e 94 52 2d 	call	0x5aa4	; 0x5aa4 <__udivdi3>
    1e38:	a5 e0       	ldi	r26, 0x05	; 5
    1e3a:	0e 94 d0 2d 	call	0x5ba0	; 0x5ba0 <__adddi3_s8>
    1e3e:	0f 2e       	mov	r0, r31
    1e40:	fa e0       	ldi	r31, 0x0A	; 10
    1e42:	af 2e       	mov	r10, r31
    1e44:	f0 2d       	mov	r31, r0
    1e46:	b1 2c       	mov	r11, r1
    1e48:	c1 2c       	mov	r12, r1
    1e4a:	d1 2c       	mov	r13, r1
    1e4c:	0e 94 52 2d 	call	0x5aa4	; 0x5aa4 <__udivdi3>
    1e50:	82 2f       	mov	r24, r18
    1e52:	93 2f       	mov	r25, r19
    1e54:	98 a7       	std	Y+40, r25	; 0x28
    1e56:	8f a3       	std	Y+39, r24	; 0x27
				*dlina = base + exLen;
    1e58:	89 a5       	ldd	r24, Y+41	; 0x29
    1e5a:	9a a5       	ldd	r25, Y+42	; 0x2a
    1e5c:	2f a1       	ldd	r18, Y+39	; 0x27
    1e5e:	38 a5       	ldd	r19, Y+40	; 0x28
    1e60:	82 0f       	add	r24, r18
    1e62:	93 1f       	adc	r25, r19
    1e64:	d4 01       	movw	r26, r8
    1e66:	11 96       	adiw	r26, 0x01	; 1
    1e68:	9c 93       	st	X, r25
    1e6a:	8e 93       	st	-X, r24
				*sqBas = ((1 * 10) + (n + 1));
    1e6c:	8b a5       	ldd	r24, Y+43	; 0x2b
    1e6e:	85 5f       	subi	r24, 0xF5	; 245
    1e70:	f3 01       	movw	r30, r6
    1e72:	80 83       	st	Z, r24
				ns_vg::lenTubuExl = exLen;
    1e74:	8f a1       	ldd	r24, Y+39	; 0x27
    1e76:	98 a5       	ldd	r25, Y+40	; 0x28
    1e78:	90 93 fe 01 	sts	0x01FE, r25	; 0x8001fe <_ZN5ns_vg10lenTubuExlE+0x1>
    1e7c:	80 93 fd 01 	sts	0x01FD, r24	; 0x8001fd <_ZN5ns_vg10lenTubuExlE>
				sendTele(*dlina, (*sqBas), base, exLen);
    1e80:	2f a1       	ldd	r18, Y+39	; 0x27
    1e82:	38 a5       	ldd	r19, Y+40	; 0x28
    1e84:	49 a5       	ldd	r20, Y+41	; 0x29
    1e86:	5a a5       	ldd	r21, Y+42	; 0x2a
    1e88:	60 81       	ld	r22, Z
    1e8a:	8d 91       	ld	r24, X+
    1e8c:	9c 91       	ld	r25, X
    1e8e:	ce d8       	rcall	.-3684   	; 0x102c <_ZN7ns_line8sendTeleEjajj>
				mode = 1;
    1e90:	81 e0       	ldi	r24, 0x01	; 1
    1e92:	80 93 10 01 	sts	0x0110, r24	; 0x800110 <_ZN7ns_line4modeE>
				return 1;
    1e96:	bb 24       	eor	r11, r11
    1e98:	b3 94       	inc	r11
    1e9a:	4a c3       	rjmp	.+1684   	; 0x2530 <_ZN7ns_line6RenderEPjPa+0x1344>
			}
			if ( exN == 3 )
    1e9c:	93 30       	cpi	r25, 0x03	; 3
    1e9e:	09 f0       	breq	.+2      	; 0x1ea2 <_ZN7ns_line6RenderEPjPa+0xcb6>
    1ea0:	a6 c0       	rjmp	.+332    	; 0x1fee <_ZN7ns_line6RenderEPjPa+0xe02>
			{	// 2013 = -488	base[(n+1)-1]	- ex	:	(n+1)-1
				base = distance[n+1] - distance[1];
    1ea2:	eb a5       	ldd	r30, Y+43	; 0x2b
    1ea4:	f0 e0       	ldi	r31, 0x00	; 0
    1ea6:	ee 0f       	add	r30, r30
    1ea8:	ff 1f       	adc	r31, r31
    1eaa:	e8 5f       	subi	r30, 0xF8	; 248
    1eac:	fe 4f       	sbci	r31, 0xFE	; 254
    1eae:	80 81       	ld	r24, Z
    1eb0:	91 81       	ldd	r25, Z+1	; 0x01
    1eb2:	20 91 08 01 	lds	r18, 0x0108	; 0x800108 <_ZN7ns_line8distanceE+0x2>
    1eb6:	30 91 09 01 	lds	r19, 0x0109	; 0x800109 <_ZN7ns_line8distanceE+0x3>
    1eba:	82 1b       	sub	r24, r18
    1ebc:	93 0b       	sbc	r25, r19
    1ebe:	9a a7       	std	Y+42, r25	; 0x2a
    1ec0:	89 a7       	std	Y+41, r24	; 0x29
				exLen = (uint16_t)( ( ( ((uint64_t)10) * ((uint64_t)extendT) * ((uint64_t)sampleD)  / ((uint64_t)sampleT) ) + 5) / 10);
    1ec2:	8d 8d       	ldd	r24, Y+29	; 0x1d
    1ec4:	9e 8d       	ldd	r25, Y+30	; 0x1e
    1ec6:	af 8d       	ldd	r26, Y+31	; 0x1f
    1ec8:	b8 a1       	ldd	r27, Y+32	; 0x20
    1eca:	ed a1       	ldd	r30, Y+37	; 0x25
    1ecc:	fe a1       	ldd	r31, Y+38	; 0x26
    1ece:	29 a0       	ldd	r2, Y+33	; 0x21
    1ed0:	3a a0       	ldd	r3, Y+34	; 0x22
    1ed2:	4b a0       	ldd	r4, Y+35	; 0x23
    1ed4:	5c a0       	ldd	r5, Y+36	; 0x24
    1ed6:	5c 01       	movw	r10, r24
    1ed8:	6d 01       	movw	r12, r26
    1eda:	e1 2c       	mov	r14, r1
    1edc:	f1 2c       	mov	r15, r1
    1ede:	87 01       	movw	r16, r14
    1ee0:	8c a7       	std	Y+44, r24	; 0x2c
    1ee2:	bd a6       	std	Y+45, r11	; 0x2d
    1ee4:	ce a6       	std	Y+46, r12	; 0x2e
    1ee6:	df a6       	std	Y+47, r13	; 0x2f
    1ee8:	e8 aa       	std	Y+48, r14	; 0x30
    1eea:	f9 aa       	std	Y+49, r15	; 0x31
    1eec:	0a ab       	std	Y+50, r16	; 0x32
    1eee:	1b ab       	std	Y+51, r17	; 0x33
    1ef0:	8f 01       	movw	r16, r30
    1ef2:	ae 2e       	mov	r10, r30
    1ef4:	b1 2e       	mov	r11, r17
    1ef6:	c1 2c       	mov	r12, r1
    1ef8:	d1 2c       	mov	r13, r1
    1efa:	e1 2c       	mov	r14, r1
    1efc:	f1 2c       	mov	r15, r1
    1efe:	00 e0       	ldi	r16, 0x00	; 0
    1f00:	10 e0       	ldi	r17, 0x00	; 0
    1f02:	2c a5       	ldd	r18, Y+44	; 0x2c
    1f04:	3d a5       	ldd	r19, Y+45	; 0x2d
    1f06:	4e a5       	ldd	r20, Y+46	; 0x2e
    1f08:	5f a5       	ldd	r21, Y+47	; 0x2f
    1f0a:	60 e0       	ldi	r22, 0x00	; 0
    1f0c:	70 e0       	ldi	r23, 0x00	; 0
    1f0e:	80 e0       	ldi	r24, 0x00	; 0
    1f10:	90 e0       	ldi	r25, 0x00	; 0
    1f12:	0e 94 ff 2c 	call	0x59fe	; 0x59fe <__muldi3>
    1f16:	01 e0       	ldi	r16, 0x01	; 1
    1f18:	0e 94 ae 2d 	call	0x5b5c	; 0x5b5c <__ashldi3>
    1f1c:	2c a7       	std	Y+44, r18	; 0x2c
    1f1e:	3c ab       	std	Y+52, r19	; 0x34
    1f20:	4d ab       	std	Y+53, r20	; 0x35
    1f22:	5e ab       	std	Y+54, r21	; 0x36
    1f24:	b6 2f       	mov	r27, r22
    1f26:	a7 2f       	mov	r26, r23
    1f28:	f8 2f       	mov	r31, r24
    1f2a:	e9 2f       	mov	r30, r25
    1f2c:	7a 2f       	mov	r23, r26
    1f2e:	8f 2f       	mov	r24, r31
    1f30:	9e 2f       	mov	r25, r30
    1f32:	02 e0       	ldi	r16, 0x02	; 2
    1f34:	0e 94 ae 2d 	call	0x5b5c	; 0x5b5c <__ashldi3>
    1f38:	a2 2e       	mov	r10, r18
    1f3a:	b3 2e       	mov	r11, r19
    1f3c:	c4 2e       	mov	r12, r20
    1f3e:	d5 2e       	mov	r13, r21
    1f40:	e6 2e       	mov	r14, r22
    1f42:	f7 2e       	mov	r15, r23
    1f44:	08 2f       	mov	r16, r24
    1f46:	19 2f       	mov	r17, r25
    1f48:	2c a5       	ldd	r18, Y+44	; 0x2c
    1f4a:	3c a9       	ldd	r19, Y+52	; 0x34
    1f4c:	4d a9       	ldd	r20, Y+53	; 0x35
    1f4e:	5e a9       	ldd	r21, Y+54	; 0x36
    1f50:	6b 2f       	mov	r22, r27
    1f52:	7a 2f       	mov	r23, r26
    1f54:	8f 2f       	mov	r24, r31
    1f56:	9e 2f       	mov	r25, r30
    1f58:	0e 94 c7 2d 	call	0x5b8e	; 0x5b8e <__adddi3>
    1f5c:	62 01       	movw	r12, r4
    1f5e:	51 01       	movw	r10, r2
    1f60:	e1 2c       	mov	r14, r1
    1f62:	f1 2c       	mov	r15, r1
    1f64:	87 01       	movw	r16, r14
    1f66:	2c a6       	std	Y+44, r2	; 0x2c
    1f68:	bd a6       	std	Y+45, r11	; 0x2d
    1f6a:	ce a6       	std	Y+46, r12	; 0x2e
    1f6c:	df a6       	std	Y+47, r13	; 0x2f
    1f6e:	e8 aa       	std	Y+48, r14	; 0x30
    1f70:	f9 aa       	std	Y+49, r15	; 0x31
    1f72:	0a ab       	std	Y+50, r16	; 0x32
    1f74:	1b ab       	std	Y+51, r17	; 0x33
    1f76:	e1 2c       	mov	r14, r1
    1f78:	f1 2c       	mov	r15, r1
    1f7a:	00 e0       	ldi	r16, 0x00	; 0
    1f7c:	10 e0       	ldi	r17, 0x00	; 0
    1f7e:	0e 94 52 2d 	call	0x5aa4	; 0x5aa4 <__udivdi3>
    1f82:	a5 e0       	ldi	r26, 0x05	; 5
    1f84:	0e 94 d0 2d 	call	0x5ba0	; 0x5ba0 <__adddi3_s8>
    1f88:	0f 2e       	mov	r0, r31
    1f8a:	fa e0       	ldi	r31, 0x0A	; 10
    1f8c:	af 2e       	mov	r10, r31
    1f8e:	f0 2d       	mov	r31, r0
    1f90:	b1 2c       	mov	r11, r1
    1f92:	c1 2c       	mov	r12, r1
    1f94:	d1 2c       	mov	r13, r1
    1f96:	0e 94 52 2d 	call	0x5aa4	; 0x5aa4 <__udivdi3>
    1f9a:	82 2f       	mov	r24, r18
    1f9c:	93 2f       	mov	r25, r19
    1f9e:	98 a7       	std	Y+40, r25	; 0x28
    1fa0:	8f a3       	std	Y+39, r24	; 0x27
				*dlina = base - exLen;
    1fa2:	89 a5       	ldd	r24, Y+41	; 0x29
    1fa4:	9a a5       	ldd	r25, Y+42	; 0x2a
    1fa6:	2f a1       	ldd	r18, Y+39	; 0x27
    1fa8:	38 a5       	ldd	r19, Y+40	; 0x28
    1faa:	82 1b       	sub	r24, r18
    1fac:	93 0b       	sbc	r25, r19
    1fae:	d4 01       	movw	r26, r8
    1fb0:	11 96       	adiw	r26, 0x01	; 1
    1fb2:	9c 93       	st	X, r25
    1fb4:	8e 93       	st	-X, r24
				*sqBas = -((1 * 10) + (n + 1));
    1fb6:	9b a5       	ldd	r25, Y+43	; 0x2b
    1fb8:	85 ef       	ldi	r24, 0xF5	; 245
    1fba:	89 1b       	sub	r24, r25
    1fbc:	f3 01       	movw	r30, r6
    1fbe:	80 83       	st	Z, r24
				ns_vg::lenTubuExl = -exLen;
    1fc0:	8f a1       	ldd	r24, Y+39	; 0x27
    1fc2:	98 a5       	ldd	r25, Y+40	; 0x28
    1fc4:	91 95       	neg	r25
    1fc6:	81 95       	neg	r24
    1fc8:	91 09       	sbc	r25, r1
    1fca:	90 93 fe 01 	sts	0x01FE, r25	; 0x8001fe <_ZN5ns_vg10lenTubuExlE+0x1>
    1fce:	80 93 fd 01 	sts	0x01FD, r24	; 0x8001fd <_ZN5ns_vg10lenTubuExlE>
				sendTele(*dlina, (*sqBas), base, exLen);
    1fd2:	2f a1       	ldd	r18, Y+39	; 0x27
    1fd4:	38 a5       	ldd	r19, Y+40	; 0x28
    1fd6:	49 a5       	ldd	r20, Y+41	; 0x29
    1fd8:	5a a5       	ldd	r21, Y+42	; 0x2a
    1fda:	60 81       	ld	r22, Z
    1fdc:	8d 91       	ld	r24, X+
    1fde:	9c 91       	ld	r25, X
    1fe0:	25 d8       	rcall	.-4022   	; 0x102c <_ZN7ns_line8sendTeleEjajj>
				mode = 1;
    1fe2:	81 e0       	ldi	r24, 0x01	; 1
    1fe4:	80 93 10 01 	sts	0x0110, r24	; 0x800110 <_ZN7ns_line4modeE>
				return 1;
    1fe8:	bb 24       	eor	r11, r11
    1fea:	b3 94       	inc	r11
    1fec:	a1 c2       	rjmp	.+1346   	; 0x2530 <_ZN7ns_line6RenderEPjPa+0x1344>
			}
			if ( exN == 4 )
    1fee:	94 30       	cpi	r25, 0x04	; 4
    1ff0:	09 f0       	breq	.+2      	; 0x1ff4 <_ZN7ns_line6RenderEPjPa+0xe08>
    1ff2:	a6 c0       	rjmp	.+332    	; 0x2140 <_ZN7ns_line6RenderEPjPa+0xf54>
			{	// 2013 = -988	base[(n+1)-0]	- ex	:	(n+1)-0
				base = distance[n+1] - distance[0];
    1ff4:	eb a5       	ldd	r30, Y+43	; 0x2b
    1ff6:	f0 e0       	ldi	r31, 0x00	; 0
    1ff8:	ee 0f       	add	r30, r30
    1ffa:	ff 1f       	adc	r31, r31
    1ffc:	e8 5f       	subi	r30, 0xF8	; 248
    1ffe:	fe 4f       	sbci	r31, 0xFE	; 254
    2000:	80 81       	ld	r24, Z
    2002:	91 81       	ldd	r25, Z+1	; 0x01
    2004:	20 91 06 01 	lds	r18, 0x0106	; 0x800106 <_ZN7ns_line8distanceE>
    2008:	30 91 07 01 	lds	r19, 0x0107	; 0x800107 <_ZN7ns_line8distanceE+0x1>
    200c:	82 1b       	sub	r24, r18
    200e:	93 0b       	sbc	r25, r19
    2010:	9a a7       	std	Y+42, r25	; 0x2a
    2012:	89 a7       	std	Y+41, r24	; 0x29
				exLen = (uint16_t)( ( ( ((uint64_t)10) * ((uint64_t)extendT) * ((uint64_t)sampleD) / ((uint64_t)sampleT) ) + 5) / 10);
    2014:	8d 8d       	ldd	r24, Y+29	; 0x1d
    2016:	9e 8d       	ldd	r25, Y+30	; 0x1e
    2018:	af 8d       	ldd	r26, Y+31	; 0x1f
    201a:	b8 a1       	ldd	r27, Y+32	; 0x20
    201c:	ed a1       	ldd	r30, Y+37	; 0x25
    201e:	fe a1       	ldd	r31, Y+38	; 0x26
    2020:	29 a0       	ldd	r2, Y+33	; 0x21
    2022:	3a a0       	ldd	r3, Y+34	; 0x22
    2024:	4b a0       	ldd	r4, Y+35	; 0x23
    2026:	5c a0       	ldd	r5, Y+36	; 0x24
    2028:	5c 01       	movw	r10, r24
    202a:	6d 01       	movw	r12, r26
    202c:	e1 2c       	mov	r14, r1
    202e:	f1 2c       	mov	r15, r1
    2030:	87 01       	movw	r16, r14
    2032:	8c a7       	std	Y+44, r24	; 0x2c
    2034:	bd a6       	std	Y+45, r11	; 0x2d
    2036:	ce a6       	std	Y+46, r12	; 0x2e
    2038:	df a6       	std	Y+47, r13	; 0x2f
    203a:	e8 aa       	std	Y+48, r14	; 0x30
    203c:	f9 aa       	std	Y+49, r15	; 0x31
    203e:	0a ab       	std	Y+50, r16	; 0x32
    2040:	1b ab       	std	Y+51, r17	; 0x33
    2042:	8f 01       	movw	r16, r30
    2044:	ae 2e       	mov	r10, r30
    2046:	b1 2e       	mov	r11, r17
    2048:	c1 2c       	mov	r12, r1
    204a:	d1 2c       	mov	r13, r1
    204c:	e1 2c       	mov	r14, r1
    204e:	f1 2c       	mov	r15, r1
    2050:	00 e0       	ldi	r16, 0x00	; 0
    2052:	10 e0       	ldi	r17, 0x00	; 0
    2054:	2c a5       	ldd	r18, Y+44	; 0x2c
    2056:	3d a5       	ldd	r19, Y+45	; 0x2d
    2058:	4e a5       	ldd	r20, Y+46	; 0x2e
    205a:	5f a5       	ldd	r21, Y+47	; 0x2f
    205c:	60 e0       	ldi	r22, 0x00	; 0
    205e:	70 e0       	ldi	r23, 0x00	; 0
    2060:	80 e0       	ldi	r24, 0x00	; 0
    2062:	90 e0       	ldi	r25, 0x00	; 0
    2064:	0e 94 ff 2c 	call	0x59fe	; 0x59fe <__muldi3>
    2068:	01 e0       	ldi	r16, 0x01	; 1
    206a:	0e 94 ae 2d 	call	0x5b5c	; 0x5b5c <__ashldi3>
    206e:	2c a7       	std	Y+44, r18	; 0x2c
    2070:	3c ab       	std	Y+52, r19	; 0x34
    2072:	4d ab       	std	Y+53, r20	; 0x35
    2074:	5e ab       	std	Y+54, r21	; 0x36
    2076:	b6 2f       	mov	r27, r22
    2078:	a7 2f       	mov	r26, r23
    207a:	f8 2f       	mov	r31, r24
    207c:	e9 2f       	mov	r30, r25
    207e:	7a 2f       	mov	r23, r26
    2080:	8f 2f       	mov	r24, r31
    2082:	9e 2f       	mov	r25, r30
    2084:	02 e0       	ldi	r16, 0x02	; 2
    2086:	0e 94 ae 2d 	call	0x5b5c	; 0x5b5c <__ashldi3>
    208a:	a2 2e       	mov	r10, r18
    208c:	b3 2e       	mov	r11, r19
    208e:	c4 2e       	mov	r12, r20
    2090:	d5 2e       	mov	r13, r21
    2092:	e6 2e       	mov	r14, r22
    2094:	f7 2e       	mov	r15, r23
    2096:	08 2f       	mov	r16, r24
    2098:	19 2f       	mov	r17, r25
    209a:	2c a5       	ldd	r18, Y+44	; 0x2c
    209c:	3c a9       	ldd	r19, Y+52	; 0x34
    209e:	4d a9       	ldd	r20, Y+53	; 0x35
    20a0:	5e a9       	ldd	r21, Y+54	; 0x36
    20a2:	6b 2f       	mov	r22, r27
    20a4:	7a 2f       	mov	r23, r26
    20a6:	8f 2f       	mov	r24, r31
    20a8:	9e 2f       	mov	r25, r30
    20aa:	0e 94 c7 2d 	call	0x5b8e	; 0x5b8e <__adddi3>
    20ae:	62 01       	movw	r12, r4
    20b0:	51 01       	movw	r10, r2
    20b2:	e1 2c       	mov	r14, r1
    20b4:	f1 2c       	mov	r15, r1
    20b6:	87 01       	movw	r16, r14
    20b8:	2c a6       	std	Y+44, r2	; 0x2c
    20ba:	bd a6       	std	Y+45, r11	; 0x2d
    20bc:	ce a6       	std	Y+46, r12	; 0x2e
    20be:	df a6       	std	Y+47, r13	; 0x2f
    20c0:	e8 aa       	std	Y+48, r14	; 0x30
    20c2:	f9 aa       	std	Y+49, r15	; 0x31
    20c4:	0a ab       	std	Y+50, r16	; 0x32
    20c6:	1b ab       	std	Y+51, r17	; 0x33
    20c8:	e1 2c       	mov	r14, r1
    20ca:	f1 2c       	mov	r15, r1
    20cc:	00 e0       	ldi	r16, 0x00	; 0
    20ce:	10 e0       	ldi	r17, 0x00	; 0
    20d0:	0e 94 52 2d 	call	0x5aa4	; 0x5aa4 <__udivdi3>
    20d4:	a5 e0       	ldi	r26, 0x05	; 5
    20d6:	0e 94 d0 2d 	call	0x5ba0	; 0x5ba0 <__adddi3_s8>
    20da:	0f 2e       	mov	r0, r31
    20dc:	fa e0       	ldi	r31, 0x0A	; 10
    20de:	af 2e       	mov	r10, r31
    20e0:	f0 2d       	mov	r31, r0
    20e2:	b1 2c       	mov	r11, r1
    20e4:	c1 2c       	mov	r12, r1
    20e6:	d1 2c       	mov	r13, r1
    20e8:	0e 94 52 2d 	call	0x5aa4	; 0x5aa4 <__udivdi3>
    20ec:	82 2f       	mov	r24, r18
    20ee:	93 2f       	mov	r25, r19
    20f0:	98 a7       	std	Y+40, r25	; 0x28
    20f2:	8f a3       	std	Y+39, r24	; 0x27
				*dlina = base - exLen;
    20f4:	89 a5       	ldd	r24, Y+41	; 0x29
    20f6:	9a a5       	ldd	r25, Y+42	; 0x2a
    20f8:	2f a1       	ldd	r18, Y+39	; 0x27
    20fa:	38 a5       	ldd	r19, Y+40	; 0x28
    20fc:	82 1b       	sub	r24, r18
    20fe:	93 0b       	sbc	r25, r19
    2100:	d4 01       	movw	r26, r8
    2102:	11 96       	adiw	r26, 0x01	; 1
    2104:	9c 93       	st	X, r25
    2106:	8e 93       	st	-X, r24
				*sqBas = -((0 * 10) + (n + 1));
    2108:	8b a5       	ldd	r24, Y+43	; 0x2b
    210a:	80 95       	com	r24
    210c:	f3 01       	movw	r30, r6
    210e:	80 83       	st	Z, r24
				ns_vg::lenTubuExl = -exLen;
    2110:	8f a1       	ldd	r24, Y+39	; 0x27
    2112:	98 a5       	ldd	r25, Y+40	; 0x28
    2114:	91 95       	neg	r25
    2116:	81 95       	neg	r24
    2118:	91 09       	sbc	r25, r1
    211a:	90 93 fe 01 	sts	0x01FE, r25	; 0x8001fe <_ZN5ns_vg10lenTubuExlE+0x1>
    211e:	80 93 fd 01 	sts	0x01FD, r24	; 0x8001fd <_ZN5ns_vg10lenTubuExlE>
				sendTele(*dlina, (*sqBas), base, exLen);
    2122:	2f a1       	ldd	r18, Y+39	; 0x27
    2124:	38 a5       	ldd	r19, Y+40	; 0x28
    2126:	49 a5       	ldd	r20, Y+41	; 0x29
    2128:	5a a5       	ldd	r21, Y+42	; 0x2a
    212a:	60 81       	ld	r22, Z
    212c:	8d 91       	ld	r24, X+
    212e:	9c 91       	ld	r25, X
    2130:	0e 94 16 08 	call	0x102c	; 0x102c <_ZN7ns_line8sendTeleEjajj>
				mode = 1;
    2134:	81 e0       	ldi	r24, 0x01	; 1
    2136:	80 93 10 01 	sts	0x0110, r24	; 0x800110 <_ZN7ns_line4modeE>
				return 1;
    213a:	bb 24       	eor	r11, r11
    213c:	b3 94       	inc	r11
    213e:	f8 c1       	rjmp	.+1008   	; 0x2530 <_ZN7ns_line6RenderEPjPa+0x1344>
			}
		}
			ns_rs232::String_P(PSTR("unknow error\r\n\r\n"));
    2140:	8c e8       	ldi	r24, 0x8C	; 140
    2142:	90 e0       	ldi	r25, 0x00	; 0
    2144:	0e 94 dd 2b 	call	0x57ba	; 0x57ba <_ZN8ns_rs2328String_PEPKc>
			mode = 1;
    2148:	81 e0       	ldi	r24, 0x01	; 1
    214a:	80 93 10 01 	sts	0x0110, r24	; 0x800110 <_ZN7ns_line4modeE>
			return 0;
    214e:	f0 c1       	rjmp	.+992    	; 0x2530 <_ZN7ns_line6RenderEPjPa+0x1344>
		ns_rs232::String_P(PSTR("\r\n") );
	}
	//
	uint8_t Render(uint16_t* dlina, int8_t* sqBas)
	{
		if (mode != 0) return 0; // no render mode
    2150:	b1 2c       	mov	r11, r1
    2152:	ee c1       	rjmp	.+988    	; 0x2530 <_ZN7ns_line6RenderEPjPa+0x1344>
			return 1;
		}
		else
		if ( (times[0][1] >= times[4][0]) && (times[4][0] != 0) )
		{	// tube long d1-d5
			base = distance[4] - distance[0];
    2154:	80 91 0e 01 	lds	r24, 0x010E	; 0x80010e <_ZN7ns_line8distanceE+0x8>
    2158:	90 91 0f 01 	lds	r25, 0x010F	; 0x80010f <_ZN7ns_line8distanceE+0x9>
    215c:	8c 19       	sub	r24, r12
    215e:	9d 09       	sbc	r25, r13
    2160:	9a a7       	std	Y+42, r25	; 0x2a
    2162:	89 a7       	std	Y+41, r24	; 0x29
			extendT = times[0][1] - times[4][0];
    2164:	e3 e5       	ldi	r30, 0x53	; 83
    2166:	f1 e0       	ldi	r31, 0x01	; 1
    2168:	84 81       	ldd	r24, Z+4	; 0x04
    216a:	95 81       	ldd	r25, Z+5	; 0x05
    216c:	a6 81       	ldd	r26, Z+6	; 0x06
    216e:	b7 81       	ldd	r27, Z+7	; 0x07
    2170:	40 a1       	ldd	r20, Z+32	; 0x20
    2172:	51 a1       	ldd	r21, Z+33	; 0x21
    2174:	62 a1       	ldd	r22, Z+34	; 0x22
    2176:	73 a1       	ldd	r23, Z+35	; 0x23
    2178:	84 1b       	sub	r24, r20
    217a:	95 0b       	sbc	r25, r21
    217c:	a6 0b       	sbc	r26, r22
    217e:	b7 0b       	sbc	r27, r23
    2180:	8d 8f       	std	Y+29, r24	; 0x1d
    2182:	9e 8f       	std	Y+30, r25	; 0x1e
    2184:	af 8f       	std	Y+31, r26	; 0x1f
    2186:	b8 a3       	std	Y+32, r27	; 0x20
			exLen = (uint16_t)( ((uint64_t)extendT) * ((uint64_t)sampleD) / ((uint64_t)sampleT) );
    2188:	0d 8d       	ldd	r16, Y+29	; 0x1d
    218a:	1e 8d       	ldd	r17, Y+30	; 0x1e
    218c:	2f 8d       	ldd	r18, Y+31	; 0x1f
    218e:	38 a1       	ldd	r19, Y+32	; 0x20
    2190:	ed a1       	ldd	r30, Y+37	; 0x25
    2192:	fe a1       	ldd	r31, Y+38	; 0x26
    2194:	29 a0       	ldd	r2, Y+33	; 0x21
    2196:	3a a0       	ldd	r3, Y+34	; 0x22
    2198:	4b a0       	ldd	r4, Y+35	; 0x23
    219a:	5c a0       	ldd	r5, Y+36	; 0x24
    219c:	af 01       	movw	r20, r30
    219e:	60 e0       	ldi	r22, 0x00	; 0
    21a0:	70 e0       	ldi	r23, 0x00	; 0
    21a2:	80 e0       	ldi	r24, 0x00	; 0
    21a4:	90 e0       	ldi	r25, 0x00	; 0
    21a6:	dc 01       	movw	r26, r24
    21a8:	ec a7       	std	Y+44, r30	; 0x2c
    21aa:	5d a7       	std	Y+45, r21	; 0x2d
    21ac:	6e a7       	std	Y+46, r22	; 0x2e
    21ae:	7f a7       	std	Y+47, r23	; 0x2f
    21b0:	88 ab       	std	Y+48, r24	; 0x30
    21b2:	99 ab       	std	Y+49, r25	; 0x31
    21b4:	aa ab       	std	Y+50, r26	; 0x32
    21b6:	bb ab       	std	Y+51, r27	; 0x33
    21b8:	a0 2e       	mov	r10, r16
    21ba:	b1 2e       	mov	r11, r17
    21bc:	c2 2e       	mov	r12, r18
    21be:	d3 2e       	mov	r13, r19
    21c0:	e1 2c       	mov	r14, r1
    21c2:	f1 2c       	mov	r15, r1
    21c4:	00 e0       	ldi	r16, 0x00	; 0
    21c6:	10 e0       	ldi	r17, 0x00	; 0
    21c8:	2c a5       	ldd	r18, Y+44	; 0x2c
    21ca:	3d a5       	ldd	r19, Y+45	; 0x2d
    21cc:	40 e0       	ldi	r20, 0x00	; 0
    21ce:	50 e0       	ldi	r21, 0x00	; 0
    21d0:	60 e0       	ldi	r22, 0x00	; 0
    21d2:	70 e0       	ldi	r23, 0x00	; 0
    21d4:	80 e0       	ldi	r24, 0x00	; 0
    21d6:	90 e0       	ldi	r25, 0x00	; 0
    21d8:	0e 94 ff 2c 	call	0x59fe	; 0x59fe <__muldi3>
    21dc:	62 01       	movw	r12, r4
    21de:	51 01       	movw	r10, r2
    21e0:	e1 2c       	mov	r14, r1
    21e2:	f1 2c       	mov	r15, r1
    21e4:	87 01       	movw	r16, r14
    21e6:	2c a6       	std	Y+44, r2	; 0x2c
    21e8:	bd a6       	std	Y+45, r11	; 0x2d
    21ea:	ce a6       	std	Y+46, r12	; 0x2e
    21ec:	df a6       	std	Y+47, r13	; 0x2f
    21ee:	e8 aa       	std	Y+48, r14	; 0x30
    21f0:	f9 aa       	std	Y+49, r15	; 0x31
    21f2:	0a ab       	std	Y+50, r16	; 0x32
    21f4:	1b ab       	std	Y+51, r17	; 0x33
    21f6:	e1 2c       	mov	r14, r1
    21f8:	f1 2c       	mov	r15, r1
    21fa:	00 e0       	ldi	r16, 0x00	; 0
    21fc:	10 e0       	ldi	r17, 0x00	; 0
    21fe:	0e 94 52 2d 	call	0x5aa4	; 0x5aa4 <__udivdi3>
    2202:	82 2f       	mov	r24, r18
    2204:	93 2f       	mov	r25, r19
    2206:	98 a7       	std	Y+40, r25	; 0x28
    2208:	8f a3       	std	Y+39, r24	; 0x27
			*dlina = base + exLen;
    220a:	89 a5       	ldd	r24, Y+41	; 0x29
    220c:	9a a5       	ldd	r25, Y+42	; 0x2a
    220e:	2f a1       	ldd	r18, Y+39	; 0x27
    2210:	38 a5       	ldd	r19, Y+40	; 0x28
    2212:	82 0f       	add	r24, r18
    2214:	93 1f       	adc	r25, r19
    2216:	d4 01       	movw	r26, r8
    2218:	11 96       	adiw	r26, 0x01	; 1
    221a:	9c 93       	st	X, r25
    221c:	8e 93       	st	-X, r24
			ns_vg::lenTubuStat = 1;
    221e:	11 e0       	ldi	r17, 0x01	; 1
    2220:	10 93 fb 01 	sts	0x01FB, r17	; 0x8001fb <_ZN5ns_vg11lenTubuStatE>
			ns_vg::exN = 9;
    2224:	89 e0       	ldi	r24, 0x09	; 9
    2226:	80 93 f9 01 	sts	0x01F9, r24	; 0x8001f9 <_ZN5ns_vg3exNE>
			ns_vg::lenTubuExl = exLen;
    222a:	8f a1       	ldd	r24, Y+39	; 0x27
    222c:	98 a5       	ldd	r25, Y+40	; 0x28
    222e:	90 93 fe 01 	sts	0x01FE, r25	; 0x8001fe <_ZN5ns_vg10lenTubuExlE+0x1>
    2232:	80 93 fd 01 	sts	0x01FD, r24	; 0x8001fd <_ZN5ns_vg10lenTubuExlE>
			*sqBas = 04;
    2236:	84 e0       	ldi	r24, 0x04	; 4
    2238:	f3 01       	movw	r30, r6
    223a:	80 83       	st	Z, r24
			sendTele(*dlina, *sqBas, base, exLen);
    223c:	2f a1       	ldd	r18, Y+39	; 0x27
    223e:	38 a5       	ldd	r19, Y+40	; 0x28
    2240:	49 a5       	ldd	r20, Y+41	; 0x29
    2242:	5a a5       	ldd	r21, Y+42	; 0x2a
    2244:	64 e0       	ldi	r22, 0x04	; 4
    2246:	8d 91       	ld	r24, X+
    2248:	9c 91       	ld	r25, X
    224a:	0e 94 16 08 	call	0x102c	; 0x102c <_ZN7ns_line8sendTeleEjajj>
			ns_vg::sqBas = *sqBas;
    224e:	d3 01       	movw	r26, r6
    2250:	8c 91       	ld	r24, X
    2252:	80 93 fa 01 	sts	0x01FA, r24	; 0x8001fa <_ZN5ns_vg5sqBasE>
			mode = 1;
    2256:	10 93 10 01 	sts	0x0110, r17	; 0x800110 <_ZN7ns_line4modeE>
			return 1;
    225a:	bb 24       	eor	r11, r11
    225c:	b3 94       	inc	r11
    225e:	68 c1       	rjmp	.+720    	; 0x2530 <_ZN7ns_line6RenderEPjPa+0x1344>
		}
		else
		{
			// find right sensor
			for (n = 2; n < 4; n++)
    2260:	82 e0       	ldi	r24, 0x02	; 2
    2262:	8b a7       	std	Y+43, r24	; 0x2b
    2264:	8b a5       	ldd	r24, Y+43	; 0x2b
    2266:	84 30       	cpi	r24, 0x04	; 4
    2268:	08 f4       	brcc	.+2      	; 0x226c <_ZN7ns_line6RenderEPjPa+0x1080>
    226a:	cf c8       	rjmp	.-3682   	; 0x140a <_ZN7ns_line6RenderEPjPa+0x21e>
    226c:	de 01       	movw	r26, r28
    226e:	11 96       	adiw	r26, 0x01	; 1
    2270:	ce 01       	movw	r24, r28
    2272:	4d 96       	adiw	r24, 0x1d	; 29
		ns_rs232::String_P(PSTR("\r\n") );
		ns_rs232::String_P(PSTR("\r\n") );
	}
	//
	uint8_t Render(uint16_t* dlina, int8_t* sqBas)
	{
    2274:	fd 01       	movw	r30, r26
				if ( (times[1][1] >= times[n][0]) && (times[1][1] < times[n+1][0]) )
					break;
			}
			
			uint32_t ex[7];
			for (uint8_t i=0; i<7; i++) ex[i] = 99999;
    2276:	4f e9       	ldi	r20, 0x9F	; 159
    2278:	56 e8       	ldi	r21, 0x86	; 134
    227a:	61 e0       	ldi	r22, 0x01	; 1
    227c:	70 e0       	ldi	r23, 0x00	; 0
    227e:	25 c9       	rjmp	.-3510   	; 0x14ca <_ZN7ns_line6RenderEPjPa+0x2de>
			return 1;
		}
		else
		{
			// find right sensor
			for (n = 2; n < 4; n++)
    2280:	8b a5       	ldd	r24, Y+43	; 0x2b
    2282:	8f 5f       	subi	r24, 0xFF	; 255
    2284:	8b a7       	std	Y+43, r24	; 0x2b
    2286:	8b a5       	ldd	r24, Y+43	; 0x2b
    2288:	84 30       	cpi	r24, 0x04	; 4
    228a:	08 f4       	brcc	.+2      	; 0x228e <_ZN7ns_line6RenderEPjPa+0x10a2>
    228c:	d3 c8       	rjmp	.-3674   	; 0x1434 <_ZN7ns_line6RenderEPjPa+0x248>
    228e:	ee cf       	rjmp	.-36     	; 0x226c <_ZN7ns_line6RenderEPjPa+0x1080>
			
			// render all metod
			
			if ( (times[n][0] > times[0][1]) && (times[n][0] != 0) && (n < 5) )
					{
						extendT = times[n][0] - times[0][1];		// 1920 = -20	base[n-0]		- ex	:	n-0
    2290:	eb a5       	ldd	r30, Y+43	; 0x2b
    2292:	f0 e0       	ldi	r31, 0x00	; 0
    2294:	ee 0f       	add	r30, r30
    2296:	ff 1f       	adc	r31, r31
    2298:	ee 0f       	add	r30, r30
    229a:	ff 1f       	adc	r31, r31
    229c:	ee 0f       	add	r30, r30
    229e:	ff 1f       	adc	r31, r31
    22a0:	ed 5a       	subi	r30, 0xAD	; 173
    22a2:	fe 4f       	sbci	r31, 0xFE	; 254
    22a4:	40 81       	ld	r20, Z
    22a6:	51 81       	ldd	r21, Z+1	; 0x01
    22a8:	62 81       	ldd	r22, Z+2	; 0x02
    22aa:	73 81       	ldd	r23, Z+3	; 0x03
    22ac:	00 91 57 01 	lds	r16, 0x0157	; 0x800157 <_ZN7ns_line5timesE+0x4>
    22b0:	10 91 58 01 	lds	r17, 0x0158	; 0x800158 <_ZN7ns_line5timesE+0x5>
    22b4:	20 91 59 01 	lds	r18, 0x0159	; 0x800159 <_ZN7ns_line5timesE+0x6>
    22b8:	30 91 5a 01 	lds	r19, 0x015A	; 0x80015a <_ZN7ns_line5timesE+0x7>
    22bc:	40 1b       	sub	r20, r16
    22be:	51 0b       	sbc	r21, r17
    22c0:	62 0b       	sbc	r22, r18
    22c2:	73 0b       	sbc	r23, r19
    22c4:	4d 8f       	std	Y+29, r20	; 0x1d
    22c6:	5e 8f       	std	Y+30, r21	; 0x1e
    22c8:	6f 8f       	std	Y+31, r22	; 0x1f
    22ca:	78 a3       	std	Y+32, r23	; 0x20
						ex[0] = extendT;
    22cc:	4d 8d       	ldd	r20, Y+29	; 0x1d
    22ce:	5e 8d       	ldd	r21, Y+30	; 0x1e
    22d0:	6f 8d       	ldd	r22, Y+31	; 0x1f
    22d2:	78 a1       	ldd	r23, Y+32	; 0x20
    22d4:	49 83       	std	Y+1, r20	; 0x01
    22d6:	5a 83       	std	Y+2, r21	; 0x02
    22d8:	6b 83       	std	Y+3, r22	; 0x03
    22da:	7c 83       	std	Y+4, r23	; 0x04
    22dc:	31 c9       	rjmp	.-3486   	; 0x1540 <_ZN7ns_line6RenderEPjPa+0x354>
					}
			else    ex[0] = 99999;
    22de:	4f e9       	ldi	r20, 0x9F	; 159
    22e0:	56 e8       	ldi	r21, 0x86	; 134
    22e2:	61 e0       	ldi	r22, 0x01	; 1
    22e4:	70 e0       	ldi	r23, 0x00	; 0
    22e6:	49 83       	std	Y+1, r20	; 0x01
    22e8:	5a 83       	std	Y+2, r21	; 0x02
    22ea:	6b 83       	std	Y+3, r22	; 0x03
    22ec:	7c 83       	std	Y+4, r23	; 0x04
    22ee:	28 c9       	rjmp	.-3504   	; 0x1540 <_ZN7ns_line6RenderEPjPa+0x354>
			
			if ( (times[0][1] >= times[n][0]) && (times[n][0] != 0) && (n < 5) )
					{
						extendT = times[0][1] - times[n][0];		// 2013 = +12	base[n-0]		+ ex	:	0-n
    22f0:	40 91 57 01 	lds	r20, 0x0157	; 0x800157 <_ZN7ns_line5timesE+0x4>
    22f4:	50 91 58 01 	lds	r21, 0x0158	; 0x800158 <_ZN7ns_line5timesE+0x5>
    22f8:	60 91 59 01 	lds	r22, 0x0159	; 0x800159 <_ZN7ns_line5timesE+0x6>
    22fc:	70 91 5a 01 	lds	r23, 0x015A	; 0x80015a <_ZN7ns_line5timesE+0x7>
    2300:	eb a5       	ldd	r30, Y+43	; 0x2b
    2302:	f0 e0       	ldi	r31, 0x00	; 0
    2304:	ee 0f       	add	r30, r30
    2306:	ff 1f       	adc	r31, r31
    2308:	ee 0f       	add	r30, r30
    230a:	ff 1f       	adc	r31, r31
    230c:	ee 0f       	add	r30, r30
    230e:	ff 1f       	adc	r31, r31
    2310:	ed 5a       	subi	r30, 0xAD	; 173
    2312:	fe 4f       	sbci	r31, 0xFE	; 254
    2314:	00 81       	ld	r16, Z
    2316:	11 81       	ldd	r17, Z+1	; 0x01
    2318:	22 81       	ldd	r18, Z+2	; 0x02
    231a:	33 81       	ldd	r19, Z+3	; 0x03
    231c:	40 1b       	sub	r20, r16
    231e:	51 0b       	sbc	r21, r17
    2320:	62 0b       	sbc	r22, r18
    2322:	73 0b       	sbc	r23, r19
    2324:	4d 8f       	std	Y+29, r20	; 0x1d
    2326:	5e 8f       	std	Y+30, r21	; 0x1e
    2328:	6f 8f       	std	Y+31, r22	; 0x1f
    232a:	78 a3       	std	Y+32, r23	; 0x20
						ex[1] = extendT;
    232c:	4d 8d       	ldd	r20, Y+29	; 0x1d
    232e:	5e 8d       	ldd	r21, Y+30	; 0x1e
    2330:	6f 8d       	ldd	r22, Y+31	; 0x1f
    2332:	78 a1       	ldd	r23, Y+32	; 0x20
    2334:	4d 83       	std	Y+5, r20	; 0x05
    2336:	5e 83       	std	Y+6, r21	; 0x06
    2338:	6f 83       	std	Y+7, r22	; 0x07
    233a:	78 87       	std	Y+8, r23	; 0x08
    233c:	35 c9       	rjmp	.-3478   	; 0x15a8 <_ZN7ns_line6RenderEPjPa+0x3bc>
					}
			else	ex[1] = 99999;
    233e:	4f e9       	ldi	r20, 0x9F	; 159
    2340:	56 e8       	ldi	r21, 0x86	; 134
    2342:	61 e0       	ldi	r22, 0x01	; 1
    2344:	70 e0       	ldi	r23, 0x00	; 0
    2346:	4d 83       	std	Y+5, r20	; 0x05
    2348:	5e 83       	std	Y+6, r21	; 0x06
    234a:	6f 83       	std	Y+7, r22	; 0x07
    234c:	78 87       	std	Y+8, r23	; 0x08
    234e:	2c c9       	rjmp	.-3496   	; 0x15a8 <_ZN7ns_line6RenderEPjPa+0x3bc>
			
			if ( (times[0][1] >= times[n+1][0]) && (times[n+1][0] != 0) && ((n + 1) < 5) )
					{
						extendT = times[0][1] - times[n+1][0];		// 2013 = +xx	base[(n+1)-0]	+ ex	:	0-(n+1)
    2350:	40 91 57 01 	lds	r20, 0x0157	; 0x800157 <_ZN7ns_line5timesE+0x4>
    2354:	50 91 58 01 	lds	r21, 0x0158	; 0x800158 <_ZN7ns_line5timesE+0x5>
    2358:	60 91 59 01 	lds	r22, 0x0159	; 0x800159 <_ZN7ns_line5timesE+0x6>
    235c:	70 91 5a 01 	lds	r23, 0x015A	; 0x80015a <_ZN7ns_line5timesE+0x7>
    2360:	eb a5       	ldd	r30, Y+43	; 0x2b
    2362:	f0 e0       	ldi	r31, 0x00	; 0
    2364:	ee 0f       	add	r30, r30
    2366:	ff 1f       	adc	r31, r31
    2368:	ee 0f       	add	r30, r30
    236a:	ff 1f       	adc	r31, r31
    236c:	ee 0f       	add	r30, r30
    236e:	ff 1f       	adc	r31, r31
    2370:	e5 5a       	subi	r30, 0xA5	; 165
    2372:	fe 4f       	sbci	r31, 0xFE	; 254
    2374:	00 81       	ld	r16, Z
    2376:	11 81       	ldd	r17, Z+1	; 0x01
    2378:	22 81       	ldd	r18, Z+2	; 0x02
    237a:	33 81       	ldd	r19, Z+3	; 0x03
    237c:	40 1b       	sub	r20, r16
    237e:	51 0b       	sbc	r21, r17
    2380:	62 0b       	sbc	r22, r18
    2382:	73 0b       	sbc	r23, r19
    2384:	4d 8f       	std	Y+29, r20	; 0x1d
    2386:	5e 8f       	std	Y+30, r21	; 0x1e
    2388:	6f 8f       	std	Y+31, r22	; 0x1f
    238a:	78 a3       	std	Y+32, r23	; 0x20
						ex[5] = extendT;
    238c:	4d 8d       	ldd	r20, Y+29	; 0x1d
    238e:	5e 8d       	ldd	r21, Y+30	; 0x1e
    2390:	6f 8d       	ldd	r22, Y+31	; 0x1f
    2392:	78 a1       	ldd	r23, Y+32	; 0x20
    2394:	4d 8b       	std	Y+21, r20	; 0x15
    2396:	5e 8b       	std	Y+22, r21	; 0x16
    2398:	6f 8b       	std	Y+23, r22	; 0x17
    239a:	78 8f       	std	Y+24, r23	; 0x18
    239c:	3b c9       	rjmp	.-3466   	; 0x1614 <_ZN7ns_line6RenderEPjPa+0x428>
					}
			else	ex[5] = 99999;
    239e:	4f e9       	ldi	r20, 0x9F	; 159
    23a0:	56 e8       	ldi	r21, 0x86	; 134
    23a2:	61 e0       	ldi	r22, 0x01	; 1
    23a4:	70 e0       	ldi	r23, 0x00	; 0
    23a6:	4d 8b       	std	Y+21, r20	; 0x15
    23a8:	5e 8b       	std	Y+22, r21	; 0x16
    23aa:	6f 8b       	std	Y+23, r22	; 0x17
    23ac:	78 8f       	std	Y+24, r23	; 0x18
    23ae:	32 c9       	rjmp	.-3484   	; 0x1614 <_ZN7ns_line6RenderEPjPa+0x428>

			if ( (times[1][1] >= times[n][0]) && (times[n][0] != 0) && (n < 5) )
					{
						extendT = times[1][1] - times[n][0];		// 2013 = +512	base[n-1]		+ ex	:	1-n
    23b0:	40 91 5f 01 	lds	r20, 0x015F	; 0x80015f <_ZN7ns_line5timesE+0xc>
    23b4:	50 91 60 01 	lds	r21, 0x0160	; 0x800160 <_ZN7ns_line5timesE+0xd>
    23b8:	60 91 61 01 	lds	r22, 0x0161	; 0x800161 <_ZN7ns_line5timesE+0xe>
    23bc:	70 91 62 01 	lds	r23, 0x0162	; 0x800162 <_ZN7ns_line5timesE+0xf>
    23c0:	eb a5       	ldd	r30, Y+43	; 0x2b
    23c2:	f0 e0       	ldi	r31, 0x00	; 0
    23c4:	ee 0f       	add	r30, r30
    23c6:	ff 1f       	adc	r31, r31
    23c8:	ee 0f       	add	r30, r30
    23ca:	ff 1f       	adc	r31, r31
    23cc:	ee 0f       	add	r30, r30
    23ce:	ff 1f       	adc	r31, r31
    23d0:	ed 5a       	subi	r30, 0xAD	; 173
    23d2:	fe 4f       	sbci	r31, 0xFE	; 254
    23d4:	00 81       	ld	r16, Z
    23d6:	11 81       	ldd	r17, Z+1	; 0x01
    23d8:	22 81       	ldd	r18, Z+2	; 0x02
    23da:	33 81       	ldd	r19, Z+3	; 0x03
    23dc:	40 1b       	sub	r20, r16
    23de:	51 0b       	sbc	r21, r17
    23e0:	62 0b       	sbc	r22, r18
    23e2:	73 0b       	sbc	r23, r19
    23e4:	4d 8f       	std	Y+29, r20	; 0x1d
    23e6:	5e 8f       	std	Y+30, r21	; 0x1e
    23e8:	6f 8f       	std	Y+31, r22	; 0x1f
    23ea:	78 a3       	std	Y+32, r23	; 0x20
						ex[2] = extendT;
    23ec:	4d 8d       	ldd	r20, Y+29	; 0x1d
    23ee:	5e 8d       	ldd	r21, Y+30	; 0x1e
    23f0:	6f 8d       	ldd	r22, Y+31	; 0x1f
    23f2:	78 a1       	ldd	r23, Y+32	; 0x20
    23f4:	49 87       	std	Y+9, r20	; 0x09
    23f6:	5a 87       	std	Y+10, r21	; 0x0a
    23f8:	6b 87       	std	Y+11, r22	; 0x0b
    23fa:	7c 87       	std	Y+12, r23	; 0x0c
    23fc:	3f c9       	rjmp	.-3458   	; 0x167c <_ZN7ns_line6RenderEPjPa+0x490>
					}
			else	ex[2] = 99999;
    23fe:	4f e9       	ldi	r20, 0x9F	; 159
    2400:	56 e8       	ldi	r21, 0x86	; 134
    2402:	61 e0       	ldi	r22, 0x01	; 1
    2404:	70 e0       	ldi	r23, 0x00	; 0
    2406:	49 87       	std	Y+9, r20	; 0x09
    2408:	5a 87       	std	Y+10, r21	; 0x0a
    240a:	6b 87       	std	Y+11, r22	; 0x0b
    240c:	7c 87       	std	Y+12, r23	; 0x0c
    240e:	36 c9       	rjmp	.-3476   	; 0x167c <_ZN7ns_line6RenderEPjPa+0x490>

			if ( (times[1][1] >= times[n+1][0]) && (times[n+1][0] != 0) && ((n + 1) < 5) )
					{
						extendT = times[1][1] - times[n+1][0];		// 2013 = +xx	base[(n+1)-1]		+ ex	:	1-(n+1)
    2410:	40 91 5f 01 	lds	r20, 0x015F	; 0x80015f <_ZN7ns_line5timesE+0xc>
    2414:	50 91 60 01 	lds	r21, 0x0160	; 0x800160 <_ZN7ns_line5timesE+0xd>
    2418:	60 91 61 01 	lds	r22, 0x0161	; 0x800161 <_ZN7ns_line5timesE+0xe>
    241c:	70 91 62 01 	lds	r23, 0x0162	; 0x800162 <_ZN7ns_line5timesE+0xf>
    2420:	eb a5       	ldd	r30, Y+43	; 0x2b
    2422:	f0 e0       	ldi	r31, 0x00	; 0
    2424:	ee 0f       	add	r30, r30
    2426:	ff 1f       	adc	r31, r31
    2428:	ee 0f       	add	r30, r30
    242a:	ff 1f       	adc	r31, r31
    242c:	ee 0f       	add	r30, r30
    242e:	ff 1f       	adc	r31, r31
    2430:	e5 5a       	subi	r30, 0xA5	; 165
    2432:	fe 4f       	sbci	r31, 0xFE	; 254
    2434:	00 81       	ld	r16, Z
    2436:	11 81       	ldd	r17, Z+1	; 0x01
    2438:	22 81       	ldd	r18, Z+2	; 0x02
    243a:	33 81       	ldd	r19, Z+3	; 0x03
    243c:	40 1b       	sub	r20, r16
    243e:	51 0b       	sbc	r21, r17
    2440:	62 0b       	sbc	r22, r18
    2442:	73 0b       	sbc	r23, r19
    2444:	4d 8f       	std	Y+29, r20	; 0x1d
    2446:	5e 8f       	std	Y+30, r21	; 0x1e
    2448:	6f 8f       	std	Y+31, r22	; 0x1f
    244a:	78 a3       	std	Y+32, r23	; 0x20
						ex[6] = extendT;
    244c:	4d 8d       	ldd	r20, Y+29	; 0x1d
    244e:	5e 8d       	ldd	r21, Y+30	; 0x1e
    2450:	6f 8d       	ldd	r22, Y+31	; 0x1f
    2452:	78 a1       	ldd	r23, Y+32	; 0x20
    2454:	49 8f       	std	Y+25, r20	; 0x19
    2456:	5a 8f       	std	Y+26, r21	; 0x1a
    2458:	6b 8f       	std	Y+27, r22	; 0x1b
    245a:	7c 8f       	std	Y+28, r23	; 0x1c
    245c:	45 c9       	rjmp	.-3446   	; 0x16e8 <_ZN7ns_line6RenderEPjPa+0x4fc>
					}
			else	ex[6] = 99999;
    245e:	4f e9       	ldi	r20, 0x9F	; 159
    2460:	56 e8       	ldi	r21, 0x86	; 134
    2462:	61 e0       	ldi	r22, 0x01	; 1
    2464:	70 e0       	ldi	r23, 0x00	; 0
    2466:	49 8f       	std	Y+25, r20	; 0x19
    2468:	5a 8f       	std	Y+26, r21	; 0x1a
    246a:	6b 8f       	std	Y+27, r22	; 0x1b
    246c:	7c 8f       	std	Y+28, r23	; 0x1c
    246e:	3c c9       	rjmp	.-3464   	; 0x16e8 <_ZN7ns_line6RenderEPjPa+0x4fc>

			if ( (times[n+1][0] > times[1][1]) && (times[n+1][0] != 0) && ((n + 1) < 5) )
					{
						extendT = times[n+1][0] - times[1][1];	// 2013 = -488	base[(n+1)-1]	- ex	:	(n+1)-1
    2470:	eb a5       	ldd	r30, Y+43	; 0x2b
    2472:	f0 e0       	ldi	r31, 0x00	; 0
    2474:	ee 0f       	add	r30, r30
    2476:	ff 1f       	adc	r31, r31
    2478:	ee 0f       	add	r30, r30
    247a:	ff 1f       	adc	r31, r31
    247c:	ee 0f       	add	r30, r30
    247e:	ff 1f       	adc	r31, r31
    2480:	e5 5a       	subi	r30, 0xA5	; 165
    2482:	fe 4f       	sbci	r31, 0xFE	; 254
    2484:	40 81       	ld	r20, Z
    2486:	51 81       	ldd	r21, Z+1	; 0x01
    2488:	62 81       	ldd	r22, Z+2	; 0x02
    248a:	73 81       	ldd	r23, Z+3	; 0x03
    248c:	00 91 5f 01 	lds	r16, 0x015F	; 0x80015f <_ZN7ns_line5timesE+0xc>
    2490:	10 91 60 01 	lds	r17, 0x0160	; 0x800160 <_ZN7ns_line5timesE+0xd>
    2494:	20 91 61 01 	lds	r18, 0x0161	; 0x800161 <_ZN7ns_line5timesE+0xe>
    2498:	30 91 62 01 	lds	r19, 0x0162	; 0x800162 <_ZN7ns_line5timesE+0xf>
    249c:	40 1b       	sub	r20, r16
    249e:	51 0b       	sbc	r21, r17
    24a0:	62 0b       	sbc	r22, r18
    24a2:	73 0b       	sbc	r23, r19
    24a4:	4d 8f       	std	Y+29, r20	; 0x1d
    24a6:	5e 8f       	std	Y+30, r21	; 0x1e
    24a8:	6f 8f       	std	Y+31, r22	; 0x1f
    24aa:	78 a3       	std	Y+32, r23	; 0x20
						ex[3] = extendT;
    24ac:	4d 8d       	ldd	r20, Y+29	; 0x1d
    24ae:	5e 8d       	ldd	r21, Y+30	; 0x1e
    24b0:	6f 8d       	ldd	r22, Y+31	; 0x1f
    24b2:	78 a1       	ldd	r23, Y+32	; 0x20
    24b4:	4d 87       	std	Y+13, r20	; 0x0d
    24b6:	5e 87       	std	Y+14, r21	; 0x0e
    24b8:	6f 87       	std	Y+15, r22	; 0x0f
    24ba:	78 8b       	std	Y+16, r23	; 0x10
    24bc:	4b c9       	rjmp	.-3434   	; 0x1754 <_ZN7ns_line6RenderEPjPa+0x568>
					}
			else	ex[3] = 99999;
    24be:	4f e9       	ldi	r20, 0x9F	; 159
    24c0:	56 e8       	ldi	r21, 0x86	; 134
    24c2:	61 e0       	ldi	r22, 0x01	; 1
    24c4:	70 e0       	ldi	r23, 0x00	; 0
    24c6:	4d 87       	std	Y+13, r20	; 0x0d
    24c8:	5e 87       	std	Y+14, r21	; 0x0e
    24ca:	6f 87       	std	Y+15, r22	; 0x0f
    24cc:	78 8b       	std	Y+16, r23	; 0x10
    24ce:	42 c9       	rjmp	.-3452   	; 0x1754 <_ZN7ns_line6RenderEPjPa+0x568>

			if ( (times[n+1][0] > times[0][1]) && (times[n+1][0] != 0) && ((n + 1) < 5) )
					{
						extendT = times[n+1][0] - times[0][1];	// 2013 = -988	base[(n+1)-0]	- ex	:	(n+1)-0
    24d0:	eb a5       	ldd	r30, Y+43	; 0x2b
    24d2:	f0 e0       	ldi	r31, 0x00	; 0
    24d4:	ee 0f       	add	r30, r30
    24d6:	ff 1f       	adc	r31, r31
    24d8:	ee 0f       	add	r30, r30
    24da:	ff 1f       	adc	r31, r31
    24dc:	ee 0f       	add	r30, r30
    24de:	ff 1f       	adc	r31, r31
    24e0:	e5 5a       	subi	r30, 0xA5	; 165
    24e2:	fe 4f       	sbci	r31, 0xFE	; 254
    24e4:	40 81       	ld	r20, Z
    24e6:	51 81       	ldd	r21, Z+1	; 0x01
    24e8:	62 81       	ldd	r22, Z+2	; 0x02
    24ea:	73 81       	ldd	r23, Z+3	; 0x03
    24ec:	00 91 57 01 	lds	r16, 0x0157	; 0x800157 <_ZN7ns_line5timesE+0x4>
    24f0:	10 91 58 01 	lds	r17, 0x0158	; 0x800158 <_ZN7ns_line5timesE+0x5>
    24f4:	20 91 59 01 	lds	r18, 0x0159	; 0x800159 <_ZN7ns_line5timesE+0x6>
    24f8:	30 91 5a 01 	lds	r19, 0x015A	; 0x80015a <_ZN7ns_line5timesE+0x7>
    24fc:	40 1b       	sub	r20, r16
    24fe:	51 0b       	sbc	r21, r17
    2500:	62 0b       	sbc	r22, r18
    2502:	73 0b       	sbc	r23, r19
    2504:	4d 8f       	std	Y+29, r20	; 0x1d
    2506:	5e 8f       	std	Y+30, r21	; 0x1e
    2508:	6f 8f       	std	Y+31, r22	; 0x1f
    250a:	78 a3       	std	Y+32, r23	; 0x20
						ex[4] = extendT;
    250c:	4d 8d       	ldd	r20, Y+29	; 0x1d
    250e:	5e 8d       	ldd	r21, Y+30	; 0x1e
    2510:	6f 8d       	ldd	r22, Y+31	; 0x1f
    2512:	78 a1       	ldd	r23, Y+32	; 0x20
    2514:	49 8b       	std	Y+17, r20	; 0x11
    2516:	5a 8b       	std	Y+18, r21	; 0x12
    2518:	6b 8b       	std	Y+19, r22	; 0x13
    251a:	7c 8b       	std	Y+20, r23	; 0x14
    251c:	51 c9       	rjmp	.-3422   	; 0x17c0 <_ZN7ns_line6RenderEPjPa+0x5d4>
					}
			else	ex[4] = (uint32_t)99999;
    251e:	4f e9       	ldi	r20, 0x9F	; 159
    2520:	56 e8       	ldi	r21, 0x86	; 134
    2522:	61 e0       	ldi	r22, 0x01	; 1
    2524:	70 e0       	ldi	r23, 0x00	; 0
    2526:	49 8b       	std	Y+17, r20	; 0x11
    2528:	5a 8b       	std	Y+18, r21	; 0x12
    252a:	6b 8b       	std	Y+19, r22	; 0x13
    252c:	7c 8b       	std	Y+20, r23	; 0x14
    252e:	48 c9       	rjmp	.-3440   	; 0x17c0 <_ZN7ns_line6RenderEPjPa+0x5d4>
			}
		}
			ns_rs232::String_P(PSTR("unknow error\r\n\r\n"));
			mode = 1;
			return 0;
	}
    2530:	8b 2d       	mov	r24, r11
    2532:	e6 96       	adiw	r28, 0x36	; 54
    2534:	0f b6       	in	r0, 0x3f	; 63
    2536:	f8 94       	cli
    2538:	de bf       	out	0x3e, r29	; 62
    253a:	0f be       	out	0x3f, r0	; 63
    253c:	cd bf       	out	0x3d, r28	; 61
    253e:	df 91       	pop	r29
    2540:	cf 91       	pop	r28
    2542:	1f 91       	pop	r17
    2544:	0f 91       	pop	r16
    2546:	ff 90       	pop	r15
    2548:	ef 90       	pop	r14
    254a:	df 90       	pop	r13
    254c:	cf 90       	pop	r12
    254e:	bf 90       	pop	r11
    2550:	af 90       	pop	r10
    2552:	9f 90       	pop	r9
    2554:	8f 90       	pop	r8
    2556:	7f 90       	pop	r7
    2558:	6f 90       	pop	r6
    255a:	5f 90       	pop	r5
    255c:	4f 90       	pop	r4
    255e:	3f 90       	pop	r3
    2560:	2f 90       	pop	r2
    2562:	08 95       	ret

00002564 <main>:
#include "system/path.h"
#include <avr/interrupt.h>


int main(void)
{
    2564:	cf 93       	push	r28
    2566:	df 93       	push	r29
    2568:	00 d0       	rcall	.+0      	; 0x256a <main+0x6>
    256a:	1f 92       	push	r1
    256c:	cd b7       	in	r28, 0x3d	; 61
    256e:	de b7       	in	r29, 0x3e	; 62
	ns_line::times[2][1] = 0;
	ns_line::times[3][1] = 0;
	ns_line::times[4][1] = 0;
	ns_line::Render(&dlinaDe, &sqBasDe);
*/
	ns_device::Init();
    2570:	0e 94 a3 23 	call	0x4746	; 0x4746 <_ZN9ns_device4InitEv>
	ns_module::Init();
    2574:	0e 94 be 21 	call	0x437c	; 0x437c <_ZN9ns_module4InitEv>
	// ===========
	sei();
    2578:	78 94       	sei
    /* Replace with your application code */
	uint16_t dlina;
	int8_t sqBas;
	scr::Clear();
    257a:	0e 94 63 26 	call	0x4cc6	; 0x4cc6 <_ZN6ns_lcd5ClearEv>
	scr::String(scr::SetPosition(0, 0), "Doctor_4");
    257e:	60 e0       	ldi	r22, 0x00	; 0
    2580:	80 e0       	ldi	r24, 0x00	; 0
    2582:	0e 94 8f 27 	call	0x4f1e	; 0x4f1e <_ZN6ns_lcd11SetPositionEhh>
    2586:	61 e3       	ldi	r22, 0x31	; 49
    2588:	71 e0       	ldi	r23, 0x01	; 1
    258a:	0e 94 57 28 	call	0x50ae	; 0x50ae <_ZN6ns_lcd6StringEhPKc>
	ns_rs232::String_P(PSTR("Restart system\r\n\r\n") );
    258e:	82 ee       	ldi	r24, 0xE2	; 226
    2590:	90 e0       	ldi	r25, 0x00	; 0
    2592:	0e 94 dd 2b 	call	0x57ba	; 0x57ba <_ZN8ns_rs2328String_PEPKc>
	__delay_ms(1000);
    2596:	2f ef       	ldi	r18, 0xFF	; 255
    2598:	43 ed       	ldi	r20, 0xD3	; 211
    259a:	80 e3       	ldi	r24, 0x30	; 48
    259c:	21 50       	subi	r18, 0x01	; 1
    259e:	40 40       	sbci	r20, 0x00	; 0
    25a0:	80 40       	sbci	r24, 0x00	; 0
    25a2:	e1 f7       	brne	.-8      	; 0x259c <main+0x38>
    25a4:	00 c0       	rjmp	.+0      	; 0x25a6 <main+0x42>
    25a6:	00 00       	nop
	ns_menu::Init();
    25a8:	85 d4       	rcall	.+2314   	; 0x2eb4 <_ZN7ns_menu4InitEv>
	ns_watchdog::enabled();
    25aa:	0e 94 9b 2c 	call	0x5936	; 0x5936 <_ZN11ns_watchdog7enabledEv>
				ns_vg::lenTubeNew = 1;
			}
			else
			{
				ns_vg::lenTube = dlina;
				ns_vg::lenTubeNew = 1;
    25ae:	11 e0       	ldi	r17, 0x01	; 1
						ns_clock::time[CT_HOUR],
						ns_clock::time[CT_MINUTE],
						ns_archive::idx+1, // !!!!!!!!!!!!!!!!!!!!!!!!!!!!!!!!!!!!!!
						dlina,
						sqBas
					);
    25b0:	0f 2e       	mov	r0, r31
    25b2:	f6 ec       	ldi	r31, 0xC6	; 198
    25b4:	8f 2e       	mov	r8, r31
    25b6:	f1 e0       	ldi	r31, 0x01	; 1
    25b8:	9f 2e       	mov	r9, r31
    25ba:	f0 2d       	mov	r31, r0
		ns_watchdog::reset();
		if (ns_line::Render(&dlina, &sqBas))
		{
			if ((dlina > 13000) || (dlina < 8000))
			{
				ns_vg::lenTubuStat = 10;
    25bc:	0f 2e       	mov	r0, r31
    25be:	fa e0       	ldi	r31, 0x0A	; 10
    25c0:	bf 2e       	mov	r11, r31
    25c2:	f0 2d       	mov	r31, r0
	__delay_ms(1000);
	ns_menu::Init();
	ns_watchdog::enabled();
    while (1) 
    {
		ns_watchdog::reset();
    25c4:	0e 94 a4 2c 	call	0x5948	; 0x5948 <_ZN11ns_watchdog5resetEv>
		if (ns_line::Render(&dlina, &sqBas))
    25c8:	be 01       	movw	r22, r28
    25ca:	6d 5f       	subi	r22, 0xFD	; 253
    25cc:	7f 4f       	sbci	r23, 0xFF	; 255
    25ce:	ce 01       	movw	r24, r28
    25d0:	01 96       	adiw	r24, 0x01	; 1
    25d2:	0e 94 f6 08 	call	0x11ec	; 0x11ec <_ZN7ns_line6RenderEPjPa>
    25d6:	88 23       	and	r24, r24
    25d8:	a1 f1       	breq	.+104    	; 0x2642 <main+0xde>
		{
			if ((dlina > 13000) || (dlina < 8000))
    25da:	89 81       	ldd	r24, Y+1	; 0x01
    25dc:	9a 81       	ldd	r25, Y+2	; 0x02
    25de:	9c 01       	movw	r18, r24
    25e0:	20 54       	subi	r18, 0x40	; 64
    25e2:	3f 41       	sbci	r19, 0x1F	; 31
    25e4:	29 38       	cpi	r18, 0x89	; 137
    25e6:	33 41       	sbci	r19, 0x13	; 19
    25e8:	28 f0       	brcs	.+10     	; 0x25f4 <main+0x90>
			{
				ns_vg::lenTubuStat = 10;
    25ea:	b0 92 fb 01 	sts	0x01FB, r11	; 0x8001fb <_ZN5ns_vg11lenTubuStatE>
				ns_vg::lenTubeNew = 1;
    25ee:	10 93 fc 01 	sts	0x01FC, r17	; 0x8001fc <_ZN5ns_vg10lenTubeNewE>
    25f2:	27 c0       	rjmp	.+78     	; 0x2642 <main+0xde>
			}
			else
			{
				ns_vg::lenTube = dlina;
    25f4:	90 93 30 01 	sts	0x0130, r25	; 0x800130 <_ZN5ns_vg7lenTubeE+0x1>
    25f8:	80 93 2f 01 	sts	0x012F, r24	; 0x80012f <_ZN5ns_vg7lenTubeE>
				ns_vg::lenTubeNew = 1;
    25fc:	10 93 fc 01 	sts	0x01FC, r17	; 0x8001fc <_ZN5ns_vg10lenTubeNewE>
				ns_vg::nTube = ns_archive::idx + 1;
    2600:	80 91 3f 01 	lds	r24, 0x013F	; 0x80013f <_ZN10ns_archive3idxE>
    2604:	90 91 40 01 	lds	r25, 0x0140	; 0x800140 <_ZN10ns_archive3idxE+0x1>
    2608:	01 96       	adiw	r24, 0x01	; 1
    260a:	90 93 00 02 	sts	0x0200, r25	; 0x800200 <_ZN5ns_vg5nTubeE+0x1>
    260e:	80 93 ff 01 	sts	0x01FF, r24	; 0x8001ff <_ZN5ns_vg5nTubeE>
				ns_vg::sqBas = sqBas;
    2612:	8b 81       	ldd	r24, Y+3	; 0x03
    2614:	80 93 fa 01 	sts	0x01FA, r24	; 0x8001fa <_ZN5ns_vg5sqBasE>
				CRITICAL_SECTION
    2618:	7f b6       	in	r7, 0x3f	; 63
    return 1;
}

static __inline__ uint8_t __iCliRetVal(void)
{
    cli();
    261a:	f8 94       	cli
						ns_clock::time[CT_HOUR],
						ns_clock::time[CT_MINUTE],
						ns_archive::idx+1, // !!!!!!!!!!!!!!!!!!!!!!!!!!!!!!!!!!!!!!
						dlina,
						sqBas
					);
    261c:	c9 80       	ldd	r12, Y+1	; 0x01
    261e:	da 80       	ldd	r13, Y+2	; 0x02
    2620:	e0 90 3f 01 	lds	r14, 0x013F	; 0x80013f <_ZN10ns_archive3idxE>
    2624:	f0 90 40 01 	lds	r15, 0x0140	; 0x800140 <_ZN10ns_archive3idxE+0x1>
    2628:	ff ef       	ldi	r31, 0xFF	; 255
    262a:	ef 1a       	sub	r14, r31
    262c:	ff 0a       	sbc	r15, r31
    262e:	ab 80       	ldd	r10, Y+3	; 0x03
    2630:	f4 01       	movw	r30, r8
    2632:	01 81       	ldd	r16, Z+1	; 0x01
    2634:	22 81       	ldd	r18, Z+2	; 0x02
    2636:	44 81       	ldd	r20, Z+4	; 0x04
    2638:	65 81       	ldd	r22, Z+5	; 0x05
    263a:	86 81       	ldd	r24, Z+6	; 0x06
    263c:	0e 94 ab 02 	call	0x556	; 0x556 <_ZN10ns_archive4PushEhhhhhjja>
    (void)__s;
}

static __inline__ void __iRestore(const  uint8_t *__s)
{
    SREG = *__s;
    2640:	7f be       	out	0x3f, r7	; 63
				}
				//ns_watchdog::reset();
			}
		}
		ns_archive::Main();
    2642:	0e 94 c5 03 	call	0x78a	; 0x78a <_ZN10ns_archive4MainEv>
		ns_menu::Main();
    2646:	39 d4       	rcall	.+2162   	; 0x2eba <_ZN7ns_menu4MainEv>
    }
    2648:	bd cf       	rjmp	.-134    	; 0x25c4 <main+0x60>

0000264a <_ZN7ns_menu4DupmEh>:
			uint16_t idx = viewarc_idx + viewarc_n;
			while (idx >= ARCHIVE_LEN) idx -= ARCHIVE_LEN;
			key4->autoRepeat = false;
			if (k == 3) eeprom_update_byte(&ns_archive::archive[idx].ok, 0);
			if (k == 5) eeprom_update_byte(&ns_archive::archive[idx].ok, 1);
			view_arcSh();
    264a:	08 95       	ret

0000264c <_ZN7ns_menu11Main_ViewExEh>:
    264c:	0f 93       	push	r16
    264e:	1f 93       	push	r17
    2650:	cf 93       	push	r28
    2652:	df 93       	push	r29
    2654:	1f 92       	push	r1
    2656:	cd b7       	in	r28, 0x3d	; 61
    2658:	de b7       	in	r29, 0x3e	; 62
    265a:	85 30       	cpi	r24, 0x05	; 5
    265c:	b1 f5       	brne	.+108    	; 0x26ca <_ZN7ns_menu11Main_ViewExEh+0x7e>
    265e:	61 e0       	ldi	r22, 0x01	; 1
    2660:	87 e0       	ldi	r24, 0x07	; 7
    2662:	0e 94 8f 27 	call	0x4f1e	; 0x4f1e <_ZN6ns_lcd11SetPositionEhh>
    2666:	89 83       	std	Y+1, r24	; 0x01
    2668:	20 91 fa 01 	lds	r18, 0x01FA	; 0x8001fa <_ZN5ns_vg5sqBasE>
    266c:	27 fd       	sbrc	r18, 7
    266e:	21 95       	neg	r18
    2670:	02 2e       	mov	r0, r18
    2672:	00 0c       	add	r0, r0
    2674:	33 0b       	sbc	r19, r19
    2676:	44 0b       	sbc	r20, r20
    2678:	55 0b       	sbc	r21, r21
    267a:	62 e0       	ldi	r22, 0x02	; 2
    267c:	ce 01       	movw	r24, r28
    267e:	01 96       	adiw	r24, 0x01	; 1
    2680:	0e 94 a6 28 	call	0x514c	; 0x514c <_ZN6ns_lcd6DigitZEPhhl>
    2684:	6a ef       	ldi	r22, 0xFA	; 250
    2686:	71 e0       	ldi	r23, 0x01	; 1
    2688:	ce 01       	movw	r24, r28
    268a:	01 96       	adiw	r24, 0x01	; 1
    268c:	0e 94 64 28 	call	0x50c8	; 0x50c8 <_ZN6ns_lcd8String_PEPhPKc>
    2690:	00 91 fd 01 	lds	r16, 0x01FD	; 0x8001fd <_ZN5ns_vg10lenTubuExlE>
    2694:	10 91 fe 01 	lds	r17, 0x01FE	; 0x8001fe <_ZN5ns_vg10lenTubuExlE+0x1>
    2698:	11 23       	and	r17, r17
    269a:	4c f4       	brge	.+18     	; 0x26ae <_ZN7ns_menu11Main_ViewExEh+0x62>
    269c:	6d e2       	ldi	r22, 0x2D	; 45
    269e:	ce 01       	movw	r24, r28
    26a0:	01 96       	adiw	r24, 0x01	; 1
    26a2:	0e 94 f6 27 	call	0x4fec	; 0x4fec <_ZN6ns_lcd7PutCharEPhc>
    26a6:	11 95       	neg	r17
    26a8:	01 95       	neg	r16
    26aa:	11 09       	sbc	r17, r1
    26ac:	05 c0       	rjmp	.+10     	; 0x26b8 <_ZN7ns_menu11Main_ViewExEh+0x6c>
    26ae:	6b e2       	ldi	r22, 0x2B	; 43
    26b0:	ce 01       	movw	r24, r28
    26b2:	01 96       	adiw	r24, 0x01	; 1
    26b4:	0e 94 f6 27 	call	0x4fec	; 0x4fec <_ZN6ns_lcd7PutCharEPhc>
    26b8:	98 01       	movw	r18, r16
    26ba:	11 0f       	add	r17, r17
    26bc:	44 0b       	sbc	r20, r20
    26be:	55 0b       	sbc	r21, r21
    26c0:	64 e0       	ldi	r22, 0x04	; 4
    26c2:	ce 01       	movw	r24, r28
    26c4:	01 96       	adiw	r24, 0x01	; 1
    26c6:	0e 94 a6 28 	call	0x514c	; 0x514c <_ZN6ns_lcd6DigitZEPhhl>
    26ca:	0f 90       	pop	r0
    26cc:	df 91       	pop	r29
    26ce:	cf 91       	pop	r28
    26d0:	1f 91       	pop	r17
    26d2:	0f 91       	pop	r16
    26d4:	08 95       	ret

000026d6 <_ZN7ns_menu18Menu_CheckPassViewEh>:
    26d6:	ef 92       	push	r14
    26d8:	ff 92       	push	r15
    26da:	1f 93       	push	r17
    26dc:	cf 93       	push	r28
    26de:	df 93       	push	r29
    26e0:	1f 92       	push	r1
    26e2:	cd b7       	in	r28, 0x3d	; 61
    26e4:	de b7       	in	r29, 0x3e	; 62
    26e6:	61 e0       	ldi	r22, 0x01	; 1
    26e8:	85 e0       	ldi	r24, 0x05	; 5
    26ea:	0e 94 8f 27 	call	0x4f1e	; 0x4f1e <_ZN6ns_lcd11SetPositionEhh>
    26ee:	89 83       	std	Y+1, r24	; 0x01
    26f0:	0f 2e       	mov	r0, r31
    26f2:	f0 eb       	ldi	r31, 0xB0	; 176
    26f4:	ef 2e       	mov	r14, r31
    26f6:	f1 e0       	ldi	r31, 0x01	; 1
    26f8:	ff 2e       	mov	r15, r31
    26fa:	f0 2d       	mov	r31, r0
    26fc:	10 e0       	ldi	r17, 0x00	; 0
    26fe:	80 91 b5 01 	lds	r24, 0x01B5	; 0x8001b5 <_ZN7ns_menu10curPosPassE>
    2702:	18 17       	cp	r17, r24
    2704:	40 f4       	brcc	.+16     	; 0x2716 <_ZN7ns_menu18Menu_CheckPassViewEh+0x40>
    2706:	10 92 dc 01 	sts	0x01DC, r1	; 0x8001dc <_ZN6ns_lcd7flickerE>
    270a:	6a e2       	ldi	r22, 0x2A	; 42
    270c:	ce 01       	movw	r24, r28
    270e:	01 96       	adiw	r24, 0x01	; 1
    2710:	0e 94 f6 27 	call	0x4fec	; 0x4fec <_ZN6ns_lcd7PutCharEPhc>
    2714:	13 c0       	rjmp	.+38     	; 0x273c <_ZN7ns_menu18Menu_CheckPassViewEh+0x66>
    2716:	18 13       	cpse	r17, r24
    2718:	0a c0       	rjmp	.+20     	; 0x272e <_ZN7ns_menu18Menu_CheckPassViewEh+0x58>
    271a:	f7 01       	movw	r30, r14
    271c:	60 81       	ld	r22, Z
    271e:	60 5d       	subi	r22, 0xD0	; 208
    2720:	ce 01       	movw	r24, r28
    2722:	01 96       	adiw	r24, 0x01	; 1
    2724:	0e 94 f6 27 	call	0x4fec	; 0x4fec <_ZN6ns_lcd7PutCharEPhc>
    2728:	10 92 dc 01 	sts	0x01DC, r1	; 0x8001dc <_ZN6ns_lcd7flickerE>
    272c:	07 c0       	rjmp	.+14     	; 0x273c <_ZN7ns_menu18Menu_CheckPassViewEh+0x66>
    272e:	10 92 dc 01 	sts	0x01DC, r1	; 0x8001dc <_ZN6ns_lcd7flickerE>
    2732:	6d e2       	ldi	r22, 0x2D	; 45
    2734:	ce 01       	movw	r24, r28
    2736:	01 96       	adiw	r24, 0x01	; 1
    2738:	0e 94 f6 27 	call	0x4fec	; 0x4fec <_ZN6ns_lcd7PutCharEPhc>
    273c:	1f 5f       	subi	r17, 0xFF	; 255
    273e:	ff ef       	ldi	r31, 0xFF	; 255
    2740:	ef 1a       	sub	r14, r31
    2742:	ff 0a       	sbc	r15, r31
    2744:	15 30       	cpi	r17, 0x05	; 5
    2746:	d9 f6       	brne	.-74     	; 0x26fe <_ZN7ns_menu18Menu_CheckPassViewEh+0x28>
    2748:	0f 90       	pop	r0
    274a:	df 91       	pop	r29
    274c:	cf 91       	pop	r28
    274e:	1f 91       	pop	r17
    2750:	ff 90       	pop	r15
    2752:	ef 90       	pop	r14
    2754:	08 95       	ret

00002756 <_ZN7ns_menu19Menu_CheckPassMinusEh>:
    2756:	e0 91 d6 01 	lds	r30, 0x01D6	; 0x8001d6 <key4>
    275a:	f0 91 d7 01 	lds	r31, 0x01D7	; 0x8001d7 <key4+0x1>
    275e:	91 e0       	ldi	r25, 0x01	; 1
    2760:	90 83       	st	Z, r25
    2762:	20 91 b5 01 	lds	r18, 0x01B5	; 0x8001b5 <_ZN7ns_menu10curPosPassE>
    2766:	30 e0       	ldi	r19, 0x00	; 0
    2768:	f9 01       	movw	r30, r18
    276a:	e0 55       	subi	r30, 0x50	; 80
    276c:	fe 4f       	sbci	r31, 0xFE	; 254
    276e:	90 81       	ld	r25, Z
    2770:	99 23       	and	r25, r25
    2772:	29 f0       	breq	.+10     	; 0x277e <_ZN7ns_menu19Menu_CheckPassMinusEh+0x28>
    2774:	f9 01       	movw	r30, r18
    2776:	e0 55       	subi	r30, 0x50	; 80
    2778:	fe 4f       	sbci	r31, 0xFE	; 254
    277a:	91 50       	subi	r25, 0x01	; 1
    277c:	90 83       	st	Z, r25
    277e:	ab df       	rcall	.-170    	; 0x26d6 <_ZN7ns_menu18Menu_CheckPassViewEh>
    2780:	8f b7       	in	r24, 0x3f	; 63
    2782:	f8 94       	cli
    2784:	40 e9       	ldi	r20, 0x90	; 144
    2786:	5f e5       	ldi	r21, 0x5F	; 95
    2788:	61 e0       	ldi	r22, 0x01	; 1
    278a:	70 e0       	ldi	r23, 0x00	; 0
    278c:	40 93 b7 01 	sts	0x01B7, r20	; 0x8001b7 <_ZN7ns_menu7timeOutE>
    2790:	50 93 b8 01 	sts	0x01B8, r21	; 0x8001b8 <_ZN7ns_menu7timeOutE+0x1>
    2794:	60 93 b9 01 	sts	0x01B9, r22	; 0x8001b9 <_ZN7ns_menu7timeOutE+0x2>
    2798:	70 93 ba 01 	sts	0x01BA, r23	; 0x8001ba <_ZN7ns_menu7timeOutE+0x3>
    279c:	8f bf       	out	0x3f, r24	; 63
    279e:	08 95       	ret

000027a0 <_ZN7ns_menu18Menu_CheckPassPlusEh>:
    27a0:	e0 91 d6 01 	lds	r30, 0x01D6	; 0x8001d6 <key4>
    27a4:	f0 91 d7 01 	lds	r31, 0x01D7	; 0x8001d7 <key4+0x1>
    27a8:	91 e0       	ldi	r25, 0x01	; 1
    27aa:	90 83       	st	Z, r25
    27ac:	20 91 b5 01 	lds	r18, 0x01B5	; 0x8001b5 <_ZN7ns_menu10curPosPassE>
    27b0:	30 e0       	ldi	r19, 0x00	; 0
    27b2:	f9 01       	movw	r30, r18
    27b4:	e0 55       	subi	r30, 0x50	; 80
    27b6:	fe 4f       	sbci	r31, 0xFE	; 254
    27b8:	90 81       	ld	r25, Z
    27ba:	99 30       	cpi	r25, 0x09	; 9
    27bc:	28 f4       	brcc	.+10     	; 0x27c8 <_ZN7ns_menu18Menu_CheckPassPlusEh+0x28>
    27be:	f9 01       	movw	r30, r18
    27c0:	e0 55       	subi	r30, 0x50	; 80
    27c2:	fe 4f       	sbci	r31, 0xFE	; 254
    27c4:	9f 5f       	subi	r25, 0xFF	; 255
    27c6:	90 83       	st	Z, r25
    27c8:	86 df       	rcall	.-244    	; 0x26d6 <_ZN7ns_menu18Menu_CheckPassViewEh>
    27ca:	8f b7       	in	r24, 0x3f	; 63
    27cc:	f8 94       	cli
    27ce:	40 e9       	ldi	r20, 0x90	; 144
    27d0:	5f e5       	ldi	r21, 0x5F	; 95
    27d2:	61 e0       	ldi	r22, 0x01	; 1
    27d4:	70 e0       	ldi	r23, 0x00	; 0
    27d6:	40 93 b7 01 	sts	0x01B7, r20	; 0x8001b7 <_ZN7ns_menu7timeOutE>
    27da:	50 93 b8 01 	sts	0x01B8, r21	; 0x8001b8 <_ZN7ns_menu7timeOutE+0x1>
    27de:	60 93 b9 01 	sts	0x01B9, r22	; 0x8001b9 <_ZN7ns_menu7timeOutE+0x2>
    27e2:	70 93 ba 01 	sts	0x01BA, r23	; 0x8001ba <_ZN7ns_menu7timeOutE+0x3>
    27e6:	8f bf       	out	0x3f, r24	; 63
    27e8:	08 95       	ret

000027ea <_ZN7ns_menu14Menu_CheckPassEh>:
    27ea:	8f b7       	in	r24, 0x3f	; 63
    27ec:	f8 94       	cli
    27ee:	10 92 b7 01 	sts	0x01B7, r1	; 0x8001b7 <_ZN7ns_menu7timeOutE>
    27f2:	10 92 b8 01 	sts	0x01B8, r1	; 0x8001b8 <_ZN7ns_menu7timeOutE+0x1>
    27f6:	10 92 b9 01 	sts	0x01B9, r1	; 0x8001b9 <_ZN7ns_menu7timeOutE+0x2>
    27fa:	10 92 ba 01 	sts	0x01BA, r1	; 0x8001ba <_ZN7ns_menu7timeOutE+0x3>
    27fe:	8f bf       	out	0x3f, r24	; 63
    2800:	e0 91 d6 01 	lds	r30, 0x01D6	; 0x8001d6 <key4>
    2804:	f0 91 d7 01 	lds	r31, 0x01D7	; 0x8001d7 <key4+0x1>
    2808:	10 82       	st	Z, r1
    280a:	0e 94 63 26 	call	0x4cc6	; 0x4cc6 <_ZN6ns_lcd5ClearEv>
    280e:	60 e0       	ldi	r22, 0x00	; 0
    2810:	80 e0       	ldi	r24, 0x00	; 0
    2812:	0e 94 8f 27 	call	0x4f1e	; 0x4f1e <_ZN6ns_lcd11SetPositionEhh>
    2816:	61 ee       	ldi	r22, 0xE1	; 225
    2818:	71 e0       	ldi	r23, 0x01	; 1
    281a:	0e 94 99 28 	call	0x5132	; 0x5132 <_ZN6ns_lcd8String_PEhPKc>
    281e:	10 92 b5 01 	sts	0x01B5, r1	; 0x8001b5 <_ZN7ns_menu10curPosPassE>
    2822:	e0 eb       	ldi	r30, 0xB0	; 176
    2824:	f1 e0       	ldi	r31, 0x01	; 1
    2826:	10 82       	st	Z, r1
    2828:	11 82       	std	Z+1, r1	; 0x01
    282a:	12 82       	std	Z+2, r1	; 0x02
    282c:	13 82       	std	Z+3, r1	; 0x03
    282e:	14 82       	std	Z+4, r1	; 0x04
    2830:	8f b7       	in	r24, 0x3f	; 63
    2832:	f8 94       	cli
    2834:	40 e9       	ldi	r20, 0x90	; 144
    2836:	5f e5       	ldi	r21, 0x5F	; 95
    2838:	61 e0       	ldi	r22, 0x01	; 1
    283a:	70 e0       	ldi	r23, 0x00	; 0
    283c:	40 93 b7 01 	sts	0x01B7, r20	; 0x8001b7 <_ZN7ns_menu7timeOutE>
    2840:	50 93 b8 01 	sts	0x01B8, r21	; 0x8001b8 <_ZN7ns_menu7timeOutE+0x1>
    2844:	60 93 b9 01 	sts	0x01B9, r22	; 0x8001b9 <_ZN7ns_menu7timeOutE+0x2>
    2848:	70 93 ba 01 	sts	0x01BA, r23	; 0x8001ba <_ZN7ns_menu7timeOutE+0x3>
    284c:	8f bf       	out	0x3f, r24	; 63
    284e:	08 95       	ret

00002850 <_ZN7ns_menu7ZeroArcEh>:
    2850:	e0 91 d6 01 	lds	r30, 0x01D6	; 0x8001d6 <key4>
    2854:	f0 91 d7 01 	lds	r31, 0x01D7	; 0x8001d7 <key4+0x1>
    2858:	10 82       	st	Z, r1
    285a:	0e 94 63 26 	call	0x4cc6	; 0x4cc6 <_ZN6ns_lcd5ClearEv>
    285e:	60 e0       	ldi	r22, 0x00	; 0
    2860:	80 e0       	ldi	r24, 0x00	; 0
    2862:	0e 94 8f 27 	call	0x4f1e	; 0x4f1e <_ZN6ns_lcd11SetPositionEhh>
    2866:	60 e4       	ldi	r22, 0x40	; 64
    2868:	71 e0       	ldi	r23, 0x01	; 1
    286a:	0e 94 99 28 	call	0x5132	; 0x5132 <_ZN6ns_lcd8String_PEhPKc>
    286e:	61 e0       	ldi	r22, 0x01	; 1
    2870:	80 e0       	ldi	r24, 0x00	; 0
    2872:	0e 94 8f 27 	call	0x4f1e	; 0x4f1e <_ZN6ns_lcd11SetPositionEhh>
    2876:	64 e3       	ldi	r22, 0x34	; 52
    2878:	71 e0       	ldi	r23, 0x01	; 1
    287a:	0e 94 99 28 	call	0x5132	; 0x5132 <_ZN6ns_lcd8String_PEhPKc>
    287e:	8f b7       	in	r24, 0x3f	; 63
    2880:	f8 94       	cli
    2882:	40 e9       	ldi	r20, 0x90	; 144
    2884:	5f e5       	ldi	r21, 0x5F	; 95
    2886:	61 e0       	ldi	r22, 0x01	; 1
    2888:	70 e0       	ldi	r23, 0x00	; 0
    288a:	40 93 b7 01 	sts	0x01B7, r20	; 0x8001b7 <_ZN7ns_menu7timeOutE>
    288e:	50 93 b8 01 	sts	0x01B8, r21	; 0x8001b8 <_ZN7ns_menu7timeOutE+0x1>
    2892:	60 93 b9 01 	sts	0x01B9, r22	; 0x8001b9 <_ZN7ns_menu7timeOutE+0x2>
    2896:	70 93 ba 01 	sts	0x01BA, r23	; 0x8001ba <_ZN7ns_menu7timeOutE+0x3>
    289a:	8f bf       	out	0x3f, r24	; 63
    289c:	08 95       	ret

0000289e <_ZN7ns_menu7SetModeEh>:
    289e:	80 93 bb 01 	sts	0x01BB, r24	; 0x8001bb <_ZN7ns_menu4modeE>
    28a2:	90 e1       	ldi	r25, 0x10	; 16
    28a4:	89 9f       	mul	r24, r25
    28a6:	f0 01       	movw	r30, r0
    28a8:	11 24       	eor	r1, r1
    28aa:	e3 52       	subi	r30, 0x23	; 35
    28ac:	fd 4f       	sbci	r31, 0xFD	; 253
    28ae:	25 91       	lpm	r18, Z+
    28b0:	34 91       	lpm	r19, Z
    28b2:	80 e0       	ldi	r24, 0x00	; 0
    28b4:	f9 01       	movw	r30, r18
    28b6:	09 95       	icall
    28b8:	08 95       	ret

000028ba <_ZN7ns_menu9Main_menuEh>:
    28ba:	81 e0       	ldi	r24, 0x01	; 1
    28bc:	f0 cf       	rjmp	.-32     	; 0x289e <_ZN7ns_menu7SetModeEh>
    28be:	08 95       	ret

000028c0 <_ZN7ns_menu18Menu_CheckPassBackEh>:
    28c0:	90 91 b5 01 	lds	r25, 0x01B5	; 0x8001b5 <_ZN7ns_menu10curPosPassE>
    28c4:	99 23       	and	r25, r25
    28c6:	99 f0       	breq	.+38     	; 0x28ee <_ZN7ns_menu18Menu_CheckPassBackEh+0x2e>
    28c8:	91 50       	subi	r25, 0x01	; 1
    28ca:	90 93 b5 01 	sts	0x01B5, r25	; 0x8001b5 <_ZN7ns_menu10curPosPassE>
    28ce:	03 df       	rcall	.-506    	; 0x26d6 <_ZN7ns_menu18Menu_CheckPassViewEh>
    28d0:	8f b7       	in	r24, 0x3f	; 63
    28d2:	f8 94       	cli
    28d4:	40 e9       	ldi	r20, 0x90	; 144
    28d6:	5f e5       	ldi	r21, 0x5F	; 95
    28d8:	61 e0       	ldi	r22, 0x01	; 1
    28da:	70 e0       	ldi	r23, 0x00	; 0
    28dc:	40 93 b7 01 	sts	0x01B7, r20	; 0x8001b7 <_ZN7ns_menu7timeOutE>
    28e0:	50 93 b8 01 	sts	0x01B8, r21	; 0x8001b8 <_ZN7ns_menu7timeOutE+0x1>
    28e4:	60 93 b9 01 	sts	0x01B9, r22	; 0x8001b9 <_ZN7ns_menu7timeOutE+0x2>
    28e8:	70 93 ba 01 	sts	0x01BA, r23	; 0x8001ba <_ZN7ns_menu7timeOutE+0x3>
    28ec:	8f bf       	out	0x3f, r24	; 63
    28ee:	8f b7       	in	r24, 0x3f	; 63
    28f0:	f8 94       	cli
    28f2:	10 92 b7 01 	sts	0x01B7, r1	; 0x8001b7 <_ZN7ns_menu7timeOutE>
    28f6:	10 92 b8 01 	sts	0x01B8, r1	; 0x8001b8 <_ZN7ns_menu7timeOutE+0x1>
    28fa:	10 92 b9 01 	sts	0x01B9, r1	; 0x8001b9 <_ZN7ns_menu7timeOutE+0x2>
    28fe:	10 92 ba 01 	sts	0x01BA, r1	; 0x8001ba <_ZN7ns_menu7timeOutE+0x3>
    2902:	8f bf       	out	0x3f, r24	; 63
    2904:	80 e0       	ldi	r24, 0x00	; 0
    2906:	cb cf       	rjmp	.-106    	; 0x289e <_ZN7ns_menu7SetModeEh>
    2908:	08 95       	ret

0000290a <_ZN7ns_menu16Menu_CheckPassVvEh>:
    290a:	cf 92       	push	r12
    290c:	df 92       	push	r13
    290e:	ef 92       	push	r14
    2910:	ff 92       	push	r15
    2912:	0f 93       	push	r16
    2914:	1f 93       	push	r17
    2916:	cf 93       	push	r28
    2918:	df 93       	push	r29
    291a:	9f b7       	in	r25, 0x3f	; 63
    291c:	f8 94       	cli
    291e:	40 e9       	ldi	r20, 0x90	; 144
    2920:	5f e5       	ldi	r21, 0x5F	; 95
    2922:	61 e0       	ldi	r22, 0x01	; 1
    2924:	70 e0       	ldi	r23, 0x00	; 0
    2926:	40 93 b7 01 	sts	0x01B7, r20	; 0x8001b7 <_ZN7ns_menu7timeOutE>
    292a:	50 93 b8 01 	sts	0x01B8, r21	; 0x8001b8 <_ZN7ns_menu7timeOutE+0x1>
    292e:	60 93 b9 01 	sts	0x01B9, r22	; 0x8001b9 <_ZN7ns_menu7timeOutE+0x2>
    2932:	70 93 ba 01 	sts	0x01BA, r23	; 0x8001ba <_ZN7ns_menu7timeOutE+0x3>
    2936:	9f bf       	out	0x3f, r25	; 63
    2938:	e0 91 d6 01 	lds	r30, 0x01D6	; 0x8001d6 <key4>
    293c:	f0 91 d7 01 	lds	r31, 0x01D7	; 0x8001d7 <key4+0x1>
    2940:	10 82       	st	Z, r1
    2942:	e0 91 b5 01 	lds	r30, 0x01B5	; 0x8001b5 <_ZN7ns_menu10curPosPassE>
    2946:	e4 30       	cpi	r30, 0x04	; 4
    2948:	48 f4       	brcc	.+18     	; 0x295c <_ZN7ns_menu16Menu_CheckPassVvEh+0x52>
    294a:	ef 5f       	subi	r30, 0xFF	; 255
    294c:	e0 93 b5 01 	sts	0x01B5, r30	; 0x8001b5 <_ZN7ns_menu10curPosPassE>
    2950:	f0 e0       	ldi	r31, 0x00	; 0
    2952:	e0 55       	subi	r30, 0x50	; 80
    2954:	fe 4f       	sbci	r31, 0xFE	; 254
    2956:	10 82       	st	Z, r1
    2958:	be de       	rcall	.-644    	; 0x26d6 <_ZN7ns_menu18Menu_CheckPassViewEh>
    295a:	4b c0       	rjmp	.+150    	; 0x29f2 <_ZN7ns_menu16Menu_CheckPassVvEh+0xe8>
    295c:	0f 2e       	mov	r0, r31
    295e:	f0 eb       	ldi	r31, 0xB0	; 176
    2960:	ef 2e       	mov	r14, r31
    2962:	f1 e0       	ldi	r31, 0x01	; 1
    2964:	ff 2e       	mov	r15, r31
    2966:	f0 2d       	mov	r31, r0
    2968:	c0 e0       	ldi	r28, 0x00	; 0
    296a:	d0 e0       	ldi	r29, 0x00	; 0
    296c:	cc 24       	eor	r12, r12
    296e:	c3 94       	inc	r12
    2970:	dd 24       	eor	r13, r13
    2972:	d3 94       	inc	r13
    2974:	00 e0       	ldi	r16, 0x00	; 0
    2976:	f7 01       	movw	r30, r14
    2978:	11 91       	ld	r17, Z+
    297a:	7f 01       	movw	r14, r30
    297c:	ce 01       	movw	r24, r28
    297e:	88 51       	subi	r24, 0x18	; 24
    2980:	93 4f       	sbci	r25, 0xF3	; 243
    2982:	0e 94 8d 2f 	call	0x5f1a	; 0x5f1a <eeprom_read_byte>
    2986:	18 13       	cpse	r17, r24
    2988:	d0 2e       	mov	r13, r16
    298a:	fe 01       	movw	r30, r28
    298c:	e4 53       	subi	r30, 0x34	; 52
    298e:	fd 4f       	sbci	r31, 0xFD	; 253
    2990:	e4 91       	lpm	r30, Z
    2992:	1e 13       	cpse	r17, r30
    2994:	c0 2e       	mov	r12, r16
    2996:	21 96       	adiw	r28, 0x01	; 1
    2998:	c5 30       	cpi	r28, 0x05	; 5
    299a:	d1 05       	cpc	r29, r1
    299c:	61 f7       	brne	.-40     	; 0x2976 <_ZN7ns_menu16Menu_CheckPassVvEh+0x6c>
    299e:	d1 10       	cpse	r13, r1
    29a0:	02 c0       	rjmp	.+4      	; 0x29a6 <_ZN7ns_menu16Menu_CheckPassVvEh+0x9c>
    29a2:	cc 20       	and	r12, r12
    29a4:	19 f0       	breq	.+6      	; 0x29ac <_ZN7ns_menu16Menu_CheckPassVvEh+0xa2>
    29a6:	82 e0       	ldi	r24, 0x02	; 2
    29a8:	7a df       	rcall	.-268    	; 0x289e <_ZN7ns_menu7SetModeEh>
    29aa:	23 c0       	rjmp	.+70     	; 0x29f2 <_ZN7ns_menu16Menu_CheckPassVvEh+0xe8>
    29ac:	0e 94 63 26 	call	0x4cc6	; 0x4cc6 <_ZN6ns_lcd5ClearEv>
    29b0:	60 e0       	ldi	r22, 0x00	; 0
    29b2:	80 e0       	ldi	r24, 0x00	; 0
    29b4:	0e 94 8f 27 	call	0x4f1e	; 0x4f1e <_ZN6ns_lcd11SetPositionEhh>
    29b8:	60 ed       	ldi	r22, 0xD0	; 208
    29ba:	71 e0       	ldi	r23, 0x01	; 1
    29bc:	0e 94 99 28 	call	0x5132	; 0x5132 <_ZN6ns_lcd8String_PEhPKc>
    29c0:	61 e0       	ldi	r22, 0x01	; 1
    29c2:	80 e0       	ldi	r24, 0x00	; 0
    29c4:	0e 94 8f 27 	call	0x4f1e	; 0x4f1e <_ZN6ns_lcd11SetPositionEhh>
    29c8:	6f eb       	ldi	r22, 0xBF	; 191
    29ca:	71 e0       	ldi	r23, 0x01	; 1
    29cc:	0e 94 99 28 	call	0x5132	; 0x5132 <_ZN6ns_lcd8String_PEhPKc>
    29d0:	8f b7       	in	r24, 0x3f	; 63
    29d2:	f8 94       	cli
    29d4:	48 e8       	ldi	r20, 0x88	; 136
    29d6:	53 e1       	ldi	r21, 0x13	; 19
    29d8:	60 e0       	ldi	r22, 0x00	; 0
    29da:	70 e0       	ldi	r23, 0x00	; 0
    29dc:	40 93 b7 01 	sts	0x01B7, r20	; 0x8001b7 <_ZN7ns_menu7timeOutE>
    29e0:	50 93 b8 01 	sts	0x01B8, r21	; 0x8001b8 <_ZN7ns_menu7timeOutE+0x1>
    29e4:	60 93 b9 01 	sts	0x01B9, r22	; 0x8001b9 <_ZN7ns_menu7timeOutE+0x2>
    29e8:	70 93 ba 01 	sts	0x01BA, r23	; 0x8001ba <_ZN7ns_menu7timeOutE+0x3>
    29ec:	8f bf       	out	0x3f, r24	; 63
    29ee:	84 e0       	ldi	r24, 0x04	; 4
    29f0:	56 df       	rcall	.-340    	; 0x289e <_ZN7ns_menu7SetModeEh>
    29f2:	df 91       	pop	r29
    29f4:	cf 91       	pop	r28
    29f6:	1f 91       	pop	r17
    29f8:	0f 91       	pop	r16
    29fa:	ff 90       	pop	r15
    29fc:	ef 90       	pop	r14
    29fe:	df 90       	pop	r13
    2a00:	cf 90       	pop	r12
    2a02:	08 95       	ret

00002a04 <_ZN7ns_menu18Menu_CheckPassToutEh>:
    2a04:	8f b7       	in	r24, 0x3f	; 63
    2a06:	f8 94       	cli
    2a08:	10 92 b7 01 	sts	0x01B7, r1	; 0x8001b7 <_ZN7ns_menu7timeOutE>
    2a0c:	10 92 b8 01 	sts	0x01B8, r1	; 0x8001b8 <_ZN7ns_menu7timeOutE+0x1>
    2a10:	10 92 b9 01 	sts	0x01B9, r1	; 0x8001b9 <_ZN7ns_menu7timeOutE+0x2>
    2a14:	10 92 ba 01 	sts	0x01BA, r1	; 0x8001ba <_ZN7ns_menu7timeOutE+0x3>
    2a18:	8f bf       	out	0x3f, r24	; 63
    2a1a:	80 e0       	ldi	r24, 0x00	; 0
    2a1c:	40 cf       	rjmp	.-384    	; 0x289e <_ZN7ns_menu7SetModeEh>
    2a1e:	08 95       	ret

00002a20 <_ZN7ns_menu15Menu_SelectBackEh>:
    2a20:	8f b7       	in	r24, 0x3f	; 63
    2a22:	f8 94       	cli
    2a24:	10 92 b7 01 	sts	0x01B7, r1	; 0x8001b7 <_ZN7ns_menu7timeOutE>
    2a28:	10 92 b8 01 	sts	0x01B8, r1	; 0x8001b8 <_ZN7ns_menu7timeOutE+0x1>
    2a2c:	10 92 b9 01 	sts	0x01B9, r1	; 0x8001b9 <_ZN7ns_menu7timeOutE+0x2>
    2a30:	10 92 ba 01 	sts	0x01BA, r1	; 0x8001ba <_ZN7ns_menu7timeOutE+0x3>
    2a34:	8f bf       	out	0x3f, r24	; 63
    2a36:	80 e0       	ldi	r24, 0x00	; 0
    2a38:	32 cf       	rjmp	.-412    	; 0x289e <_ZN7ns_menu7SetModeEh>
    2a3a:	08 95       	ret

00002a3c <_ZN7ns_menu13Menu_SelectVVEh>:
    2a3c:	8f b7       	in	r24, 0x3f	; 63
    2a3e:	f8 94       	cli
    2a40:	10 92 b7 01 	sts	0x01B7, r1	; 0x8001b7 <_ZN7ns_menu7timeOutE>
    2a44:	10 92 b8 01 	sts	0x01B8, r1	; 0x8001b8 <_ZN7ns_menu7timeOutE+0x1>
    2a48:	10 92 b9 01 	sts	0x01B9, r1	; 0x8001b9 <_ZN7ns_menu7timeOutE+0x2>
    2a4c:	10 92 ba 01 	sts	0x01BA, r1	; 0x8001ba <_ZN7ns_menu7timeOutE+0x3>
    2a50:	8f bf       	out	0x3f, r24	; 63
    2a52:	e0 91 d6 01 	lds	r30, 0x01D6	; 0x8001d6 <key4>
    2a56:	f0 91 d7 01 	lds	r31, 0x01D7	; 0x8001d7 <key4+0x1>
    2a5a:	10 82       	st	Z, r1
    2a5c:	80 91 b5 01 	lds	r24, 0x01B5	; 0x8001b5 <_ZN7ns_menu10curPosPassE>
    2a60:	81 11       	cpse	r24, r1
    2a62:	03 c0       	rjmp	.+6      	; 0x2a6a <_ZN7ns_menu13Menu_SelectVVEh+0x2e>
    2a64:	88 e0       	ldi	r24, 0x08	; 8
    2a66:	1b cf       	rjmp	.-458    	; 0x289e <_ZN7ns_menu7SetModeEh>
    2a68:	08 95       	ret
    2a6a:	81 30       	cpi	r24, 0x01	; 1
    2a6c:	19 f4       	brne	.+6      	; 0x2a74 <_ZN7ns_menu13Menu_SelectVVEh+0x38>
    2a6e:	89 e0       	ldi	r24, 0x09	; 9
    2a70:	16 cf       	rjmp	.-468    	; 0x289e <_ZN7ns_menu7SetModeEh>
    2a72:	08 95       	ret
    2a74:	82 30       	cpi	r24, 0x02	; 2
    2a76:	19 f4       	brne	.+6      	; 0x2a7e <_ZN7ns_menu13Menu_SelectVVEh+0x42>
    2a78:	8d e0       	ldi	r24, 0x0D	; 13
    2a7a:	11 cf       	rjmp	.-478    	; 0x289e <_ZN7ns_menu7SetModeEh>
    2a7c:	08 95       	ret
    2a7e:	83 30       	cpi	r24, 0x03	; 3
    2a80:	19 f4       	brne	.+6      	; 0x2a88 <_ZN7ns_menu13Menu_SelectVVEh+0x4c>
    2a82:	8a e0       	ldi	r24, 0x0A	; 10
    2a84:	0c cf       	rjmp	.-488    	; 0x289e <_ZN7ns_menu7SetModeEh>
    2a86:	08 95       	ret
    2a88:	84 30       	cpi	r24, 0x04	; 4
    2a8a:	49 f4       	brne	.+18     	; 0x2a9e <_ZN7ns_menu13Menu_SelectVVEh+0x62>
    2a8c:	81 e0       	ldi	r24, 0x01	; 1
    2a8e:	80 93 ae 01 	sts	0x01AE, r24	; 0x8001ae <_ZN7ns_menu10curSensIdxE>
    2a92:	82 e0       	ldi	r24, 0x02	; 2
    2a94:	80 93 af 01 	sts	0x01AF, r24	; 0x8001af <_ZN7ns_menu9curSensorE>
    2a98:	83 e0       	ldi	r24, 0x03	; 3
    2a9a:	01 cf       	rjmp	.-510    	; 0x289e <_ZN7ns_menu7SetModeEh>
    2a9c:	08 95       	ret
    2a9e:	85 30       	cpi	r24, 0x05	; 5
    2aa0:	41 f4       	brne	.+16     	; 0x2ab2 <_ZN7ns_menu13Menu_SelectVVEh+0x76>
    2aa2:	82 e0       	ldi	r24, 0x02	; 2
    2aa4:	80 93 ae 01 	sts	0x01AE, r24	; 0x8001ae <_ZN7ns_menu10curSensIdxE>
    2aa8:	83 e0       	ldi	r24, 0x03	; 3
    2aaa:	80 93 af 01 	sts	0x01AF, r24	; 0x8001af <_ZN7ns_menu9curSensorE>
    2aae:	f7 ce       	rjmp	.-530    	; 0x289e <_ZN7ns_menu7SetModeEh>
    2ab0:	08 95       	ret
    2ab2:	86 30       	cpi	r24, 0x06	; 6
    2ab4:	49 f4       	brne	.+18     	; 0x2ac8 <_ZN7ns_menu13Menu_SelectVVEh+0x8c>
    2ab6:	83 e0       	ldi	r24, 0x03	; 3
    2ab8:	80 93 ae 01 	sts	0x01AE, r24	; 0x8001ae <_ZN7ns_menu10curSensIdxE>
    2abc:	84 e0       	ldi	r24, 0x04	; 4
    2abe:	80 93 af 01 	sts	0x01AF, r24	; 0x8001af <_ZN7ns_menu9curSensorE>
    2ac2:	83 e0       	ldi	r24, 0x03	; 3
    2ac4:	ec ce       	rjmp	.-552    	; 0x289e <_ZN7ns_menu7SetModeEh>
    2ac6:	08 95       	ret
    2ac8:	87 30       	cpi	r24, 0x07	; 7
    2aca:	49 f4       	brne	.+18     	; 0x2ade <_ZN7ns_menu13Menu_SelectVVEh+0xa2>
    2acc:	84 e0       	ldi	r24, 0x04	; 4
    2ace:	80 93 ae 01 	sts	0x01AE, r24	; 0x8001ae <_ZN7ns_menu10curSensIdxE>
    2ad2:	85 e0       	ldi	r24, 0x05	; 5
    2ad4:	80 93 af 01 	sts	0x01AF, r24	; 0x8001af <_ZN7ns_menu9curSensorE>
    2ad8:	83 e0       	ldi	r24, 0x03	; 3
    2ada:	e1 ce       	rjmp	.-574    	; 0x289e <_ZN7ns_menu7SetModeEh>
    2adc:	08 95       	ret
    2ade:	88 30       	cpi	r24, 0x08	; 8
    2ae0:	19 f4       	brne	.+6      	; 0x2ae8 <_ZN7ns_menu13Menu_SelectVVEh+0xac>
    2ae2:	8b e0       	ldi	r24, 0x0B	; 11
    2ae4:	dc ce       	rjmp	.-584    	; 0x289e <_ZN7ns_menu7SetModeEh>
    2ae6:	08 95       	ret
    2ae8:	89 30       	cpi	r24, 0x09	; 9
    2aea:	19 f4       	brne	.+6      	; 0x2af2 <_ZN7ns_menu13Menu_SelectVVEh+0xb6>
    2aec:	8c e0       	ldi	r24, 0x0C	; 12
    2aee:	d7 ce       	rjmp	.-594    	; 0x289e <_ZN7ns_menu7SetModeEh>
    2af0:	08 95       	ret
    2af2:	8a 30       	cpi	r24, 0x0A	; 10
    2af4:	19 f4       	brne	.+6      	; 0x2afc <_ZN7ns_menu13Menu_SelectVVEh+0xc0>
    2af6:	87 e0       	ldi	r24, 0x07	; 7
    2af8:	d2 ce       	rjmp	.-604    	; 0x289e <_ZN7ns_menu7SetModeEh>
    2afa:	08 95       	ret
    2afc:	8b 30       	cpi	r24, 0x0B	; 11
    2afe:	11 f4       	brne	.+4      	; 0x2b04 <_ZN7ns_menu13Menu_SelectVVEh+0xc8>
    2b00:	85 e0       	ldi	r24, 0x05	; 5
    2b02:	cd ce       	rjmp	.-614    	; 0x289e <_ZN7ns_menu7SetModeEh>
    2b04:	08 95       	ret

00002b06 <_ZN7ns_menu15Menu_SelectToutEh>:
    2b06:	8f b7       	in	r24, 0x3f	; 63
    2b08:	f8 94       	cli
    2b0a:	10 92 b7 01 	sts	0x01B7, r1	; 0x8001b7 <_ZN7ns_menu7timeOutE>
    2b0e:	10 92 b8 01 	sts	0x01B8, r1	; 0x8001b8 <_ZN7ns_menu7timeOutE+0x1>
    2b12:	10 92 b9 01 	sts	0x01B9, r1	; 0x8001b9 <_ZN7ns_menu7timeOutE+0x2>
    2b16:	10 92 ba 01 	sts	0x01BA, r1	; 0x8001ba <_ZN7ns_menu7timeOutE+0x3>
    2b1a:	8f bf       	out	0x3f, r24	; 63
    2b1c:	80 e0       	ldi	r24, 0x00	; 0
    2b1e:	bf ce       	rjmp	.-642    	; 0x289e <_ZN7ns_menu7SetModeEh>
    2b20:	08 95       	ret

00002b22 <_ZN7ns_menu15Edit_SensorBackEh>:
    2b22:	8f b7       	in	r24, 0x3f	; 63
    2b24:	f8 94       	cli
    2b26:	10 92 b7 01 	sts	0x01B7, r1	; 0x8001b7 <_ZN7ns_menu7timeOutE>
    2b2a:	10 92 b8 01 	sts	0x01B8, r1	; 0x8001b8 <_ZN7ns_menu7timeOutE+0x1>
    2b2e:	10 92 b9 01 	sts	0x01B9, r1	; 0x8001b9 <_ZN7ns_menu7timeOutE+0x2>
    2b32:	10 92 ba 01 	sts	0x01BA, r1	; 0x8001ba <_ZN7ns_menu7timeOutE+0x3>
    2b36:	8f bf       	out	0x3f, r24	; 63
    2b38:	e0 91 d6 01 	lds	r30, 0x01D6	; 0x8001d6 <key4>
    2b3c:	f0 91 d7 01 	lds	r31, 0x01D7	; 0x8001d7 <key4+0x1>
    2b40:	10 82       	st	Z, r1
    2b42:	82 e0       	ldi	r24, 0x02	; 2
    2b44:	ac ce       	rjmp	.-680    	; 0x289e <_ZN7ns_menu7SetModeEh>
    2b46:	08 95       	ret

00002b48 <_ZN7ns_menu13Edit_SensorVVEh>:
    2b48:	8f b7       	in	r24, 0x3f	; 63
    2b4a:	f8 94       	cli
    2b4c:	10 92 b7 01 	sts	0x01B7, r1	; 0x8001b7 <_ZN7ns_menu7timeOutE>
    2b50:	10 92 b8 01 	sts	0x01B8, r1	; 0x8001b8 <_ZN7ns_menu7timeOutE+0x1>
    2b54:	10 92 b9 01 	sts	0x01B9, r1	; 0x8001b9 <_ZN7ns_menu7timeOutE+0x2>
    2b58:	10 92 ba 01 	sts	0x01BA, r1	; 0x8001ba <_ZN7ns_menu7timeOutE+0x3>
    2b5c:	8f bf       	out	0x3f, r24	; 63
    2b5e:	e0 91 d6 01 	lds	r30, 0x01D6	; 0x8001d6 <key4>
    2b62:	f0 91 d7 01 	lds	r31, 0x01D7	; 0x8001d7 <key4+0x1>
    2b66:	10 82       	st	Z, r1
    2b68:	60 91 ac 01 	lds	r22, 0x01AC	; 0x8001ac <_ZN7ns_menu11tmpDistanceE>
    2b6c:	70 91 ad 01 	lds	r23, 0x01AD	; 0x8001ad <_ZN7ns_menu11tmpDistanceE+0x1>
    2b70:	80 91 ae 01 	lds	r24, 0x01AE	; 0x8001ae <_ZN7ns_menu10curSensIdxE>
    2b74:	90 e0       	ldi	r25, 0x00	; 0
    2b76:	88 0f       	add	r24, r24
    2b78:	99 1f       	adc	r25, r25
    2b7a:	8e 50       	subi	r24, 0x0E	; 14
    2b7c:	93 4f       	sbci	r25, 0xF3	; 243
    2b7e:	0e 94 c5 2f 	call	0x5f8a	; 0x5f8a <eeprom_write_word>
    2b82:	61 e0       	ldi	r22, 0x01	; 1
    2b84:	80 e0       	ldi	r24, 0x00	; 0
    2b86:	0e 94 8f 27 	call	0x4f1e	; 0x4f1e <_ZN6ns_lcd11SetPositionEhh>
    2b8a:	69 e9       	ldi	r22, 0x99	; 153
    2b8c:	71 e0       	ldi	r23, 0x01	; 1
    2b8e:	0e 94 99 28 	call	0x5132	; 0x5132 <_ZN6ns_lcd8String_PEhPKc>
    2b92:	8f b7       	in	r24, 0x3f	; 63
    2b94:	f8 94       	cli
    2b96:	48 e8       	ldi	r20, 0x88	; 136
    2b98:	53 e1       	ldi	r21, 0x13	; 19
    2b9a:	60 e0       	ldi	r22, 0x00	; 0
    2b9c:	70 e0       	ldi	r23, 0x00	; 0
    2b9e:	40 93 b7 01 	sts	0x01B7, r20	; 0x8001b7 <_ZN7ns_menu7timeOutE>
    2ba2:	50 93 b8 01 	sts	0x01B8, r21	; 0x8001b8 <_ZN7ns_menu7timeOutE+0x1>
    2ba6:	60 93 b9 01 	sts	0x01B9, r22	; 0x8001b9 <_ZN7ns_menu7timeOutE+0x2>
    2baa:	70 93 ba 01 	sts	0x01BA, r23	; 0x8001ba <_ZN7ns_menu7timeOutE+0x3>
    2bae:	8f bf       	out	0x3f, r24	; 63
    2bb0:	86 e0       	ldi	r24, 0x06	; 6
    2bb2:	75 ce       	rjmp	.-790    	; 0x289e <_ZN7ns_menu7SetModeEh>
    2bb4:	08 95       	ret

00002bb6 <_ZN7ns_menu15Edit_SensorToutEh>:
    2bb6:	8f b7       	in	r24, 0x3f	; 63
    2bb8:	f8 94       	cli
    2bba:	10 92 b7 01 	sts	0x01B7, r1	; 0x8001b7 <_ZN7ns_menu7timeOutE>
    2bbe:	10 92 b8 01 	sts	0x01B8, r1	; 0x8001b8 <_ZN7ns_menu7timeOutE+0x1>
    2bc2:	10 92 b9 01 	sts	0x01B9, r1	; 0x8001b9 <_ZN7ns_menu7timeOutE+0x2>
    2bc6:	10 92 ba 01 	sts	0x01BA, r1	; 0x8001ba <_ZN7ns_menu7timeOutE+0x3>
    2bca:	8f bf       	out	0x3f, r24	; 63
    2bcc:	82 e0       	ldi	r24, 0x02	; 2
    2bce:	67 ce       	rjmp	.-818    	; 0x289e <_ZN7ns_menu7SetModeEh>
    2bd0:	08 95       	ret

00002bd2 <_ZN7ns_menu14TimeoutToMainEEh>:
    2bd2:	80 e0       	ldi	r24, 0x00	; 0
    2bd4:	64 ce       	rjmp	.-824    	; 0x289e <_ZN7ns_menu7SetModeEh>
    2bd6:	08 95       	ret

00002bd8 <_ZN7ns_menu12Set_PassBackEh>:
    2bd8:	8f b7       	in	r24, 0x3f	; 63
    2bda:	f8 94       	cli
    2bdc:	10 92 b7 01 	sts	0x01B7, r1	; 0x8001b7 <_ZN7ns_menu7timeOutE>
    2be0:	10 92 b8 01 	sts	0x01B8, r1	; 0x8001b8 <_ZN7ns_menu7timeOutE+0x1>
    2be4:	10 92 b9 01 	sts	0x01B9, r1	; 0x8001b9 <_ZN7ns_menu7timeOutE+0x2>
    2be8:	10 92 ba 01 	sts	0x01BA, r1	; 0x8001ba <_ZN7ns_menu7timeOutE+0x3>
    2bec:	8f bf       	out	0x3f, r24	; 63
    2bee:	e0 91 d6 01 	lds	r30, 0x01D6	; 0x8001d6 <key4>
    2bf2:	f0 91 d7 01 	lds	r31, 0x01D7	; 0x8001d7 <key4+0x1>
    2bf6:	10 82       	st	Z, r1
    2bf8:	10 92 b7 01 	sts	0x01B7, r1	; 0x8001b7 <_ZN7ns_menu7timeOutE>
    2bfc:	10 92 b8 01 	sts	0x01B8, r1	; 0x8001b8 <_ZN7ns_menu7timeOutE+0x1>
    2c00:	10 92 b9 01 	sts	0x01B9, r1	; 0x8001b9 <_ZN7ns_menu7timeOutE+0x2>
    2c04:	10 92 ba 01 	sts	0x01BA, r1	; 0x8001ba <_ZN7ns_menu7timeOutE+0x3>
    2c08:	82 e0       	ldi	r24, 0x02	; 2
    2c0a:	49 ce       	rjmp	.-878    	; 0x289e <_ZN7ns_menu7SetModeEh>
    2c0c:	08 95       	ret

00002c0e <_ZN7ns_menu12Set_PassToutEh>:
    2c0e:	8f b7       	in	r24, 0x3f	; 63
    2c10:	f8 94       	cli
    2c12:	10 92 b7 01 	sts	0x01B7, r1	; 0x8001b7 <_ZN7ns_menu7timeOutE>
    2c16:	10 92 b8 01 	sts	0x01B8, r1	; 0x8001b8 <_ZN7ns_menu7timeOutE+0x1>
    2c1a:	10 92 b9 01 	sts	0x01B9, r1	; 0x8001b9 <_ZN7ns_menu7timeOutE+0x2>
    2c1e:	10 92 ba 01 	sts	0x01BA, r1	; 0x8001ba <_ZN7ns_menu7timeOutE+0x3>
    2c22:	8f bf       	out	0x3f, r24	; 63
    2c24:	82 e0       	ldi	r24, 0x02	; 2
    2c26:	3b ce       	rjmp	.-906    	; 0x289e <_ZN7ns_menu7SetModeEh>
    2c28:	08 95       	ret

00002c2a <_ZN7ns_menu14TimeoutToMnSelEh>:
    2c2a:	8f b7       	in	r24, 0x3f	; 63
    2c2c:	f8 94       	cli
    2c2e:	10 92 b7 01 	sts	0x01B7, r1	; 0x8001b7 <_ZN7ns_menu7timeOutE>
    2c32:	10 92 b8 01 	sts	0x01B8, r1	; 0x8001b8 <_ZN7ns_menu7timeOutE+0x1>
    2c36:	10 92 b9 01 	sts	0x01B9, r1	; 0x8001b9 <_ZN7ns_menu7timeOutE+0x2>
    2c3a:	10 92 ba 01 	sts	0x01BA, r1	; 0x8001ba <_ZN7ns_menu7timeOutE+0x3>
    2c3e:	8f bf       	out	0x3f, r24	; 63
    2c40:	82 e0       	ldi	r24, 0x02	; 2
    2c42:	2d ce       	rjmp	.-934    	; 0x289e <_ZN7ns_menu7SetModeEh>
    2c44:	08 95       	ret

00002c46 <_ZN7ns_menu12Set_TimeToutEh>:
    2c46:	8f b7       	in	r24, 0x3f	; 63
    2c48:	f8 94       	cli
    2c4a:	10 92 b7 01 	sts	0x01B7, r1	; 0x8001b7 <_ZN7ns_menu7timeOutE>
    2c4e:	10 92 b8 01 	sts	0x01B8, r1	; 0x8001b8 <_ZN7ns_menu7timeOutE+0x1>
    2c52:	10 92 b9 01 	sts	0x01B9, r1	; 0x8001b9 <_ZN7ns_menu7timeOutE+0x2>
    2c56:	10 92 ba 01 	sts	0x01BA, r1	; 0x8001ba <_ZN7ns_menu7timeOutE+0x3>
    2c5a:	8f bf       	out	0x3f, r24	; 63
    2c5c:	80 e0       	ldi	r24, 0x00	; 0
    2c5e:	1f ce       	rjmp	.-962    	; 0x289e <_ZN7ns_menu7SetModeEh>
    2c60:	08 95       	ret

00002c62 <_ZN7ns_menu12view_arcBackEh>:
    2c62:	e0 91 d6 01 	lds	r30, 0x01D6	; 0x8001d6 <key4>
    2c66:	f0 91 d7 01 	lds	r31, 0x01D7	; 0x8001d7 <key4+0x1>
    2c6a:	10 82       	st	Z, r1
    2c6c:	80 e0       	ldi	r24, 0x00	; 0
    2c6e:	17 ce       	rjmp	.-978    	; 0x289e <_ZN7ns_menu7SetModeEh>
    2c70:	08 95       	ret

00002c72 <_ZN7ns_menu14CorCurTubeBackEh>:
    2c72:	8f b7       	in	r24, 0x3f	; 63
    2c74:	f8 94       	cli
    2c76:	10 92 b7 01 	sts	0x01B7, r1	; 0x8001b7 <_ZN7ns_menu7timeOutE>
    2c7a:	10 92 b8 01 	sts	0x01B8, r1	; 0x8001b8 <_ZN7ns_menu7timeOutE+0x1>
    2c7e:	10 92 b9 01 	sts	0x01B9, r1	; 0x8001b9 <_ZN7ns_menu7timeOutE+0x2>
    2c82:	10 92 ba 01 	sts	0x01BA, r1	; 0x8001ba <_ZN7ns_menu7timeOutE+0x3>
    2c86:	8f bf       	out	0x3f, r24	; 63
    2c88:	e0 91 d6 01 	lds	r30, 0x01D6	; 0x8001d6 <key4>
    2c8c:	f0 91 d7 01 	lds	r31, 0x01D7	; 0x8001d7 <key4+0x1>
    2c90:	10 82       	st	Z, r1
    2c92:	80 e0       	ldi	r24, 0x00	; 0
    2c94:	04 ce       	rjmp	.-1016   	; 0x289e <_ZN7ns_menu7SetModeEh>
    2c96:	08 95       	ret

00002c98 <_ZN7ns_menu12CorCurTubeEnEh>:
    2c98:	8f b7       	in	r24, 0x3f	; 63
    2c9a:	f8 94       	cli
    2c9c:	10 92 b7 01 	sts	0x01B7, r1	; 0x8001b7 <_ZN7ns_menu7timeOutE>
    2ca0:	10 92 b8 01 	sts	0x01B8, r1	; 0x8001b8 <_ZN7ns_menu7timeOutE+0x1>
    2ca4:	10 92 b9 01 	sts	0x01B9, r1	; 0x8001b9 <_ZN7ns_menu7timeOutE+0x2>
    2ca8:	10 92 ba 01 	sts	0x01BA, r1	; 0x8001ba <_ZN7ns_menu7timeOutE+0x3>
    2cac:	8f bf       	out	0x3f, r24	; 63
    2cae:	e0 91 d6 01 	lds	r30, 0x01D6	; 0x8001d6 <key4>
    2cb2:	f0 91 d7 01 	lds	r31, 0x01D7	; 0x8001d7 <key4+0x1>
    2cb6:	10 82       	st	Z, r1
    2cb8:	60 91 8e 01 	lds	r22, 0x018E	; 0x80018e <_ZN7ns_menu15corCurTube_baseE>
    2cbc:	70 91 8f 01 	lds	r23, 0x018F	; 0x80018f <_ZN7ns_menu15corCurTube_baseE+0x1>
    2cc0:	80 91 92 01 	lds	r24, 0x0192	; 0x800192 <_ZN7ns_menu12corCurTube_lE>
    2cc4:	90 e0       	ldi	r25, 0x00	; 0
    2cc6:	88 0f       	add	r24, r24
    2cc8:	99 1f       	adc	r25, r25
    2cca:	8e 50       	subi	r24, 0x0E	; 14
    2ccc:	93 4f       	sbci	r25, 0xF3	; 243
    2cce:	0e 94 ab 2f 	call	0x5f56	; 0x5f56 <eeprom_update_word>
    2cd2:	80 e0       	ldi	r24, 0x00	; 0
    2cd4:	e4 cd       	rjmp	.-1080   	; 0x289e <_ZN7ns_menu7SetModeEh>
    2cd6:	08 95       	ret

00002cd8 <_ZN7ns_menu11ZeroArc_YesEh>:
    2cd8:	8f b7       	in	r24, 0x3f	; 63
    2cda:	f8 94       	cli
    2cdc:	10 92 b7 01 	sts	0x01B7, r1	; 0x8001b7 <_ZN7ns_menu7timeOutE>
    2ce0:	10 92 b8 01 	sts	0x01B8, r1	; 0x8001b8 <_ZN7ns_menu7timeOutE+0x1>
    2ce4:	10 92 b9 01 	sts	0x01B9, r1	; 0x8001b9 <_ZN7ns_menu7timeOutE+0x2>
    2ce8:	10 92 ba 01 	sts	0x01BA, r1	; 0x8001ba <_ZN7ns_menu7timeOutE+0x3>
    2cec:	8f bf       	out	0x3f, r24	; 63
    2cee:	0e 94 8a 03 	call	0x714	; 0x714 <_ZN10ns_archive8SummZeroEv>
    2cf2:	80 e0       	ldi	r24, 0x00	; 0
    2cf4:	d4 cd       	rjmp	.-1112   	; 0x289e <_ZN7ns_menu7SetModeEh>
    2cf6:	08 95       	ret

00002cf8 <_ZN7ns_menu12ZeroArc_MenuEh>:
    2cf8:	8f b7       	in	r24, 0x3f	; 63
    2cfa:	f8 94       	cli
    2cfc:	10 92 b7 01 	sts	0x01B7, r1	; 0x8001b7 <_ZN7ns_menu7timeOutE>
    2d00:	10 92 b8 01 	sts	0x01B8, r1	; 0x8001b8 <_ZN7ns_menu7timeOutE+0x1>
    2d04:	10 92 b9 01 	sts	0x01B9, r1	; 0x8001b9 <_ZN7ns_menu7timeOutE+0x2>
    2d08:	10 92 ba 01 	sts	0x01BA, r1	; 0x8001ba <_ZN7ns_menu7timeOutE+0x3>
    2d0c:	8f bf       	out	0x3f, r24	; 63
    2d0e:	82 e0       	ldi	r24, 0x02	; 2
    2d10:	c6 cd       	rjmp	.-1140   	; 0x289e <_ZN7ns_menu7SetModeEh>
    2d12:	08 95       	ret

00002d14 <_ZN7ns_menu15ZeroArc_TimeOutEh>:
    2d14:	8f b7       	in	r24, 0x3f	; 63
    2d16:	f8 94       	cli
    2d18:	10 92 b7 01 	sts	0x01B7, r1	; 0x8001b7 <_ZN7ns_menu7timeOutE>
    2d1c:	10 92 b8 01 	sts	0x01B8, r1	; 0x8001b8 <_ZN7ns_menu7timeOutE+0x1>
    2d20:	10 92 b9 01 	sts	0x01B9, r1	; 0x8001b9 <_ZN7ns_menu7timeOutE+0x2>
    2d24:	10 92 ba 01 	sts	0x01BA, r1	; 0x8001ba <_ZN7ns_menu7timeOutE+0x3>
    2d28:	8f bf       	out	0x3f, r24	; 63
    2d2a:	80 e0       	ldi	r24, 0x00	; 0
    2d2c:	b8 cd       	rjmp	.-1168   	; 0x289e <_ZN7ns_menu7SetModeEh>
    2d2e:	08 95       	ret

00002d30 <_ZN7ns_menu19ProtectIntervalBackEh>:
    2d30:	8f b7       	in	r24, 0x3f	; 63
    2d32:	f8 94       	cli
    2d34:	10 92 b7 01 	sts	0x01B7, r1	; 0x8001b7 <_ZN7ns_menu7timeOutE>
    2d38:	10 92 b8 01 	sts	0x01B8, r1	; 0x8001b8 <_ZN7ns_menu7timeOutE+0x1>
    2d3c:	10 92 b9 01 	sts	0x01B9, r1	; 0x8001b9 <_ZN7ns_menu7timeOutE+0x2>
    2d40:	10 92 ba 01 	sts	0x01BA, r1	; 0x8001ba <_ZN7ns_menu7timeOutE+0x3>
    2d44:	8f bf       	out	0x3f, r24	; 63
    2d46:	82 e0       	ldi	r24, 0x02	; 2
    2d48:	aa cd       	rjmp	.-1196   	; 0x289e <_ZN7ns_menu7SetModeEh>
    2d4a:	08 95       	ret

00002d4c <_ZN7ns_menu17ProtectIntervalEnEh>:
    2d4c:	8f b7       	in	r24, 0x3f	; 63
    2d4e:	f8 94       	cli
    2d50:	10 92 b7 01 	sts	0x01B7, r1	; 0x8001b7 <_ZN7ns_menu7timeOutE>
    2d54:	10 92 b8 01 	sts	0x01B8, r1	; 0x8001b8 <_ZN7ns_menu7timeOutE+0x1>
    2d58:	10 92 b9 01 	sts	0x01B9, r1	; 0x8001b9 <_ZN7ns_menu7timeOutE+0x2>
    2d5c:	10 92 ba 01 	sts	0x01BA, r1	; 0x8001ba <_ZN7ns_menu7timeOutE+0x3>
    2d60:	8f bf       	out	0x3f, r24	; 63
    2d62:	e0 91 d6 01 	lds	r30, 0x01D6	; 0x8001d6 <key4>
    2d66:	f0 91 d7 01 	lds	r31, 0x01D7	; 0x8001d7 <key4+0x1>
    2d6a:	10 82       	st	Z, r1
    2d6c:	20 91 8c 01 	lds	r18, 0x018C	; 0x80018c <_ZN7ns_menu11tmpIntervalE>
    2d70:	30 91 8d 01 	lds	r19, 0x018D	; 0x80018d <_ZN7ns_menu11tmpIntervalE+0x1>
    2d74:	a0 ed       	ldi	r26, 0xD0	; 208
    2d76:	b7 e0       	ldi	r27, 0x07	; 7
    2d78:	0e 94 f0 2c 	call	0x59e0	; 0x59e0 <__umulhisi3>
    2d7c:	28 ee       	ldi	r18, 0xE8	; 232
    2d7e:	33 e0       	ldi	r19, 0x03	; 3
    2d80:	40 e0       	ldi	r20, 0x00	; 0
    2d82:	50 e0       	ldi	r21, 0x00	; 0
    2d84:	0e 94 b2 2c 	call	0x5964	; 0x5964 <__udivmodsi4>
    2d88:	b9 01       	movw	r22, r18
    2d8a:	80 ef       	ldi	r24, 0xF0	; 240
    2d8c:	9c e0       	ldi	r25, 0x0C	; 12
    2d8e:	0e 94 ab 2f 	call	0x5f56	; 0x5f56 <eeprom_update_word>
    2d92:	82 e0       	ldi	r24, 0x02	; 2
    2d94:	84 cd       	rjmp	.-1272   	; 0x289e <_ZN7ns_menu7SetModeEh>
    2d96:	08 95       	ret

00002d98 <_ZN7ns_menu12TmIntegralBcEh>:
    2d98:	8f b7       	in	r24, 0x3f	; 63
    2d9a:	f8 94       	cli
    2d9c:	10 92 b7 01 	sts	0x01B7, r1	; 0x8001b7 <_ZN7ns_menu7timeOutE>
    2da0:	10 92 b8 01 	sts	0x01B8, r1	; 0x8001b8 <_ZN7ns_menu7timeOutE+0x1>
    2da4:	10 92 b9 01 	sts	0x01B9, r1	; 0x8001b9 <_ZN7ns_menu7timeOutE+0x2>
    2da8:	10 92 ba 01 	sts	0x01BA, r1	; 0x8001ba <_ZN7ns_menu7timeOutE+0x3>
    2dac:	8f bf       	out	0x3f, r24	; 63
    2dae:	e0 91 d6 01 	lds	r30, 0x01D6	; 0x8001d6 <key4>
    2db2:	f0 91 d7 01 	lds	r31, 0x01D7	; 0x8001d7 <key4+0x1>
    2db6:	10 82       	st	Z, r1
    2db8:	82 e0       	ldi	r24, 0x02	; 2
    2dba:	71 cd       	rjmp	.-1310   	; 0x289e <_ZN7ns_menu7SetModeEh>
    2dbc:	08 95       	ret

00002dbe <_ZN7ns_menu12TmIntegralEnEh>:
    2dbe:	cf 92       	push	r12
    2dc0:	df 92       	push	r13
    2dc2:	ef 92       	push	r14
    2dc4:	ff 92       	push	r15
    2dc6:	8f b7       	in	r24, 0x3f	; 63
    2dc8:	f8 94       	cli
    2dca:	10 92 b7 01 	sts	0x01B7, r1	; 0x8001b7 <_ZN7ns_menu7timeOutE>
    2dce:	10 92 b8 01 	sts	0x01B8, r1	; 0x8001b8 <_ZN7ns_menu7timeOutE+0x1>
    2dd2:	10 92 b9 01 	sts	0x01B9, r1	; 0x8001b9 <_ZN7ns_menu7timeOutE+0x2>
    2dd6:	10 92 ba 01 	sts	0x01BA, r1	; 0x8001ba <_ZN7ns_menu7timeOutE+0x3>
    2dda:	8f bf       	out	0x3f, r24	; 63
    2ddc:	e0 91 d6 01 	lds	r30, 0x01D6	; 0x8001d6 <key4>
    2de0:	f0 91 d7 01 	lds	r31, 0x01D7	; 0x8001d7 <key4+0x1>
    2de4:	10 82       	st	Z, r1
    2de6:	20 91 8a 01 	lds	r18, 0x018A	; 0x80018a <_ZN7ns_menu10tmIntegralE>
    2dea:	30 91 8b 01 	lds	r19, 0x018B	; 0x80018b <_ZN7ns_menu10tmIntegralE+0x1>
    2dee:	a0 ed       	ldi	r26, 0xD0	; 208
    2df0:	b7 e0       	ldi	r27, 0x07	; 7
    2df2:	0e 94 f0 2c 	call	0x59e0	; 0x59e0 <__umulhisi3>
    2df6:	28 ee       	ldi	r18, 0xE8	; 232
    2df8:	33 e0       	ldi	r19, 0x03	; 3
    2dfa:	40 e0       	ldi	r20, 0x00	; 0
    2dfc:	50 e0       	ldi	r21, 0x00	; 0
    2dfe:	0e 94 b2 2c 	call	0x5964	; 0x5964 <__udivmodsi4>
    2e02:	69 01       	movw	r12, r18
    2e04:	7a 01       	movw	r14, r20
    2e06:	b9 01       	movw	r22, r18
    2e08:	8e ee       	ldi	r24, 0xEE	; 238
    2e0a:	9c e0       	ldi	r25, 0x0C	; 12
    2e0c:	0e 94 ab 2f 	call	0x5f56	; 0x5f56 <eeprom_update_word>
    2e10:	ef e7       	ldi	r30, 0x7F	; 127
    2e12:	f1 e0       	ldi	r31, 0x01	; 1
    2e14:	a0 81       	ld	r26, Z
    2e16:	b1 81       	ldd	r27, Z+1	; 0x01
    2e18:	12 96       	adiw	r26, 0x02	; 2
    2e1a:	dc 92       	st	X, r13
    2e1c:	ce 92       	st	-X, r12
    2e1e:	11 97       	sbiw	r26, 0x01	; 1
    2e20:	a2 81       	ldd	r26, Z+2	; 0x02
    2e22:	b3 81       	ldd	r27, Z+3	; 0x03
    2e24:	12 96       	adiw	r26, 0x02	; 2
    2e26:	dc 92       	st	X, r13
    2e28:	ce 92       	st	-X, r12
    2e2a:	11 97       	sbiw	r26, 0x01	; 1
    2e2c:	a4 81       	ldd	r26, Z+4	; 0x04
    2e2e:	b5 81       	ldd	r27, Z+5	; 0x05
    2e30:	12 96       	adiw	r26, 0x02	; 2
    2e32:	dc 92       	st	X, r13
    2e34:	ce 92       	st	-X, r12
    2e36:	11 97       	sbiw	r26, 0x01	; 1
    2e38:	a6 81       	ldd	r26, Z+6	; 0x06
    2e3a:	b7 81       	ldd	r27, Z+7	; 0x07
    2e3c:	12 96       	adiw	r26, 0x02	; 2
    2e3e:	dc 92       	st	X, r13
    2e40:	ce 92       	st	-X, r12
    2e42:	11 97       	sbiw	r26, 0x01	; 1
    2e44:	00 84       	ldd	r0, Z+8	; 0x08
    2e46:	f1 85       	ldd	r31, Z+9	; 0x09
    2e48:	e0 2d       	mov	r30, r0
    2e4a:	d2 82       	std	Z+2, r13	; 0x02
    2e4c:	c1 82       	std	Z+1, r12	; 0x01
    2e4e:	82 e0       	ldi	r24, 0x02	; 2
    2e50:	26 dd       	rcall	.-1460   	; 0x289e <_ZN7ns_menu7SetModeEh>
    2e52:	ff 90       	pop	r15
    2e54:	ef 90       	pop	r14
    2e56:	df 90       	pop	r13
    2e58:	cf 90       	pop	r12
    2e5a:	08 95       	ret

00002e5c <_ZN7ns_menu10CorSpeedEnEh>:
    2e5c:	8f b7       	in	r24, 0x3f	; 63
    2e5e:	f8 94       	cli
    2e60:	10 92 b7 01 	sts	0x01B7, r1	; 0x8001b7 <_ZN7ns_menu7timeOutE>
    2e64:	10 92 b8 01 	sts	0x01B8, r1	; 0x8001b8 <_ZN7ns_menu7timeOutE+0x1>
    2e68:	10 92 b9 01 	sts	0x01B9, r1	; 0x8001b9 <_ZN7ns_menu7timeOutE+0x2>
    2e6c:	10 92 ba 01 	sts	0x01BA, r1	; 0x8001ba <_ZN7ns_menu7timeOutE+0x3>
    2e70:	8f bf       	out	0x3f, r24	; 63
    2e72:	e0 91 d6 01 	lds	r30, 0x01D6	; 0x8001d6 <key4>
    2e76:	f0 91 d7 01 	lds	r31, 0x01D7	; 0x8001d7 <key4+0x1>
    2e7a:	10 82       	st	Z, r1
    2e7c:	60 91 89 01 	lds	r22, 0x0189	; 0x800189 <_ZN7ns_menu8corSpeedE>
    2e80:	8d ee       	ldi	r24, 0xED	; 237
    2e82:	9c e0       	ldi	r25, 0x0C	; 12
    2e84:	0e 94 9a 2f 	call	0x5f34	; 0x5f34 <eeprom_update_byte>
    2e88:	82 e0       	ldi	r24, 0x02	; 2
    2e8a:	09 cd       	rjmp	.-1518   	; 0x289e <_ZN7ns_menu7SetModeEh>
    2e8c:	08 95       	ret

00002e8e <_ZN7ns_menu10CorSpeedBcEh>:
    2e8e:	8f b7       	in	r24, 0x3f	; 63
    2e90:	f8 94       	cli
    2e92:	10 92 b7 01 	sts	0x01B7, r1	; 0x8001b7 <_ZN7ns_menu7timeOutE>
    2e96:	10 92 b8 01 	sts	0x01B8, r1	; 0x8001b8 <_ZN7ns_menu7timeOutE+0x1>
    2e9a:	10 92 b9 01 	sts	0x01B9, r1	; 0x8001b9 <_ZN7ns_menu7timeOutE+0x2>
    2e9e:	10 92 ba 01 	sts	0x01BA, r1	; 0x8001ba <_ZN7ns_menu7timeOutE+0x3>
    2ea2:	8f bf       	out	0x3f, r24	; 63
    2ea4:	e0 91 d6 01 	lds	r30, 0x01D6	; 0x8001d6 <key4>
    2ea8:	f0 91 d7 01 	lds	r31, 0x01D7	; 0x8001d7 <key4+0x1>
    2eac:	10 82       	st	Z, r1
    2eae:	82 e0       	ldi	r24, 0x02	; 2
    2eb0:	f6 cc       	rjmp	.-1556   	; 0x289e <_ZN7ns_menu7SetModeEh>
    2eb2:	08 95       	ret

00002eb4 <_ZN7ns_menu4InitEv>:
    2eb4:	80 e0       	ldi	r24, 0x00	; 0
    2eb6:	f3 cc       	rjmp	.-1562   	; 0x289e <_ZN7ns_menu7SetModeEh>
    2eb8:	08 95       	ret

00002eba <_ZN7ns_menu4MainEv>:
    2eba:	cf 93       	push	r28
    2ebc:	df 93       	push	r29
    2ebe:	1f 92       	push	r1
    2ec0:	cd b7       	in	r28, 0x3d	; 61
    2ec2:	de b7       	in	r29, 0x3e	; 62
    2ec4:	be 01       	movw	r22, r28
    2ec6:	6f 5f       	subi	r22, 0xFF	; 255
    2ec8:	7f 4f       	sbci	r23, 0xFF	; 255
    2eca:	80 91 d6 01 	lds	r24, 0x01D6	; 0x8001d6 <key4>
    2ece:	90 91 d7 01 	lds	r25, 0x01D7	; 0x8001d7 <key4+0x1>
    2ed2:	0e 94 f7 25 	call	0x4bee	; 0x4bee <_ZN7tc_key44ReadEPh>
    2ed6:	9f b7       	in	r25, 0x3f	; 63
    2ed8:	f8 94       	cli
    2eda:	40 91 b7 01 	lds	r20, 0x01B7	; 0x8001b7 <_ZN7ns_menu7timeOutE>
    2ede:	50 91 b8 01 	lds	r21, 0x01B8	; 0x8001b8 <_ZN7ns_menu7timeOutE+0x1>
    2ee2:	60 91 b9 01 	lds	r22, 0x01B9	; 0x8001b9 <_ZN7ns_menu7timeOutE+0x2>
    2ee6:	70 91 ba 01 	lds	r23, 0x01BA	; 0x8001ba <_ZN7ns_menu7timeOutE+0x3>
    2eea:	9f bf       	out	0x3f, r25	; 63
    2eec:	41 30       	cpi	r20, 0x01	; 1
    2eee:	51 05       	cpc	r21, r1
    2ef0:	61 05       	cpc	r22, r1
    2ef2:	71 05       	cpc	r23, r1
    2ef4:	d1 f4       	brne	.+52     	; 0x2f2a <_ZN7ns_menu4MainEv+0x70>
    2ef6:	8f b7       	in	r24, 0x3f	; 63
    2ef8:	f8 94       	cli
    2efa:	10 92 b7 01 	sts	0x01B7, r1	; 0x8001b7 <_ZN7ns_menu7timeOutE>
    2efe:	10 92 b8 01 	sts	0x01B8, r1	; 0x8001b8 <_ZN7ns_menu7timeOutE+0x1>
    2f02:	10 92 b9 01 	sts	0x01B9, r1	; 0x8001b9 <_ZN7ns_menu7timeOutE+0x2>
    2f06:	10 92 ba 01 	sts	0x01BA, r1	; 0x8001ba <_ZN7ns_menu7timeOutE+0x3>
    2f0a:	8f bf       	out	0x3f, r24	; 63
    2f0c:	80 91 bb 01 	lds	r24, 0x01BB	; 0x8001bb <_ZN7ns_menu4modeE>
    2f10:	20 e1       	ldi	r18, 0x10	; 16
    2f12:	82 9f       	mul	r24, r18
    2f14:	c0 01       	movw	r24, r0
    2f16:	11 24       	eor	r1, r1
    2f18:	81 52       	subi	r24, 0x21	; 33
    2f1a:	9d 4f       	sbci	r25, 0xFD	; 253
    2f1c:	fc 01       	movw	r30, r24
    2f1e:	25 91       	lpm	r18, Z+
    2f20:	34 91       	lpm	r19, Z
    2f22:	89 81       	ldd	r24, Y+1	; 0x01
    2f24:	f9 01       	movw	r30, r18
    2f26:	09 95       	icall
    2f28:	12 c0       	rjmp	.+36     	; 0x2f4e <_ZN7ns_menu4MainEv+0x94>
    2f2a:	90 91 bb 01 	lds	r25, 0x01BB	; 0x8001bb <_ZN7ns_menu4modeE>
    2f2e:	e8 2f       	mov	r30, r24
    2f30:	f0 e0       	ldi	r31, 0x00	; 0
    2f32:	28 e0       	ldi	r18, 0x08	; 8
    2f34:	92 9f       	mul	r25, r18
    2f36:	e0 0d       	add	r30, r0
    2f38:	f1 1d       	adc	r31, r1
    2f3a:	11 24       	eor	r1, r1
    2f3c:	ee 0f       	add	r30, r30
    2f3e:	ff 1f       	adc	r31, r31
    2f40:	ef 52       	subi	r30, 0x2F	; 47
    2f42:	fd 4f       	sbci	r31, 0xFD	; 253
    2f44:	25 91       	lpm	r18, Z+
    2f46:	34 91       	lpm	r19, Z
    2f48:	89 81       	ldd	r24, Y+1	; 0x01
    2f4a:	f9 01       	movw	r30, r18
    2f4c:	09 95       	icall
    2f4e:	0f 90       	pop	r0
    2f50:	df 91       	pop	r29
    2f52:	cf 91       	pop	r28
    2f54:	08 95       	ret

00002f56 <_ZN7ns_menu9InterruptEv>:
    2f56:	2f b7       	in	r18, 0x3f	; 63
    2f58:	f8 94       	cli
    2f5a:	80 91 b7 01 	lds	r24, 0x01B7	; 0x8001b7 <_ZN7ns_menu7timeOutE>
    2f5e:	90 91 b8 01 	lds	r25, 0x01B8	; 0x8001b8 <_ZN7ns_menu7timeOutE+0x1>
    2f62:	a0 91 b9 01 	lds	r26, 0x01B9	; 0x8001b9 <_ZN7ns_menu7timeOutE+0x2>
    2f66:	b0 91 ba 01 	lds	r27, 0x01BA	; 0x8001ba <_ZN7ns_menu7timeOutE+0x3>
    2f6a:	82 30       	cpi	r24, 0x02	; 2
    2f6c:	91 05       	cpc	r25, r1
    2f6e:	a1 05       	cpc	r26, r1
    2f70:	b1 05       	cpc	r27, r1
    2f72:	58 f0       	brcs	.+22     	; 0x2f8a <_ZN7ns_menu9InterruptEv+0x34>
    2f74:	01 97       	sbiw	r24, 0x01	; 1
    2f76:	a1 09       	sbc	r26, r1
    2f78:	b1 09       	sbc	r27, r1
    2f7a:	80 93 b7 01 	sts	0x01B7, r24	; 0x8001b7 <_ZN7ns_menu7timeOutE>
    2f7e:	90 93 b8 01 	sts	0x01B8, r25	; 0x8001b8 <_ZN7ns_menu7timeOutE+0x1>
    2f82:	a0 93 b9 01 	sts	0x01B9, r26	; 0x8001b9 <_ZN7ns_menu7timeOutE+0x2>
    2f86:	b0 93 ba 01 	sts	0x01BA, r27	; 0x8001ba <_ZN7ns_menu7timeOutE+0x3>
    2f8a:	2f bf       	out	0x3f, r18	; 63
    2f8c:	08 95       	ret

00002f8e <_ZN7ns_menu9Main_vArcEv>:
    2f8e:	cf 93       	push	r28
    2f90:	df 93       	push	r29
    2f92:	00 d0       	rcall	.+0      	; 0x2f94 <_ZN7ns_menu9Main_vArcEv+0x6>
    2f94:	00 d0       	rcall	.+0      	; 0x2f96 <_ZN7ns_menu9Main_vArcEv+0x8>
    2f96:	1f 92       	push	r1
    2f98:	cd b7       	in	r28, 0x3d	; 61
    2f9a:	de b7       	in	r29, 0x3e	; 62
    2f9c:	ce 01       	movw	r24, r28
    2f9e:	01 96       	adiw	r24, 0x01	; 1
    2fa0:	0e 94 1c 03 	call	0x638	; 0x638 <_ZN10ns_archive4SummEPm>
    2fa4:	61 e0       	ldi	r22, 0x01	; 1
    2fa6:	87 e0       	ldi	r24, 0x07	; 7
    2fa8:	0e 94 8f 27 	call	0x4f1e	; 0x4f1e <_ZN6ns_lcd11SetPositionEhh>
    2fac:	8d 83       	std	Y+5, r24	; 0x05
    2fae:	6d ef       	ldi	r22, 0xFD	; 253
    2fb0:	71 e0       	ldi	r23, 0x01	; 1
    2fb2:	ce 01       	movw	r24, r28
    2fb4:	05 96       	adiw	r24, 0x05	; 5
    2fb6:	0e 94 64 28 	call	0x50c8	; 0x50c8 <_ZN6ns_lcd8String_PEPhPKc>
    2fba:	29 81       	ldd	r18, Y+1	; 0x01
    2fbc:	3a 81       	ldd	r19, Y+2	; 0x02
    2fbe:	4b 81       	ldd	r20, Y+3	; 0x03
    2fc0:	5c 81       	ldd	r21, Y+4	; 0x04
    2fc2:	67 e0       	ldi	r22, 0x07	; 7
    2fc4:	ce 01       	movw	r24, r28
    2fc6:	05 96       	adiw	r24, 0x05	; 5
    2fc8:	0e 94 a6 28 	call	0x514c	; 0x514c <_ZN6ns_lcd6DigitZEPhhl>
    2fcc:	0f 90       	pop	r0
    2fce:	0f 90       	pop	r0
    2fd0:	0f 90       	pop	r0
    2fd2:	0f 90       	pop	r0
    2fd4:	0f 90       	pop	r0
    2fd6:	df 91       	pop	r29
    2fd8:	cf 91       	pop	r28
    2fda:	08 95       	ret

00002fdc <_ZN7ns_menu12Main_SetModeEh>:
    2fdc:	0f 93       	push	r16
    2fde:	1f 93       	push	r17
    2fe0:	cf 93       	push	r28
    2fe2:	df 93       	push	r29
    2fe4:	1f 92       	push	r1
    2fe6:	cd b7       	in	r28, 0x3d	; 61
    2fe8:	de b7       	in	r29, 0x3e	; 62
    2fea:	8f b7       	in	r24, 0x3f	; 63
    2fec:	f8 94       	cli
    2fee:	10 92 b7 01 	sts	0x01B7, r1	; 0x8001b7 <_ZN7ns_menu7timeOutE>
    2ff2:	10 92 b8 01 	sts	0x01B8, r1	; 0x8001b8 <_ZN7ns_menu7timeOutE+0x1>
    2ff6:	10 92 b9 01 	sts	0x01B9, r1	; 0x8001b9 <_ZN7ns_menu7timeOutE+0x2>
    2ffa:	10 92 ba 01 	sts	0x01BA, r1	; 0x8001ba <_ZN7ns_menu7timeOutE+0x3>
    2ffe:	8f bf       	out	0x3f, r24	; 63
    3000:	e0 91 d6 01 	lds	r30, 0x01D6	; 0x8001d6 <key4>
    3004:	f0 91 d7 01 	lds	r31, 0x01D7	; 0x8001d7 <key4+0x1>
    3008:	10 82       	st	Z, r1
    300a:	0e 94 63 26 	call	0x4cc6	; 0x4cc6 <_ZN6ns_lcd5ClearEv>
    300e:	bf df       	rcall	.-130    	; 0x2f8e <_ZN7ns_menu9Main_vArcEv>
    3010:	80 91 3d 01 	lds	r24, 0x013D	; 0x80013d <_ZN10ns_archive3lenE>
    3014:	90 91 3e 01 	lds	r25, 0x013E	; 0x80013e <_ZN10ns_archive3lenE+0x1>
    3018:	89 2b       	or	r24, r25
    301a:	39 f4       	brne	.+14     	; 0x302a <_ZN7ns_menu12Main_SetModeEh+0x4e>
    301c:	80 e0       	ldi	r24, 0x00	; 0
    301e:	90 e0       	ldi	r25, 0x00	; 0
    3020:	0e 94 95 2f 	call	0x5f2a	; 0x5f2a <eeprom_read_word>
    3024:	89 2b       	or	r24, r25
    3026:	09 f4       	brne	.+2      	; 0x302a <_ZN7ns_menu12Main_SetModeEh+0x4e>
    3028:	44 c0       	rjmp	.+136    	; 0x30b2 <_ZN7ns_menu12Main_SetModeEh+0xd6>
    302a:	80 91 3f 01 	lds	r24, 0x013F	; 0x80013f <_ZN10ns_archive3idxE>
    302e:	90 91 40 01 	lds	r25, 0x0140	; 0x800140 <_ZN10ns_archive3idxE+0x1>
    3032:	00 97       	sbiw	r24, 0x00	; 0
    3034:	39 f4       	brne	.+14     	; 0x3044 <_ZN7ns_menu12Main_SetModeEh+0x68>
    3036:	8b e2       	ldi	r24, 0x2B	; 43
    3038:	91 e0       	ldi	r25, 0x01	; 1
    303a:	90 93 98 01 	sts	0x0198, r25	; 0x800198 <_ZN7ns_menu14corCurTube_idxE+0x1>
    303e:	80 93 97 01 	sts	0x0197, r24	; 0x800197 <_ZN7ns_menu14corCurTube_idxE>
    3042:	05 c0       	rjmp	.+10     	; 0x304e <_ZN7ns_menu12Main_SetModeEh+0x72>
    3044:	01 97       	sbiw	r24, 0x01	; 1
    3046:	90 93 98 01 	sts	0x0198, r25	; 0x800198 <_ZN7ns_menu14corCurTube_idxE+0x1>
    304a:	80 93 97 01 	sts	0x0197, r24	; 0x800197 <_ZN7ns_menu14corCurTube_idxE>
    304e:	80 91 97 01 	lds	r24, 0x0197	; 0x800197 <_ZN7ns_menu14corCurTube_idxE>
    3052:	90 91 98 01 	lds	r25, 0x0198	; 0x800198 <_ZN7ns_menu14corCurTube_idxE+0x1>
    3056:	2b e0       	ldi	r18, 0x0B	; 11
    3058:	28 9f       	mul	r18, r24
    305a:	b0 01       	movw	r22, r0
    305c:	29 9f       	mul	r18, r25
    305e:	70 0d       	add	r23, r0
    3060:	11 24       	eor	r1, r1
    3062:	6c 5f       	subi	r22, 0xFC	; 252
    3064:	7f 4f       	sbci	r23, 0xFF	; 255
    3066:	4b e0       	ldi	r20, 0x0B	; 11
    3068:	50 e0       	ldi	r21, 0x00	; 0
    306a:	89 e9       	ldi	r24, 0x99	; 153
    306c:	91 e0       	ldi	r25, 0x01	; 1
    306e:	0e 94 7d 2f 	call	0x5efa	; 0x5efa <eeprom_read_block>
    3072:	60 e0       	ldi	r22, 0x00	; 0
    3074:	80 e0       	ldi	r24, 0x00	; 0
    3076:	0e 94 8f 27 	call	0x4f1e	; 0x4f1e <_ZN6ns_lcd11SetPositionEhh>
    307a:	89 83       	std	Y+1, r24	; 0x01
    307c:	09 e9       	ldi	r16, 0x99	; 153
    307e:	11 e0       	ldi	r17, 0x01	; 1
    3080:	f8 01       	movw	r30, r16
    3082:	25 81       	ldd	r18, Z+5	; 0x05
    3084:	36 81       	ldd	r19, Z+6	; 0x06
    3086:	40 e0       	ldi	r20, 0x00	; 0
    3088:	50 e0       	ldi	r21, 0x00	; 0
    308a:	63 e0       	ldi	r22, 0x03	; 3
    308c:	ce 01       	movw	r24, r28
    308e:	01 96       	adiw	r24, 0x01	; 1
    3090:	0e 94 a6 28 	call	0x514c	; 0x514c <_ZN6ns_lcd6DigitZEPhhl>
    3094:	6a e3       	ldi	r22, 0x3A	; 58
    3096:	ce 01       	movw	r24, r28
    3098:	01 96       	adiw	r24, 0x01	; 1
    309a:	0e 94 f6 27 	call	0x4fec	; 0x4fec <_ZN6ns_lcd7PutCharEPhc>
    309e:	f8 01       	movw	r30, r16
    30a0:	27 81       	ldd	r18, Z+7	; 0x07
    30a2:	30 85       	ldd	r19, Z+8	; 0x08
    30a4:	40 e0       	ldi	r20, 0x00	; 0
    30a6:	50 e0       	ldi	r21, 0x00	; 0
    30a8:	65 e0       	ldi	r22, 0x05	; 5
    30aa:	ce 01       	movw	r24, r28
    30ac:	01 96       	adiw	r24, 0x01	; 1
    30ae:	0e 94 1e 29 	call	0x523c	; 0x523c <_ZN6ns_lcd5DigitEPhhl>
    30b2:	0f 90       	pop	r0
    30b4:	df 91       	pop	r29
    30b6:	cf 91       	pop	r28
    30b8:	1f 91       	pop	r17
    30ba:	0f 91       	pop	r16
    30bc:	08 95       	ret

000030be <_ZN7ns_menu9Main_ViewEh>:
    30be:	ef 92       	push	r14
    30c0:	ff 92       	push	r15
    30c2:	0f 93       	push	r16
    30c4:	1f 93       	push	r17
    30c6:	cf 93       	push	r28
    30c8:	df 93       	push	r29
    30ca:	1f 92       	push	r1
    30cc:	cd b7       	in	r28, 0x3d	; 61
    30ce:	de b7       	in	r29, 0x3e	; 62
    30d0:	80 91 fc 01 	lds	r24, 0x01FC	; 0x8001fc <_ZN5ns_vg10lenTubeNewE>
    30d4:	88 23       	and	r24, r24
    30d6:	99 f1       	breq	.+102    	; 0x313e <_ZN7ns_menu9Main_ViewEh+0x80>
    30d8:	10 92 fc 01 	sts	0x01FC, r1	; 0x8001fc <_ZN5ns_vg10lenTubeNewE>
    30dc:	0e 94 63 26 	call	0x4cc6	; 0x4cc6 <_ZN6ns_lcd5ClearEv>
    30e0:	60 e0       	ldi	r22, 0x00	; 0
    30e2:	80 e0       	ldi	r24, 0x00	; 0
    30e4:	0e 94 8f 27 	call	0x4f1e	; 0x4f1e <_ZN6ns_lcd11SetPositionEhh>
    30e8:	89 83       	std	Y+1, r24	; 0x01
    30ea:	80 91 fb 01 	lds	r24, 0x01FB	; 0x8001fb <_ZN5ns_vg11lenTubuStatE>
    30ee:	8a 30       	cpi	r24, 0x0A	; 10
    30f0:	31 f4       	brne	.+12     	; 0x30fe <_ZN7ns_menu9Main_ViewEh+0x40>
    30f2:	61 ef       	ldi	r22, 0xF1	; 241
    30f4:	71 e0       	ldi	r23, 0x01	; 1
    30f6:	ce 01       	movw	r24, r28
    30f8:	01 96       	adiw	r24, 0x01	; 1
    30fa:	0e 94 64 28 	call	0x50c8	; 0x50c8 <_ZN6ns_lcd8String_PEPhPKc>
    30fe:	80 91 fb 01 	lds	r24, 0x01FB	; 0x8001fb <_ZN5ns_vg11lenTubuStatE>
    3102:	81 30       	cpi	r24, 0x01	; 1
    3104:	d9 f4       	brne	.+54     	; 0x313c <_ZN7ns_menu9Main_ViewEh+0x7e>
    3106:	20 91 ff 01 	lds	r18, 0x01FF	; 0x8001ff <_ZN5ns_vg5nTubeE>
    310a:	30 91 00 02 	lds	r19, 0x0200	; 0x800200 <_ZN5ns_vg5nTubeE+0x1>
    310e:	40 e0       	ldi	r20, 0x00	; 0
    3110:	50 e0       	ldi	r21, 0x00	; 0
    3112:	63 e0       	ldi	r22, 0x03	; 3
    3114:	ce 01       	movw	r24, r28
    3116:	01 96       	adiw	r24, 0x01	; 1
    3118:	0e 94 a6 28 	call	0x514c	; 0x514c <_ZN6ns_lcd6DigitZEPhhl>
    311c:	6a e3       	ldi	r22, 0x3A	; 58
    311e:	ce 01       	movw	r24, r28
    3120:	01 96       	adiw	r24, 0x01	; 1
    3122:	0e 94 f6 27 	call	0x4fec	; 0x4fec <_ZN6ns_lcd7PutCharEPhc>
    3126:	20 91 2f 01 	lds	r18, 0x012F	; 0x80012f <_ZN5ns_vg7lenTubeE>
    312a:	30 91 30 01 	lds	r19, 0x0130	; 0x800130 <_ZN5ns_vg7lenTubeE+0x1>
    312e:	40 e0       	ldi	r20, 0x00	; 0
    3130:	50 e0       	ldi	r21, 0x00	; 0
    3132:	65 e0       	ldi	r22, 0x05	; 5
    3134:	ce 01       	movw	r24, r28
    3136:	01 96       	adiw	r24, 0x01	; 1
    3138:	0e 94 1e 29 	call	0x523c	; 0x523c <_ZN6ns_lcd5DigitEPhhl>
    313c:	28 df       	rcall	.-432    	; 0x2f8e <_ZN7ns_menu9Main_vArcEv>
    313e:	61 e0       	ldi	r22, 0x01	; 1
    3140:	80 e0       	ldi	r24, 0x00	; 0
    3142:	0e 94 8f 27 	call	0x4f1e	; 0x4f1e <_ZN6ns_lcd11SetPositionEhh>
    3146:	89 83       	std	Y+1, r24	; 0x01
    3148:	0f e7       	ldi	r16, 0x7F	; 127
    314a:	11 e0       	ldi	r17, 0x01	; 1
    314c:	0f 2e       	mov	r0, r31
    314e:	f9 e8       	ldi	r31, 0x89	; 137
    3150:	ef 2e       	mov	r14, r31
    3152:	f1 e0       	ldi	r31, 0x01	; 1
    3154:	ff 2e       	mov	r15, r31
    3156:	f0 2d       	mov	r31, r0
    3158:	d8 01       	movw	r26, r16
    315a:	ed 91       	ld	r30, X+
    315c:	fd 91       	ld	r31, X+
    315e:	8d 01       	movw	r16, r26
    3160:	85 85       	ldd	r24, Z+13	; 0x0d
    3162:	88 23       	and	r24, r24
    3164:	31 f0       	breq	.+12     	; 0x3172 <_ZN7ns_menu9Main_ViewEh+0xb4>
    3166:	60 e0       	ldi	r22, 0x00	; 0
    3168:	ce 01       	movw	r24, r28
    316a:	01 96       	adiw	r24, 0x01	; 1
    316c:	0e 94 f6 27 	call	0x4fec	; 0x4fec <_ZN6ns_lcd7PutCharEPhc>
    3170:	05 c0       	rjmp	.+10     	; 0x317c <_ZN7ns_menu9Main_ViewEh+0xbe>
    3172:	61 e0       	ldi	r22, 0x01	; 1
    3174:	ce 01       	movw	r24, r28
    3176:	01 96       	adiw	r24, 0x01	; 1
    3178:	0e 94 f6 27 	call	0x4fec	; 0x4fec <_ZN6ns_lcd7PutCharEPhc>
    317c:	0e 15       	cp	r16, r14
    317e:	1f 05       	cpc	r17, r15
    3180:	59 f7       	brne	.-42     	; 0x3158 <_ZN7ns_menu9Main_ViewEh+0x9a>
    3182:	60 e0       	ldi	r22, 0x00	; 0
    3184:	8b e0       	ldi	r24, 0x0B	; 11
    3186:	0e 94 8f 27 	call	0x4f1e	; 0x4f1e <_ZN6ns_lcd11SetPositionEhh>
    318a:	89 83       	std	Y+1, r24	; 0x01
    318c:	80 91 bc 01 	lds	r24, 0x01BC	; 0x8001bc <_ZN8ns_clock3tikE>
    3190:	88 23       	and	r24, r24
    3192:	19 f1       	breq	.+70     	; 0x31da <_ZN7ns_menu9Main_ViewEh+0x11c>
    3194:	20 91 c8 01 	lds	r18, 0x01C8	; 0x8001c8 <_ZN8ns_clock4timeE+0x2>
    3198:	30 e0       	ldi	r19, 0x00	; 0
    319a:	40 e0       	ldi	r20, 0x00	; 0
    319c:	50 e0       	ldi	r21, 0x00	; 0
    319e:	62 e0       	ldi	r22, 0x02	; 2
    31a0:	ce 01       	movw	r24, r28
    31a2:	01 96       	adiw	r24, 0x01	; 1
    31a4:	0e 94 1e 29 	call	0x523c	; 0x523c <_ZN6ns_lcd5DigitEPhhl>
    31a8:	80 91 bd 01 	lds	r24, 0x01BD	; 0x8001bd <_ZN8ns_clock6tik_cnE>
    31ac:	81 11       	cpse	r24, r1
    31ae:	06 c0       	rjmp	.+12     	; 0x31bc <_ZN7ns_menu9Main_ViewEh+0xfe>
    31b0:	6a e3       	ldi	r22, 0x3A	; 58
    31b2:	ce 01       	movw	r24, r28
    31b4:	01 96       	adiw	r24, 0x01	; 1
    31b6:	0e 94 f6 27 	call	0x4fec	; 0x4fec <_ZN6ns_lcd7PutCharEPhc>
    31ba:	05 c0       	rjmp	.+10     	; 0x31c6 <_ZN7ns_menu9Main_ViewEh+0x108>
    31bc:	60 e2       	ldi	r22, 0x20	; 32
    31be:	ce 01       	movw	r24, r28
    31c0:	01 96       	adiw	r24, 0x01	; 1
    31c2:	0e 94 f6 27 	call	0x4fec	; 0x4fec <_ZN6ns_lcd7PutCharEPhc>
    31c6:	20 91 c7 01 	lds	r18, 0x01C7	; 0x8001c7 <_ZN8ns_clock4timeE+0x1>
    31ca:	30 e0       	ldi	r19, 0x00	; 0
    31cc:	40 e0       	ldi	r20, 0x00	; 0
    31ce:	50 e0       	ldi	r21, 0x00	; 0
    31d0:	62 e0       	ldi	r22, 0x02	; 2
    31d2:	ce 01       	movw	r24, r28
    31d4:	01 96       	adiw	r24, 0x01	; 1
    31d6:	0e 94 a6 28 	call	0x514c	; 0x514c <_ZN6ns_lcd6DigitZEPhhl>
    31da:	0f 90       	pop	r0
    31dc:	df 91       	pop	r29
    31de:	cf 91       	pop	r28
    31e0:	1f 91       	pop	r17
    31e2:	0f 91       	pop	r16
    31e4:	ff 90       	pop	r15
    31e6:	ef 90       	pop	r14
    31e8:	08 95       	ret

000031ea <_ZN7ns_menu15Menu_SelectViewEh>:
    31ea:	0e 94 63 26 	call	0x4cc6	; 0x4cc6 <_ZN6ns_lcd5ClearEv>
    31ee:	e0 91 b5 01 	lds	r30, 0x01B5	; 0x8001b5 <_ZN7ns_menu10curPosPassE>
    31f2:	f0 e0       	ldi	r31, 0x00	; 0
    31f4:	ee 0f       	add	r30, r30
    31f6:	ff 1f       	adc	r31, r31
    31f8:	ed 5e       	subi	r30, 0xED	; 237
    31fa:	fe 4f       	sbci	r31, 0xFE	; 254
    31fc:	60 81       	ld	r22, Z
    31fe:	71 81       	ldd	r23, Z+1	; 0x01
    3200:	80 e0       	ldi	r24, 0x00	; 0
    3202:	0c 94 99 28 	jmp	0x5132	; 0x5132 <_ZN6ns_lcd8String_PEhPKc>
    3206:	08 95       	ret

00003208 <_ZN7ns_menu11Menu_SelectEh>:
    3208:	cf 93       	push	r28
    320a:	c8 2f       	mov	r28, r24
    320c:	8f b7       	in	r24, 0x3f	; 63
    320e:	f8 94       	cli
    3210:	10 92 b7 01 	sts	0x01B7, r1	; 0x8001b7 <_ZN7ns_menu7timeOutE>
    3214:	10 92 b8 01 	sts	0x01B8, r1	; 0x8001b8 <_ZN7ns_menu7timeOutE+0x1>
    3218:	10 92 b9 01 	sts	0x01B9, r1	; 0x8001b9 <_ZN7ns_menu7timeOutE+0x2>
    321c:	10 92 ba 01 	sts	0x01BA, r1	; 0x8001ba <_ZN7ns_menu7timeOutE+0x3>
    3220:	8f bf       	out	0x3f, r24	; 63
    3222:	e0 91 d6 01 	lds	r30, 0x01D6	; 0x8001d6 <key4>
    3226:	f0 91 d7 01 	lds	r31, 0x01D7	; 0x8001d7 <key4+0x1>
    322a:	10 82       	st	Z, r1
    322c:	0e 94 63 26 	call	0x4cc6	; 0x4cc6 <_ZN6ns_lcd5ClearEv>
    3230:	60 e0       	ldi	r22, 0x00	; 0
    3232:	80 e0       	ldi	r24, 0x00	; 0
    3234:	0e 94 8f 27 	call	0x4f1e	; 0x4f1e <_ZN6ns_lcd11SetPositionEhh>
    3238:	80 93 e0 01 	sts	0x01E0, r24	; 0x8001e0 <_ZN6ns_lcd3posE>
    323c:	10 92 b5 01 	sts	0x01B5, r1	; 0x8001b5 <_ZN7ns_menu10curPosPassE>
    3240:	8c 2f       	mov	r24, r28
    3242:	d3 df       	rcall	.-90     	; 0x31ea <_ZN7ns_menu15Menu_SelectViewEh>
    3244:	8f b7       	in	r24, 0x3f	; 63
    3246:	f8 94       	cli
    3248:	40 e9       	ldi	r20, 0x90	; 144
    324a:	5f e5       	ldi	r21, 0x5F	; 95
    324c:	61 e0       	ldi	r22, 0x01	; 1
    324e:	70 e0       	ldi	r23, 0x00	; 0
    3250:	40 93 b7 01 	sts	0x01B7, r20	; 0x8001b7 <_ZN7ns_menu7timeOutE>
    3254:	50 93 b8 01 	sts	0x01B8, r21	; 0x8001b8 <_ZN7ns_menu7timeOutE+0x1>
    3258:	60 93 b9 01 	sts	0x01B9, r22	; 0x8001b9 <_ZN7ns_menu7timeOutE+0x2>
    325c:	70 93 ba 01 	sts	0x01BA, r23	; 0x8001ba <_ZN7ns_menu7timeOutE+0x3>
    3260:	8f bf       	out	0x3f, r24	; 63
    3262:	cf 91       	pop	r28
    3264:	08 95       	ret

00003266 <_ZN7ns_menu16Menu_SelectMinusEh>:
    3266:	e0 91 d6 01 	lds	r30, 0x01D6	; 0x8001d6 <key4>
    326a:	f0 91 d7 01 	lds	r31, 0x01D7	; 0x8001d7 <key4+0x1>
    326e:	10 82       	st	Z, r1
    3270:	90 91 b5 01 	lds	r25, 0x01B5	; 0x8001b5 <_ZN7ns_menu10curPosPassE>
    3274:	99 23       	and	r25, r25
    3276:	21 f0       	breq	.+8      	; 0x3280 <_ZN7ns_menu16Menu_SelectMinusEh+0x1a>
    3278:	91 50       	subi	r25, 0x01	; 1
    327a:	90 93 b5 01 	sts	0x01B5, r25	; 0x8001b5 <_ZN7ns_menu10curPosPassE>
    327e:	b5 df       	rcall	.-150    	; 0x31ea <_ZN7ns_menu15Menu_SelectViewEh>
    3280:	8f b7       	in	r24, 0x3f	; 63
    3282:	f8 94       	cli
    3284:	40 e9       	ldi	r20, 0x90	; 144
    3286:	5f e5       	ldi	r21, 0x5F	; 95
    3288:	61 e0       	ldi	r22, 0x01	; 1
    328a:	70 e0       	ldi	r23, 0x00	; 0
    328c:	40 93 b7 01 	sts	0x01B7, r20	; 0x8001b7 <_ZN7ns_menu7timeOutE>
    3290:	50 93 b8 01 	sts	0x01B8, r21	; 0x8001b8 <_ZN7ns_menu7timeOutE+0x1>
    3294:	60 93 b9 01 	sts	0x01B9, r22	; 0x8001b9 <_ZN7ns_menu7timeOutE+0x2>
    3298:	70 93 ba 01 	sts	0x01BA, r23	; 0x8001ba <_ZN7ns_menu7timeOutE+0x3>
    329c:	8f bf       	out	0x3f, r24	; 63
    329e:	08 95       	ret

000032a0 <_ZN7ns_menu15Menu_SelectPlusEh>:
    32a0:	e0 91 d6 01 	lds	r30, 0x01D6	; 0x8001d6 <key4>
    32a4:	f0 91 d7 01 	lds	r31, 0x01D7	; 0x8001d7 <key4+0x1>
    32a8:	10 82       	st	Z, r1
    32aa:	90 91 b5 01 	lds	r25, 0x01B5	; 0x8001b5 <_ZN7ns_menu10curPosPassE>
    32ae:	9b 30       	cpi	r25, 0x0B	; 11
    32b0:	20 f4       	brcc	.+8      	; 0x32ba <_ZN7ns_menu15Menu_SelectPlusEh+0x1a>
    32b2:	9f 5f       	subi	r25, 0xFF	; 255
    32b4:	90 93 b5 01 	sts	0x01B5, r25	; 0x8001b5 <_ZN7ns_menu10curPosPassE>
    32b8:	98 df       	rcall	.-208    	; 0x31ea <_ZN7ns_menu15Menu_SelectViewEh>
    32ba:	8f b7       	in	r24, 0x3f	; 63
    32bc:	f8 94       	cli
    32be:	40 e9       	ldi	r20, 0x90	; 144
    32c0:	5f e5       	ldi	r21, 0x5F	; 95
    32c2:	61 e0       	ldi	r22, 0x01	; 1
    32c4:	70 e0       	ldi	r23, 0x00	; 0
    32c6:	40 93 b7 01 	sts	0x01B7, r20	; 0x8001b7 <_ZN7ns_menu7timeOutE>
    32ca:	50 93 b8 01 	sts	0x01B8, r21	; 0x8001b8 <_ZN7ns_menu7timeOutE+0x1>
    32ce:	60 93 b9 01 	sts	0x01B9, r22	; 0x8001b9 <_ZN7ns_menu7timeOutE+0x2>
    32d2:	70 93 ba 01 	sts	0x01BA, r23	; 0x8001ba <_ZN7ns_menu7timeOutE+0x3>
    32d6:	8f bf       	out	0x3f, r24	; 63
    32d8:	08 95       	ret

000032da <_ZN7ns_menu15Edit_SensorViewEh>:
    32da:	20 91 ac 01 	lds	r18, 0x01AC	; 0x8001ac <_ZN7ns_menu11tmpDistanceE>
    32de:	30 91 ad 01 	lds	r19, 0x01AD	; 0x8001ad <_ZN7ns_menu11tmpDistanceE+0x1>
    32e2:	40 e0       	ldi	r20, 0x00	; 0
    32e4:	50 e0       	ldi	r21, 0x00	; 0
    32e6:	65 e0       	ldi	r22, 0x05	; 5
    32e8:	80 91 b6 01 	lds	r24, 0x01B6	; 0x8001b6 <_ZN7ns_menu7varPos1E>
    32ec:	0c 94 11 29 	jmp	0x5222	; 0x5222 <_ZN6ns_lcd6DigitZEhhl>
    32f0:	08 95       	ret

000032f2 <_ZN7ns_menu11Edit_SensorEh>:
    32f2:	1f 93       	push	r17
    32f4:	cf 93       	push	r28
    32f6:	df 93       	push	r29
    32f8:	1f 92       	push	r1
    32fa:	cd b7       	in	r28, 0x3d	; 61
    32fc:	de b7       	in	r29, 0x3e	; 62
    32fe:	18 2f       	mov	r17, r24
    3300:	8f b7       	in	r24, 0x3f	; 63
    3302:	f8 94       	cli
    3304:	10 92 b7 01 	sts	0x01B7, r1	; 0x8001b7 <_ZN7ns_menu7timeOutE>
    3308:	10 92 b8 01 	sts	0x01B8, r1	; 0x8001b8 <_ZN7ns_menu7timeOutE+0x1>
    330c:	10 92 b9 01 	sts	0x01B9, r1	; 0x8001b9 <_ZN7ns_menu7timeOutE+0x2>
    3310:	10 92 ba 01 	sts	0x01BA, r1	; 0x8001ba <_ZN7ns_menu7timeOutE+0x3>
    3314:	8f bf       	out	0x3f, r24	; 63
    3316:	e0 91 d6 01 	lds	r30, 0x01D6	; 0x8001d6 <key4>
    331a:	f0 91 d7 01 	lds	r31, 0x01D7	; 0x8001d7 <key4+0x1>
    331e:	10 82       	st	Z, r1
    3320:	20 91 ae 01 	lds	r18, 0x01AE	; 0x8001ae <_ZN7ns_menu10curSensIdxE>
    3324:	30 e0       	ldi	r19, 0x00	; 0
    3326:	c9 01       	movw	r24, r18
    3328:	88 0f       	add	r24, r24
    332a:	99 1f       	adc	r25, r25
    332c:	8e 50       	subi	r24, 0x0E	; 14
    332e:	93 4f       	sbci	r25, 0xF3	; 243
    3330:	0e 94 95 2f 	call	0x5f2a	; 0x5f2a <eeprom_read_word>
    3334:	90 93 ad 01 	sts	0x01AD, r25	; 0x8001ad <_ZN7ns_menu11tmpDistanceE+0x1>
    3338:	80 93 ac 01 	sts	0x01AC, r24	; 0x8001ac <_ZN7ns_menu11tmpDistanceE>
    333c:	0e 94 63 26 	call	0x4cc6	; 0x4cc6 <_ZN6ns_lcd5ClearEv>
    3340:	60 e0       	ldi	r22, 0x00	; 0
    3342:	82 e0       	ldi	r24, 0x02	; 2
    3344:	0e 94 8f 27 	call	0x4f1e	; 0x4f1e <_ZN6ns_lcd11SetPositionEhh>
    3348:	60 eb       	ldi	r22, 0xB0	; 176
    334a:	71 e0       	ldi	r23, 0x01	; 1
    334c:	0e 94 99 28 	call	0x5132	; 0x5132 <_ZN6ns_lcd8String_PEhPKc>
    3350:	61 e0       	ldi	r22, 0x01	; 1
    3352:	81 e0       	ldi	r24, 0x01	; 1
    3354:	0e 94 8f 27 	call	0x4f1e	; 0x4f1e <_ZN6ns_lcd11SetPositionEhh>
    3358:	89 83       	std	Y+1, r24	; 0x01
    335a:	67 ea       	ldi	r22, 0xA7	; 167
    335c:	71 e0       	ldi	r23, 0x01	; 1
    335e:	ce 01       	movw	r24, r28
    3360:	01 96       	adiw	r24, 0x01	; 1
    3362:	0e 94 64 28 	call	0x50c8	; 0x50c8 <_ZN6ns_lcd8String_PEPhPKc>
    3366:	20 91 af 01 	lds	r18, 0x01AF	; 0x8001af <_ZN7ns_menu9curSensorE>
    336a:	30 e0       	ldi	r19, 0x00	; 0
    336c:	40 e0       	ldi	r20, 0x00	; 0
    336e:	50 e0       	ldi	r21, 0x00	; 0
    3370:	61 e0       	ldi	r22, 0x01	; 1
    3372:	ce 01       	movw	r24, r28
    3374:	01 96       	adiw	r24, 0x01	; 1
    3376:	0e 94 a6 28 	call	0x514c	; 0x514c <_ZN6ns_lcd6DigitZEPhhl>
    337a:	6d e3       	ldi	r22, 0x3D	; 61
    337c:	ce 01       	movw	r24, r28
    337e:	01 96       	adiw	r24, 0x01	; 1
    3380:	0e 94 f6 27 	call	0x4fec	; 0x4fec <_ZN6ns_lcd7PutCharEPhc>
    3384:	89 81       	ldd	r24, Y+1	; 0x01
    3386:	80 93 b6 01 	sts	0x01B6, r24	; 0x8001b6 <_ZN7ns_menu7varPos1E>
    338a:	81 2f       	mov	r24, r17
    338c:	a6 df       	rcall	.-180    	; 0x32da <_ZN7ns_menu15Edit_SensorViewEh>
    338e:	8f b7       	in	r24, 0x3f	; 63
    3390:	f8 94       	cli
    3392:	40 e9       	ldi	r20, 0x90	; 144
    3394:	5f e5       	ldi	r21, 0x5F	; 95
    3396:	61 e0       	ldi	r22, 0x01	; 1
    3398:	70 e0       	ldi	r23, 0x00	; 0
    339a:	40 93 b7 01 	sts	0x01B7, r20	; 0x8001b7 <_ZN7ns_menu7timeOutE>
    339e:	50 93 b8 01 	sts	0x01B8, r21	; 0x8001b8 <_ZN7ns_menu7timeOutE+0x1>
    33a2:	60 93 b9 01 	sts	0x01B9, r22	; 0x8001b9 <_ZN7ns_menu7timeOutE+0x2>
    33a6:	70 93 ba 01 	sts	0x01BA, r23	; 0x8001ba <_ZN7ns_menu7timeOutE+0x3>
    33aa:	8f bf       	out	0x3f, r24	; 63
    33ac:	0f 90       	pop	r0
    33ae:	df 91       	pop	r29
    33b0:	cf 91       	pop	r28
    33b2:	1f 91       	pop	r17
    33b4:	08 95       	ret

000033b6 <_ZN7ns_menu16Edit_SensorMinusEh>:
    33b6:	e0 91 d6 01 	lds	r30, 0x01D6	; 0x8001d6 <key4>
    33ba:	f0 91 d7 01 	lds	r31, 0x01D7	; 0x8001d7 <key4+0x1>
    33be:	91 e0       	ldi	r25, 0x01	; 1
    33c0:	90 83       	st	Z, r25
    33c2:	20 91 ac 01 	lds	r18, 0x01AC	; 0x8001ac <_ZN7ns_menu11tmpDistanceE>
    33c6:	30 91 ad 01 	lds	r19, 0x01AD	; 0x8001ad <_ZN7ns_menu11tmpDistanceE+0x1>
    33ca:	21 15       	cp	r18, r1
    33cc:	31 05       	cpc	r19, r1
    33ce:	39 f0       	breq	.+14     	; 0x33de <_ZN7ns_menu16Edit_SensorMinusEh+0x28>
    33d0:	21 50       	subi	r18, 0x01	; 1
    33d2:	31 09       	sbc	r19, r1
    33d4:	30 93 ad 01 	sts	0x01AD, r19	; 0x8001ad <_ZN7ns_menu11tmpDistanceE+0x1>
    33d8:	20 93 ac 01 	sts	0x01AC, r18	; 0x8001ac <_ZN7ns_menu11tmpDistanceE>
    33dc:	7e df       	rcall	.-260    	; 0x32da <_ZN7ns_menu15Edit_SensorViewEh>
    33de:	8f b7       	in	r24, 0x3f	; 63
    33e0:	f8 94       	cli
    33e2:	40 e9       	ldi	r20, 0x90	; 144
    33e4:	5f e5       	ldi	r21, 0x5F	; 95
    33e6:	61 e0       	ldi	r22, 0x01	; 1
    33e8:	70 e0       	ldi	r23, 0x00	; 0
    33ea:	40 93 b7 01 	sts	0x01B7, r20	; 0x8001b7 <_ZN7ns_menu7timeOutE>
    33ee:	50 93 b8 01 	sts	0x01B8, r21	; 0x8001b8 <_ZN7ns_menu7timeOutE+0x1>
    33f2:	60 93 b9 01 	sts	0x01B9, r22	; 0x8001b9 <_ZN7ns_menu7timeOutE+0x2>
    33f6:	70 93 ba 01 	sts	0x01BA, r23	; 0x8001ba <_ZN7ns_menu7timeOutE+0x3>
    33fa:	8f bf       	out	0x3f, r24	; 63
    33fc:	08 95       	ret

000033fe <_ZN7ns_menu15Edit_SensorPlusEh>:
    33fe:	e0 91 d6 01 	lds	r30, 0x01D6	; 0x8001d6 <key4>
    3402:	f0 91 d7 01 	lds	r31, 0x01D7	; 0x8001d7 <key4+0x1>
    3406:	91 e0       	ldi	r25, 0x01	; 1
    3408:	90 83       	st	Z, r25
    340a:	20 91 ac 01 	lds	r18, 0x01AC	; 0x8001ac <_ZN7ns_menu11tmpDistanceE>
    340e:	30 91 ad 01 	lds	r19, 0x01AD	; 0x8001ad <_ZN7ns_menu11tmpDistanceE+0x1>
    3412:	28 39       	cpi	r18, 0x98	; 152
    3414:	9a e3       	ldi	r25, 0x3A	; 58
    3416:	39 07       	cpc	r19, r25
    3418:	38 f4       	brcc	.+14     	; 0x3428 <_ZN7ns_menu15Edit_SensorPlusEh+0x2a>
    341a:	2f 5f       	subi	r18, 0xFF	; 255
    341c:	3f 4f       	sbci	r19, 0xFF	; 255
    341e:	30 93 ad 01 	sts	0x01AD, r19	; 0x8001ad <_ZN7ns_menu11tmpDistanceE+0x1>
    3422:	20 93 ac 01 	sts	0x01AC, r18	; 0x8001ac <_ZN7ns_menu11tmpDistanceE>
    3426:	59 df       	rcall	.-334    	; 0x32da <_ZN7ns_menu15Edit_SensorViewEh>
    3428:	8f b7       	in	r24, 0x3f	; 63
    342a:	f8 94       	cli
    342c:	40 e9       	ldi	r20, 0x90	; 144
    342e:	5f e5       	ldi	r21, 0x5F	; 95
    3430:	61 e0       	ldi	r22, 0x01	; 1
    3432:	70 e0       	ldi	r23, 0x00	; 0
    3434:	40 93 b7 01 	sts	0x01B7, r20	; 0x8001b7 <_ZN7ns_menu7timeOutE>
    3438:	50 93 b8 01 	sts	0x01B8, r21	; 0x8001b8 <_ZN7ns_menu7timeOutE+0x1>
    343c:	60 93 b9 01 	sts	0x01B9, r22	; 0x8001b9 <_ZN7ns_menu7timeOutE+0x2>
    3440:	70 93 ba 01 	sts	0x01BA, r23	; 0x8001ba <_ZN7ns_menu7timeOutE+0x3>
    3444:	8f bf       	out	0x3f, r24	; 63
    3446:	08 95       	ret

00003448 <_ZN7ns_menu12Set_PassViewEh>:
    3448:	ef 92       	push	r14
    344a:	ff 92       	push	r15
    344c:	1f 93       	push	r17
    344e:	cf 93       	push	r28
    3450:	df 93       	push	r29
    3452:	1f 92       	push	r1
    3454:	cd b7       	in	r28, 0x3d	; 61
    3456:	de b7       	in	r29, 0x3e	; 62
    3458:	0f 2e       	mov	r0, r31
    345a:	f0 eb       	ldi	r31, 0xB0	; 176
    345c:	ef 2e       	mov	r14, r31
    345e:	f1 e0       	ldi	r31, 0x01	; 1
    3460:	ff 2e       	mov	r15, r31
    3462:	f0 2d       	mov	r31, r0
    3464:	10 e0       	ldi	r17, 0x00	; 0
    3466:	61 e0       	ldi	r22, 0x01	; 1
    3468:	81 2f       	mov	r24, r17
    346a:	0e 94 8f 27 	call	0x4f1e	; 0x4f1e <_ZN6ns_lcd11SetPositionEhh>
    346e:	89 83       	std	Y+1, r24	; 0x01
    3470:	80 91 b5 01 	lds	r24, 0x01B5	; 0x8001b5 <_ZN7ns_menu10curPosPassE>
    3474:	18 17       	cp	r17, r24
    3476:	40 f4       	brcc	.+16     	; 0x3488 <_ZN7ns_menu12Set_PassViewEh+0x40>
    3478:	10 92 dc 01 	sts	0x01DC, r1	; 0x8001dc <_ZN6ns_lcd7flickerE>
    347c:	6a e2       	ldi	r22, 0x2A	; 42
    347e:	ce 01       	movw	r24, r28
    3480:	01 96       	adiw	r24, 0x01	; 1
    3482:	0e 94 f6 27 	call	0x4fec	; 0x4fec <_ZN6ns_lcd7PutCharEPhc>
    3486:	13 c0       	rjmp	.+38     	; 0x34ae <_ZN7ns_menu12Set_PassViewEh+0x66>
    3488:	18 13       	cpse	r17, r24
    348a:	0a c0       	rjmp	.+20     	; 0x34a0 <_ZN7ns_menu12Set_PassViewEh+0x58>
    348c:	f7 01       	movw	r30, r14
    348e:	60 81       	ld	r22, Z
    3490:	60 5d       	subi	r22, 0xD0	; 208
    3492:	ce 01       	movw	r24, r28
    3494:	01 96       	adiw	r24, 0x01	; 1
    3496:	0e 94 f6 27 	call	0x4fec	; 0x4fec <_ZN6ns_lcd7PutCharEPhc>
    349a:	10 92 dc 01 	sts	0x01DC, r1	; 0x8001dc <_ZN6ns_lcd7flickerE>
    349e:	07 c0       	rjmp	.+14     	; 0x34ae <_ZN7ns_menu12Set_PassViewEh+0x66>
    34a0:	10 92 dc 01 	sts	0x01DC, r1	; 0x8001dc <_ZN6ns_lcd7flickerE>
    34a4:	6d e2       	ldi	r22, 0x2D	; 45
    34a6:	ce 01       	movw	r24, r28
    34a8:	01 96       	adiw	r24, 0x01	; 1
    34aa:	0e 94 f6 27 	call	0x4fec	; 0x4fec <_ZN6ns_lcd7PutCharEPhc>
    34ae:	1f 5f       	subi	r17, 0xFF	; 255
    34b0:	ff ef       	ldi	r31, 0xFF	; 255
    34b2:	ef 1a       	sub	r14, r31
    34b4:	ff 0a       	sbc	r15, r31
    34b6:	15 30       	cpi	r17, 0x05	; 5
    34b8:	b1 f6       	brne	.-84     	; 0x3466 <_ZN7ns_menu12Set_PassViewEh+0x1e>
    34ba:	0f 90       	pop	r0
    34bc:	df 91       	pop	r29
    34be:	cf 91       	pop	r28
    34c0:	1f 91       	pop	r17
    34c2:	ff 90       	pop	r15
    34c4:	ef 90       	pop	r14
    34c6:	08 95       	ret

000034c8 <_ZN7ns_menu8Set_PassEh>:
    34c8:	cf 93       	push	r28
    34ca:	c8 2f       	mov	r28, r24
    34cc:	8f b7       	in	r24, 0x3f	; 63
    34ce:	f8 94       	cli
    34d0:	10 92 b7 01 	sts	0x01B7, r1	; 0x8001b7 <_ZN7ns_menu7timeOutE>
    34d4:	10 92 b8 01 	sts	0x01B8, r1	; 0x8001b8 <_ZN7ns_menu7timeOutE+0x1>
    34d8:	10 92 b9 01 	sts	0x01B9, r1	; 0x8001b9 <_ZN7ns_menu7timeOutE+0x2>
    34dc:	10 92 ba 01 	sts	0x01BA, r1	; 0x8001ba <_ZN7ns_menu7timeOutE+0x3>
    34e0:	8f bf       	out	0x3f, r24	; 63
    34e2:	0e 94 63 26 	call	0x4cc6	; 0x4cc6 <_ZN6ns_lcd5ClearEv>
    34e6:	60 e0       	ldi	r22, 0x00	; 0
    34e8:	80 e0       	ldi	r24, 0x00	; 0
    34ea:	0e 94 8f 27 	call	0x4f1e	; 0x4f1e <_ZN6ns_lcd11SetPositionEhh>
    34ee:	6a e8       	ldi	r22, 0x8A	; 138
    34f0:	71 e0       	ldi	r23, 0x01	; 1
    34f2:	0e 94 99 28 	call	0x5132	; 0x5132 <_ZN6ns_lcd8String_PEhPKc>
    34f6:	e0 eb       	ldi	r30, 0xB0	; 176
    34f8:	f1 e0       	ldi	r31, 0x01	; 1
    34fa:	10 82       	st	Z, r1
    34fc:	11 82       	std	Z+1, r1	; 0x01
    34fe:	12 82       	std	Z+2, r1	; 0x02
    3500:	13 82       	std	Z+3, r1	; 0x03
    3502:	14 82       	std	Z+4, r1	; 0x04
    3504:	10 92 b5 01 	sts	0x01B5, r1	; 0x8001b5 <_ZN7ns_menu10curPosPassE>
    3508:	8c 2f       	mov	r24, r28
    350a:	9e df       	rcall	.-196    	; 0x3448 <_ZN7ns_menu12Set_PassViewEh>
    350c:	e0 91 d6 01 	lds	r30, 0x01D6	; 0x8001d6 <key4>
    3510:	f0 91 d7 01 	lds	r31, 0x01D7	; 0x8001d7 <key4+0x1>
    3514:	10 82       	st	Z, r1
    3516:	8f b7       	in	r24, 0x3f	; 63
    3518:	f8 94       	cli
    351a:	40 e9       	ldi	r20, 0x90	; 144
    351c:	5f e5       	ldi	r21, 0x5F	; 95
    351e:	61 e0       	ldi	r22, 0x01	; 1
    3520:	70 e0       	ldi	r23, 0x00	; 0
    3522:	40 93 b7 01 	sts	0x01B7, r20	; 0x8001b7 <_ZN7ns_menu7timeOutE>
    3526:	50 93 b8 01 	sts	0x01B8, r21	; 0x8001b8 <_ZN7ns_menu7timeOutE+0x1>
    352a:	60 93 b9 01 	sts	0x01B9, r22	; 0x8001b9 <_ZN7ns_menu7timeOutE+0x2>
    352e:	70 93 ba 01 	sts	0x01BA, r23	; 0x8001ba <_ZN7ns_menu7timeOutE+0x3>
    3532:	8f bf       	out	0x3f, r24	; 63
    3534:	cf 91       	pop	r28
    3536:	08 95       	ret

00003538 <_ZN7ns_menu13Set_PassMinusEh>:
    3538:	e0 91 d6 01 	lds	r30, 0x01D6	; 0x8001d6 <key4>
    353c:	f0 91 d7 01 	lds	r31, 0x01D7	; 0x8001d7 <key4+0x1>
    3540:	91 e0       	ldi	r25, 0x01	; 1
    3542:	90 83       	st	Z, r25
    3544:	20 91 b5 01 	lds	r18, 0x01B5	; 0x8001b5 <_ZN7ns_menu10curPosPassE>
    3548:	30 e0       	ldi	r19, 0x00	; 0
    354a:	f9 01       	movw	r30, r18
    354c:	e0 55       	subi	r30, 0x50	; 80
    354e:	fe 4f       	sbci	r31, 0xFE	; 254
    3550:	90 81       	ld	r25, Z
    3552:	99 23       	and	r25, r25
    3554:	31 f0       	breq	.+12     	; 0x3562 <_ZN7ns_menu13Set_PassMinusEh+0x2a>
    3556:	f9 01       	movw	r30, r18
    3558:	e0 55       	subi	r30, 0x50	; 80
    355a:	fe 4f       	sbci	r31, 0xFE	; 254
    355c:	91 50       	subi	r25, 0x01	; 1
    355e:	90 83       	st	Z, r25
    3560:	73 df       	rcall	.-282    	; 0x3448 <_ZN7ns_menu12Set_PassViewEh>
    3562:	8f b7       	in	r24, 0x3f	; 63
    3564:	f8 94       	cli
    3566:	40 e9       	ldi	r20, 0x90	; 144
    3568:	5f e5       	ldi	r21, 0x5F	; 95
    356a:	61 e0       	ldi	r22, 0x01	; 1
    356c:	70 e0       	ldi	r23, 0x00	; 0
    356e:	40 93 b7 01 	sts	0x01B7, r20	; 0x8001b7 <_ZN7ns_menu7timeOutE>
    3572:	50 93 b8 01 	sts	0x01B8, r21	; 0x8001b8 <_ZN7ns_menu7timeOutE+0x1>
    3576:	60 93 b9 01 	sts	0x01B9, r22	; 0x8001b9 <_ZN7ns_menu7timeOutE+0x2>
    357a:	70 93 ba 01 	sts	0x01BA, r23	; 0x8001ba <_ZN7ns_menu7timeOutE+0x3>
    357e:	8f bf       	out	0x3f, r24	; 63
    3580:	08 95       	ret

00003582 <_ZN7ns_menu12Set_PassPlusEh>:
    3582:	e0 91 d6 01 	lds	r30, 0x01D6	; 0x8001d6 <key4>
    3586:	f0 91 d7 01 	lds	r31, 0x01D7	; 0x8001d7 <key4+0x1>
    358a:	91 e0       	ldi	r25, 0x01	; 1
    358c:	90 83       	st	Z, r25
    358e:	20 91 b5 01 	lds	r18, 0x01B5	; 0x8001b5 <_ZN7ns_menu10curPosPassE>
    3592:	30 e0       	ldi	r19, 0x00	; 0
    3594:	f9 01       	movw	r30, r18
    3596:	e0 55       	subi	r30, 0x50	; 80
    3598:	fe 4f       	sbci	r31, 0xFE	; 254
    359a:	90 81       	ld	r25, Z
    359c:	99 30       	cpi	r25, 0x09	; 9
    359e:	30 f4       	brcc	.+12     	; 0x35ac <_ZN7ns_menu12Set_PassPlusEh+0x2a>
    35a0:	f9 01       	movw	r30, r18
    35a2:	e0 55       	subi	r30, 0x50	; 80
    35a4:	fe 4f       	sbci	r31, 0xFE	; 254
    35a6:	9f 5f       	subi	r25, 0xFF	; 255
    35a8:	90 83       	st	Z, r25
    35aa:	4e df       	rcall	.-356    	; 0x3448 <_ZN7ns_menu12Set_PassViewEh>
    35ac:	8f b7       	in	r24, 0x3f	; 63
    35ae:	f8 94       	cli
    35b0:	40 e9       	ldi	r20, 0x90	; 144
    35b2:	5f e5       	ldi	r21, 0x5F	; 95
    35b4:	61 e0       	ldi	r22, 0x01	; 1
    35b6:	70 e0       	ldi	r23, 0x00	; 0
    35b8:	40 93 b7 01 	sts	0x01B7, r20	; 0x8001b7 <_ZN7ns_menu7timeOutE>
    35bc:	50 93 b8 01 	sts	0x01B8, r21	; 0x8001b8 <_ZN7ns_menu7timeOutE+0x1>
    35c0:	60 93 b9 01 	sts	0x01B9, r22	; 0x8001b9 <_ZN7ns_menu7timeOutE+0x2>
    35c4:	70 93 ba 01 	sts	0x01BA, r23	; 0x8001ba <_ZN7ns_menu7timeOutE+0x3>
    35c8:	8f bf       	out	0x3f, r24	; 63
    35ca:	08 95       	ret

000035cc <_ZN7ns_menu10Set_PassVVEh>:
    35cc:	ef 92       	push	r14
    35ce:	ff 92       	push	r15
    35d0:	0f 93       	push	r16
    35d2:	1f 93       	push	r17
    35d4:	cf 93       	push	r28
    35d6:	df 93       	push	r29
    35d8:	e0 91 d6 01 	lds	r30, 0x01D6	; 0x8001d6 <key4>
    35dc:	f0 91 d7 01 	lds	r31, 0x01D7	; 0x8001d7 <key4+0x1>
    35e0:	10 82       	st	Z, r1
    35e2:	e0 91 b5 01 	lds	r30, 0x01B5	; 0x8001b5 <_ZN7ns_menu10curPosPassE>
    35e6:	e4 30       	cpi	r30, 0x04	; 4
    35e8:	c0 f4       	brcc	.+48     	; 0x361a <_ZN7ns_menu10Set_PassVVEh+0x4e>
    35ea:	ef 5f       	subi	r30, 0xFF	; 255
    35ec:	e0 93 b5 01 	sts	0x01B5, r30	; 0x8001b5 <_ZN7ns_menu10curPosPassE>
    35f0:	f0 e0       	ldi	r31, 0x00	; 0
    35f2:	e0 55       	subi	r30, 0x50	; 80
    35f4:	fe 4f       	sbci	r31, 0xFE	; 254
    35f6:	10 82       	st	Z, r1
    35f8:	27 df       	rcall	.-434    	; 0x3448 <_ZN7ns_menu12Set_PassViewEh>
    35fa:	8f b7       	in	r24, 0x3f	; 63
    35fc:	f8 94       	cli
    35fe:	40 e9       	ldi	r20, 0x90	; 144
    3600:	5f e5       	ldi	r21, 0x5F	; 95
    3602:	61 e0       	ldi	r22, 0x01	; 1
    3604:	70 e0       	ldi	r23, 0x00	; 0
    3606:	40 93 b7 01 	sts	0x01B7, r20	; 0x8001b7 <_ZN7ns_menu7timeOutE>
    360a:	50 93 b8 01 	sts	0x01B8, r21	; 0x8001b8 <_ZN7ns_menu7timeOutE+0x1>
    360e:	60 93 b9 01 	sts	0x01B9, r22	; 0x8001b9 <_ZN7ns_menu7timeOutE+0x2>
    3612:	70 93 ba 01 	sts	0x01BA, r23	; 0x8001ba <_ZN7ns_menu7timeOutE+0x3>
    3616:	8f bf       	out	0x3f, r24	; 63
    3618:	35 c0       	rjmp	.+106    	; 0x3684 <_ZN7ns_menu10Set_PassVVEh+0xb8>
    361a:	00 eb       	ldi	r16, 0xB0	; 176
    361c:	11 e0       	ldi	r17, 0x01	; 1
    361e:	c8 ee       	ldi	r28, 0xE8	; 232
    3620:	dc e0       	ldi	r29, 0x0C	; 12
    3622:	0f 2e       	mov	r0, r31
    3624:	f5 eb       	ldi	r31, 0xB5	; 181
    3626:	ef 2e       	mov	r14, r31
    3628:	f1 e0       	ldi	r31, 0x01	; 1
    362a:	ff 2e       	mov	r15, r31
    362c:	f0 2d       	mov	r31, r0
    362e:	f8 01       	movw	r30, r16
    3630:	61 91       	ld	r22, Z+
    3632:	8f 01       	movw	r16, r30
    3634:	ce 01       	movw	r24, r28
    3636:	0e 94 b8 2f 	call	0x5f70	; 0x5f70 <eeprom_write_byte>
    363a:	21 96       	adiw	r28, 0x01	; 1
    363c:	0e 15       	cp	r16, r14
    363e:	1f 05       	cpc	r17, r15
    3640:	b1 f7       	brne	.-20     	; 0x362e <_ZN7ns_menu10Set_PassVVEh+0x62>
    3642:	0e 94 63 26 	call	0x4cc6	; 0x4cc6 <_ZN6ns_lcd5ClearEv>
    3646:	61 e0       	ldi	r22, 0x01	; 1
    3648:	80 e0       	ldi	r24, 0x00	; 0
    364a:	0e 94 8f 27 	call	0x4f1e	; 0x4f1e <_ZN6ns_lcd11SetPositionEhh>
    364e:	80 93 e0 01 	sts	0x01E0, r24	; 0x8001e0 <_ZN6ns_lcd3posE>
    3652:	61 e0       	ldi	r22, 0x01	; 1
    3654:	80 e0       	ldi	r24, 0x00	; 0
    3656:	0e 94 8f 27 	call	0x4f1e	; 0x4f1e <_ZN6ns_lcd11SetPositionEhh>
    365a:	6f e7       	ldi	r22, 0x7F	; 127
    365c:	71 e0       	ldi	r23, 0x01	; 1
    365e:	0e 94 99 28 	call	0x5132	; 0x5132 <_ZN6ns_lcd8String_PEhPKc>
    3662:	8f b7       	in	r24, 0x3f	; 63
    3664:	f8 94       	cli
    3666:	48 e8       	ldi	r20, 0x88	; 136
    3668:	53 e1       	ldi	r21, 0x13	; 19
    366a:	60 e0       	ldi	r22, 0x00	; 0
    366c:	70 e0       	ldi	r23, 0x00	; 0
    366e:	40 93 b7 01 	sts	0x01B7, r20	; 0x8001b7 <_ZN7ns_menu7timeOutE>
    3672:	50 93 b8 01 	sts	0x01B8, r21	; 0x8001b8 <_ZN7ns_menu7timeOutE+0x1>
    3676:	60 93 b9 01 	sts	0x01B9, r22	; 0x8001b9 <_ZN7ns_menu7timeOutE+0x2>
    367a:	70 93 ba 01 	sts	0x01BA, r23	; 0x8001ba <_ZN7ns_menu7timeOutE+0x3>
    367e:	8f bf       	out	0x3f, r24	; 63
    3680:	84 e0       	ldi	r24, 0x04	; 4
    3682:	0d d9       	rcall	.-3558   	; 0x289e <_ZN7ns_menu7SetModeEh>
    3684:	df 91       	pop	r29
    3686:	cf 91       	pop	r28
    3688:	1f 91       	pop	r17
    368a:	0f 91       	pop	r16
    368c:	ff 90       	pop	r15
    368e:	ef 90       	pop	r14
    3690:	08 95       	ret

00003692 <_ZN7ns_menu12Set_TimeViewEv>:
    3692:	cf 92       	push	r12
    3694:	df 92       	push	r13
    3696:	ef 92       	push	r14
    3698:	ff 92       	push	r15
    369a:	80 91 a4 01 	lds	r24, 0x01A4	; 0x8001a4 <_ZN7ns_menu13setTime_timeNE>
    369e:	82 30       	cpi	r24, 0x02	; 2
    36a0:	19 f4       	brne	.+6      	; 0x36a8 <_ZN7ns_menu12Set_TimeViewEv+0x16>
    36a2:	81 e0       	ldi	r24, 0x01	; 1
    36a4:	80 93 dc 01 	sts	0x01DC, r24	; 0x8001dc <_ZN6ns_lcd7flickerE>
    36a8:	c0 90 a7 01 	lds	r12, 0x01A7	; 0x8001a7 <_ZN7ns_menu12setTime_timeE+0x2>
    36ac:	d1 2c       	mov	r13, r1
    36ae:	e1 2c       	mov	r14, r1
    36b0:	f1 2c       	mov	r15, r1
    36b2:	61 e0       	ldi	r22, 0x01	; 1
    36b4:	8b e0       	ldi	r24, 0x0B	; 11
    36b6:	0e 94 8f 27 	call	0x4f1e	; 0x4f1e <_ZN6ns_lcd11SetPositionEhh>
    36ba:	a7 01       	movw	r20, r14
    36bc:	96 01       	movw	r18, r12
    36be:	62 e0       	ldi	r22, 0x02	; 2
    36c0:	0e 94 11 29 	call	0x5222	; 0x5222 <_ZN6ns_lcd6DigitZEhhl>
    36c4:	10 92 dc 01 	sts	0x01DC, r1	; 0x8001dc <_ZN6ns_lcd7flickerE>
    36c8:	80 91 a4 01 	lds	r24, 0x01A4	; 0x8001a4 <_ZN7ns_menu13setTime_timeNE>
    36cc:	81 30       	cpi	r24, 0x01	; 1
    36ce:	11 f4       	brne	.+4      	; 0x36d4 <_ZN7ns_menu12Set_TimeViewEv+0x42>
    36d0:	80 93 dc 01 	sts	0x01DC, r24	; 0x8001dc <_ZN6ns_lcd7flickerE>
    36d4:	c0 90 a6 01 	lds	r12, 0x01A6	; 0x8001a6 <_ZN7ns_menu12setTime_timeE+0x1>
    36d8:	d1 2c       	mov	r13, r1
    36da:	e1 2c       	mov	r14, r1
    36dc:	f1 2c       	mov	r15, r1
    36de:	61 e0       	ldi	r22, 0x01	; 1
    36e0:	8e e0       	ldi	r24, 0x0E	; 14
    36e2:	0e 94 8f 27 	call	0x4f1e	; 0x4f1e <_ZN6ns_lcd11SetPositionEhh>
    36e6:	a7 01       	movw	r20, r14
    36e8:	96 01       	movw	r18, r12
    36ea:	62 e0       	ldi	r22, 0x02	; 2
    36ec:	0e 94 11 29 	call	0x5222	; 0x5222 <_ZN6ns_lcd6DigitZEhhl>
    36f0:	10 92 dc 01 	sts	0x01DC, r1	; 0x8001dc <_ZN6ns_lcd7flickerE>
    36f4:	80 91 a4 01 	lds	r24, 0x01A4	; 0x8001a4 <_ZN7ns_menu13setTime_timeNE>
    36f8:	84 30       	cpi	r24, 0x04	; 4
    36fa:	19 f4       	brne	.+6      	; 0x3702 <_ZN7ns_menu12Set_TimeViewEv+0x70>
    36fc:	81 e0       	ldi	r24, 0x01	; 1
    36fe:	80 93 dc 01 	sts	0x01DC, r24	; 0x8001dc <_ZN6ns_lcd7flickerE>
    3702:	a5 ea       	ldi	r26, 0xA5	; 165
    3704:	b1 e0       	ldi	r27, 0x01	; 1
    3706:	16 96       	adiw	r26, 0x06	; 6
    3708:	8c 91       	ld	r24, X
    370a:	16 97       	sbiw	r26, 0x06	; 6
    370c:	83 70       	andi	r24, 0x03	; 3
    370e:	15 96       	adiw	r26, 0x05	; 5
    3710:	ec 91       	ld	r30, X
    3712:	15 97       	sbiw	r26, 0x05	; 5
    3714:	f0 e0       	ldi	r31, 0x00	; 0
    3716:	9d e0       	ldi	r25, 0x0D	; 13
    3718:	89 9f       	mul	r24, r25
    371a:	e0 0d       	add	r30, r0
    371c:	f1 1d       	adc	r31, r1
    371e:	11 24       	eor	r1, r1
    3720:	ef 52       	subi	r30, 0x2F	; 47
    3722:	fc 4f       	sbci	r31, 0xFC	; 252
    3724:	e4 91       	lpm	r30, Z
    3726:	14 96       	adiw	r26, 0x04	; 4
    3728:	8c 91       	ld	r24, X
    372a:	81 11       	cpse	r24, r1
    372c:	03 c0       	rjmp	.+6      	; 0x3734 <_ZN7ns_menu12Set_TimeViewEv+0xa2>
    372e:	81 e0       	ldi	r24, 0x01	; 1
    3730:	80 93 a9 01 	sts	0x01A9, r24	; 0x8001a9 <_ZN7ns_menu12setTime_timeE+0x4>
    3734:	80 91 a9 01 	lds	r24, 0x01A9	; 0x8001a9 <_ZN7ns_menu12setTime_timeE+0x4>
    3738:	e8 17       	cp	r30, r24
    373a:	10 f4       	brcc	.+4      	; 0x3740 <_ZN7ns_menu12Set_TimeViewEv+0xae>
    373c:	e0 93 a9 01 	sts	0x01A9, r30	; 0x8001a9 <_ZN7ns_menu12setTime_timeE+0x4>
    3740:	c0 90 a9 01 	lds	r12, 0x01A9	; 0x8001a9 <_ZN7ns_menu12setTime_timeE+0x4>
    3744:	d1 2c       	mov	r13, r1
    3746:	e1 2c       	mov	r14, r1
    3748:	f1 2c       	mov	r15, r1
    374a:	61 e0       	ldi	r22, 0x01	; 1
    374c:	80 e0       	ldi	r24, 0x00	; 0
    374e:	0e 94 8f 27 	call	0x4f1e	; 0x4f1e <_ZN6ns_lcd11SetPositionEhh>
    3752:	a7 01       	movw	r20, r14
    3754:	96 01       	movw	r18, r12
    3756:	62 e0       	ldi	r22, 0x02	; 2
    3758:	0e 94 11 29 	call	0x5222	; 0x5222 <_ZN6ns_lcd6DigitZEhhl>
    375c:	10 92 dc 01 	sts	0x01DC, r1	; 0x8001dc <_ZN6ns_lcd7flickerE>
    3760:	80 91 a4 01 	lds	r24, 0x01A4	; 0x8001a4 <_ZN7ns_menu13setTime_timeNE>
    3764:	85 30       	cpi	r24, 0x05	; 5
    3766:	19 f4       	brne	.+6      	; 0x376e <_ZN7ns_menu12Set_TimeViewEv+0xdc>
    3768:	81 e0       	ldi	r24, 0x01	; 1
    376a:	80 93 dc 01 	sts	0x01DC, r24	; 0x8001dc <_ZN6ns_lcd7flickerE>
    376e:	c0 90 aa 01 	lds	r12, 0x01AA	; 0x8001aa <_ZN7ns_menu12setTime_timeE+0x5>
    3772:	d1 2c       	mov	r13, r1
    3774:	e1 2c       	mov	r14, r1
    3776:	f1 2c       	mov	r15, r1
    3778:	61 e0       	ldi	r22, 0x01	; 1
    377a:	83 e0       	ldi	r24, 0x03	; 3
    377c:	0e 94 8f 27 	call	0x4f1e	; 0x4f1e <_ZN6ns_lcd11SetPositionEhh>
    3780:	a7 01       	movw	r20, r14
    3782:	96 01       	movw	r18, r12
    3784:	62 e0       	ldi	r22, 0x02	; 2
    3786:	0e 94 11 29 	call	0x5222	; 0x5222 <_ZN6ns_lcd6DigitZEhhl>
    378a:	10 92 dc 01 	sts	0x01DC, r1	; 0x8001dc <_ZN6ns_lcd7flickerE>
    378e:	80 91 a4 01 	lds	r24, 0x01A4	; 0x8001a4 <_ZN7ns_menu13setTime_timeNE>
    3792:	86 30       	cpi	r24, 0x06	; 6
    3794:	19 f4       	brne	.+6      	; 0x379c <_ZN7ns_menu12Set_TimeViewEv+0x10a>
    3796:	81 e0       	ldi	r24, 0x01	; 1
    3798:	80 93 dc 01 	sts	0x01DC, r24	; 0x8001dc <_ZN6ns_lcd7flickerE>
    379c:	61 e0       	ldi	r22, 0x01	; 1
    379e:	86 e0       	ldi	r24, 0x06	; 6
    37a0:	0e 94 8f 27 	call	0x4f1e	; 0x4f1e <_ZN6ns_lcd11SetPositionEhh>
    37a4:	6c e7       	ldi	r22, 0x7C	; 124
    37a6:	71 e0       	ldi	r23, 0x01	; 1
    37a8:	0e 94 99 28 	call	0x5132	; 0x5132 <_ZN6ns_lcd8String_PEhPKc>
    37ac:	c0 90 ab 01 	lds	r12, 0x01AB	; 0x8001ab <_ZN7ns_menu12setTime_timeE+0x6>
    37b0:	d1 2c       	mov	r13, r1
    37b2:	e1 2c       	mov	r14, r1
    37b4:	f1 2c       	mov	r15, r1
    37b6:	61 e0       	ldi	r22, 0x01	; 1
    37b8:	88 e0       	ldi	r24, 0x08	; 8
    37ba:	0e 94 8f 27 	call	0x4f1e	; 0x4f1e <_ZN6ns_lcd11SetPositionEhh>
    37be:	a7 01       	movw	r20, r14
    37c0:	96 01       	movw	r18, r12
    37c2:	62 e0       	ldi	r22, 0x02	; 2
    37c4:	0e 94 11 29 	call	0x5222	; 0x5222 <_ZN6ns_lcd6DigitZEhhl>
    37c8:	10 92 dc 01 	sts	0x01DC, r1	; 0x8001dc <_ZN6ns_lcd7flickerE>
    37cc:	61 e0       	ldi	r22, 0x01	; 1
    37ce:	82 e0       	ldi	r24, 0x02	; 2
    37d0:	0e 94 8f 27 	call	0x4f1e	; 0x4f1e <_ZN6ns_lcd11SetPositionEhh>
    37d4:	6d e2       	ldi	r22, 0x2D	; 45
    37d6:	0e 94 16 28 	call	0x502c	; 0x502c <_ZN6ns_lcd7PutCharEhc>
    37da:	61 e0       	ldi	r22, 0x01	; 1
    37dc:	85 e0       	ldi	r24, 0x05	; 5
    37de:	0e 94 8f 27 	call	0x4f1e	; 0x4f1e <_ZN6ns_lcd11SetPositionEhh>
    37e2:	6d e2       	ldi	r22, 0x2D	; 45
    37e4:	0e 94 16 28 	call	0x502c	; 0x502c <_ZN6ns_lcd7PutCharEhc>
    37e8:	80 91 a4 01 	lds	r24, 0x01A4	; 0x8001a4 <_ZN7ns_menu13setTime_timeNE>
    37ec:	81 11       	cpse	r24, r1
    37ee:	03 c0       	rjmp	.+6      	; 0x37f6 <_ZN7ns_menu12Set_TimeViewEv+0x164>
    37f0:	81 e0       	ldi	r24, 0x01	; 1
    37f2:	80 93 dc 01 	sts	0x01DC, r24	; 0x8001dc <_ZN6ns_lcd7flickerE>
    37f6:	61 e0       	ldi	r22, 0x01	; 1
    37f8:	8d e0       	ldi	r24, 0x0D	; 13
    37fa:	0e 94 8f 27 	call	0x4f1e	; 0x4f1e <_ZN6ns_lcd11SetPositionEhh>
    37fe:	6a e3       	ldi	r22, 0x3A	; 58
    3800:	0e 94 16 28 	call	0x502c	; 0x502c <_ZN6ns_lcd7PutCharEhc>
    3804:	10 92 dc 01 	sts	0x01DC, r1	; 0x8001dc <_ZN6ns_lcd7flickerE>
    3808:	ff 90       	pop	r15
    380a:	ef 90       	pop	r14
    380c:	df 90       	pop	r13
    380e:	cf 90       	pop	r12
    3810:	08 95       	ret

00003812 <_ZN7ns_menu8Set_TimeEh>:
    3812:	8f b7       	in	r24, 0x3f	; 63
    3814:	f8 94       	cli
    3816:	10 92 b7 01 	sts	0x01B7, r1	; 0x8001b7 <_ZN7ns_menu7timeOutE>
    381a:	10 92 b8 01 	sts	0x01B8, r1	; 0x8001b8 <_ZN7ns_menu7timeOutE+0x1>
    381e:	10 92 b9 01 	sts	0x01B9, r1	; 0x8001b9 <_ZN7ns_menu7timeOutE+0x2>
    3822:	10 92 ba 01 	sts	0x01BA, r1	; 0x8001ba <_ZN7ns_menu7timeOutE+0x3>
    3826:	8f bf       	out	0x3f, r24	; 63
    3828:	e0 91 d6 01 	lds	r30, 0x01D6	; 0x8001d6 <key4>
    382c:	f0 91 d7 01 	lds	r31, 0x01D7	; 0x8001d7 <key4+0x1>
    3830:	10 82       	st	Z, r1
    3832:	0e 94 63 26 	call	0x4cc6	; 0x4cc6 <_ZN6ns_lcd5ClearEv>
    3836:	60 e0       	ldi	r22, 0x00	; 0
    3838:	80 e0       	ldi	r24, 0x00	; 0
    383a:	0e 94 8f 27 	call	0x4f1e	; 0x4f1e <_ZN6ns_lcd11SetPositionEhh>
    383e:	61 e7       	ldi	r22, 0x71	; 113
    3840:	71 e0       	ldi	r23, 0x01	; 1
    3842:	0e 94 99 28 	call	0x5132	; 0x5132 <_ZN6ns_lcd8String_PEhPKc>
    3846:	10 92 b5 01 	sts	0x01B5, r1	; 0x8001b5 <_ZN7ns_menu10curPosPassE>
    384a:	4f b7       	in	r20, 0x3f	; 63
    384c:	f8 94       	cli
    384e:	e6 ec       	ldi	r30, 0xC6	; 198
    3850:	f1 e0       	ldi	r31, 0x01	; 1
    3852:	a5 ea       	ldi	r26, 0xA5	; 165
    3854:	b1 e0       	ldi	r27, 0x01	; 1
    3856:	2d ec       	ldi	r18, 0xCD	; 205
    3858:	31 e0       	ldi	r19, 0x01	; 1
    385a:	81 91       	ld	r24, Z+
    385c:	8d 93       	st	X+, r24
    385e:	e2 17       	cp	r30, r18
    3860:	f3 07       	cpc	r31, r19
    3862:	d9 f7       	brne	.-10     	; 0x385a <_ZN7ns_menu8Set_TimeEh+0x48>
    3864:	86 e0       	ldi	r24, 0x06	; 6
    3866:	80 93 a4 01 	sts	0x01A4, r24	; 0x8001a4 <_ZN7ns_menu13setTime_timeNE>
    386a:	80 e9       	ldi	r24, 0x90	; 144
    386c:	9f e5       	ldi	r25, 0x5F	; 95
    386e:	a1 e0       	ldi	r26, 0x01	; 1
    3870:	b0 e0       	ldi	r27, 0x00	; 0
    3872:	80 93 b7 01 	sts	0x01B7, r24	; 0x8001b7 <_ZN7ns_menu7timeOutE>
    3876:	90 93 b8 01 	sts	0x01B8, r25	; 0x8001b8 <_ZN7ns_menu7timeOutE+0x1>
    387a:	a0 93 b9 01 	sts	0x01B9, r26	; 0x8001b9 <_ZN7ns_menu7timeOutE+0x2>
    387e:	b0 93 ba 01 	sts	0x01BA, r27	; 0x8001ba <_ZN7ns_menu7timeOutE+0x3>
    3882:	4f bf       	out	0x3f, r20	; 63
    3884:	06 cf       	rjmp	.-500    	; 0x3692 <_ZN7ns_menu12Set_TimeViewEv>
    3886:	08 95       	ret

00003888 <_ZN7ns_menu13Set_TimeMinusEh>:
    3888:	e0 91 d6 01 	lds	r30, 0x01D6	; 0x8001d6 <key4>
    388c:	f0 91 d7 01 	lds	r31, 0x01D7	; 0x8001d7 <key4+0x1>
    3890:	81 e0       	ldi	r24, 0x01	; 1
    3892:	80 83       	st	Z, r24
    3894:	80 91 a4 01 	lds	r24, 0x01A4	; 0x8001a4 <_ZN7ns_menu13setTime_timeNE>
    3898:	86 30       	cpi	r24, 0x06	; 6
    389a:	39 f0       	breq	.+14     	; 0x38aa <_ZN7ns_menu13Set_TimeMinusEh+0x22>
    389c:	82 30       	cpi	r24, 0x02	; 2
    389e:	39 f0       	breq	.+14     	; 0x38ae <_ZN7ns_menu13Set_TimeMinusEh+0x26>
    38a0:	31 e0       	ldi	r19, 0x01	; 1
    38a2:	81 30       	cpi	r24, 0x01	; 1
    38a4:	29 f4       	brne	.+10     	; 0x38b0 <_ZN7ns_menu13Set_TimeMinusEh+0x28>
    38a6:	30 e0       	ldi	r19, 0x00	; 0
    38a8:	03 c0       	rjmp	.+6      	; 0x38b0 <_ZN7ns_menu13Set_TimeMinusEh+0x28>
    38aa:	31 e1       	ldi	r19, 0x11	; 17
    38ac:	01 c0       	rjmp	.+2      	; 0x38b0 <_ZN7ns_menu13Set_TimeMinusEh+0x28>
    38ae:	30 e0       	ldi	r19, 0x00	; 0
    38b0:	90 e0       	ldi	r25, 0x00	; 0
    38b2:	fc 01       	movw	r30, r24
    38b4:	eb 55       	subi	r30, 0x5B	; 91
    38b6:	fe 4f       	sbci	r31, 0xFE	; 254
    38b8:	20 81       	ld	r18, Z
    38ba:	32 17       	cp	r19, r18
    38bc:	28 f4       	brcc	.+10     	; 0x38c8 <_ZN7ns_menu13Set_TimeMinusEh+0x40>
    38be:	fc 01       	movw	r30, r24
    38c0:	eb 55       	subi	r30, 0x5B	; 91
    38c2:	fe 4f       	sbci	r31, 0xFE	; 254
    38c4:	21 50       	subi	r18, 0x01	; 1
    38c6:	20 83       	st	Z, r18
    38c8:	e4 de       	rcall	.-568    	; 0x3692 <_ZN7ns_menu12Set_TimeViewEv>
    38ca:	8f b7       	in	r24, 0x3f	; 63
    38cc:	f8 94       	cli
    38ce:	40 e9       	ldi	r20, 0x90	; 144
    38d0:	5f e5       	ldi	r21, 0x5F	; 95
    38d2:	61 e0       	ldi	r22, 0x01	; 1
    38d4:	70 e0       	ldi	r23, 0x00	; 0
    38d6:	40 93 b7 01 	sts	0x01B7, r20	; 0x8001b7 <_ZN7ns_menu7timeOutE>
    38da:	50 93 b8 01 	sts	0x01B8, r21	; 0x8001b8 <_ZN7ns_menu7timeOutE+0x1>
    38de:	60 93 b9 01 	sts	0x01B9, r22	; 0x8001b9 <_ZN7ns_menu7timeOutE+0x2>
    38e2:	70 93 ba 01 	sts	0x01BA, r23	; 0x8001ba <_ZN7ns_menu7timeOutE+0x3>
    38e6:	8f bf       	out	0x3f, r24	; 63
    38e8:	08 95       	ret

000038ea <_ZN7ns_menu12Set_TimePlusEh>:
    38ea:	e0 91 d6 01 	lds	r30, 0x01D6	; 0x8001d6 <key4>
    38ee:	f0 91 d7 01 	lds	r31, 0x01D7	; 0x8001d7 <key4+0x1>
    38f2:	81 e0       	ldi	r24, 0x01	; 1
    38f4:	80 83       	st	Z, r24
    38f6:	80 91 a4 01 	lds	r24, 0x01A4	; 0x8001a4 <_ZN7ns_menu13setTime_timeNE>
    38fa:	85 30       	cpi	r24, 0x05	; 5
    38fc:	a9 f0       	breq	.+42     	; 0x3928 <_ZN7ns_menu12Set_TimePlusEh+0x3e>
    38fe:	84 30       	cpi	r24, 0x04	; 4
    3900:	79 f4       	brne	.+30     	; 0x3920 <_ZN7ns_menu12Set_TimePlusEh+0x36>
    3902:	e5 ea       	ldi	r30, 0xA5	; 165
    3904:	f1 e0       	ldi	r31, 0x01	; 1
    3906:	96 81       	ldd	r25, Z+6	; 0x06
    3908:	93 70       	andi	r25, 0x03	; 3
    390a:	e5 81       	ldd	r30, Z+5	; 0x05
    390c:	f0 e0       	ldi	r31, 0x00	; 0
    390e:	2d e0       	ldi	r18, 0x0D	; 13
    3910:	92 9f       	mul	r25, r18
    3912:	e0 0d       	add	r30, r0
    3914:	f1 1d       	adc	r31, r1
    3916:	11 24       	eor	r1, r1
    3918:	ef 52       	subi	r30, 0x2F	; 47
    391a:	fc 4f       	sbci	r31, 0xFC	; 252
    391c:	e4 91       	lpm	r30, Z
    391e:	0a c0       	rjmp	.+20     	; 0x3934 <_ZN7ns_menu12Set_TimePlusEh+0x4a>
    3920:	82 30       	cpi	r24, 0x02	; 2
    3922:	39 f0       	breq	.+14     	; 0x3932 <_ZN7ns_menu12Set_TimePlusEh+0x48>
    3924:	e9 e1       	ldi	r30, 0x19	; 25
    3926:	01 c0       	rjmp	.+2      	; 0x392a <_ZN7ns_menu12Set_TimePlusEh+0x40>
    3928:	ec e0       	ldi	r30, 0x0C	; 12
    392a:	81 30       	cpi	r24, 0x01	; 1
    392c:	19 f4       	brne	.+6      	; 0x3934 <_ZN7ns_menu12Set_TimePlusEh+0x4a>
    392e:	eb e3       	ldi	r30, 0x3B	; 59
    3930:	01 c0       	rjmp	.+2      	; 0x3934 <_ZN7ns_menu12Set_TimePlusEh+0x4a>
    3932:	e7 e1       	ldi	r30, 0x17	; 23
    3934:	90 e0       	ldi	r25, 0x00	; 0
    3936:	dc 01       	movw	r26, r24
    3938:	ab 55       	subi	r26, 0x5B	; 91
    393a:	be 4f       	sbci	r27, 0xFE	; 254
    393c:	2c 91       	ld	r18, X
    393e:	2e 17       	cp	r18, r30
    3940:	18 f4       	brcc	.+6      	; 0x3948 <_ZN7ns_menu12Set_TimePlusEh+0x5e>
    3942:	fd 01       	movw	r30, r26
    3944:	2f 5f       	subi	r18, 0xFF	; 255
    3946:	20 83       	st	Z, r18
    3948:	a4 de       	rcall	.-696    	; 0x3692 <_ZN7ns_menu12Set_TimeViewEv>
    394a:	8f b7       	in	r24, 0x3f	; 63
    394c:	f8 94       	cli
    394e:	40 e9       	ldi	r20, 0x90	; 144
    3950:	5f e5       	ldi	r21, 0x5F	; 95
    3952:	61 e0       	ldi	r22, 0x01	; 1
    3954:	70 e0       	ldi	r23, 0x00	; 0
    3956:	40 93 b7 01 	sts	0x01B7, r20	; 0x8001b7 <_ZN7ns_menu7timeOutE>
    395a:	50 93 b8 01 	sts	0x01B8, r21	; 0x8001b8 <_ZN7ns_menu7timeOutE+0x1>
    395e:	60 93 b9 01 	sts	0x01B9, r22	; 0x8001b9 <_ZN7ns_menu7timeOutE+0x2>
    3962:	70 93 ba 01 	sts	0x01BA, r23	; 0x8001ba <_ZN7ns_menu7timeOutE+0x3>
    3966:	8f bf       	out	0x3f, r24	; 63
    3968:	08 95       	ret

0000396a <_ZN7ns_menu11Set_TimeEntEh>:
    396a:	1f 93       	push	r17
    396c:	cf 93       	push	r28
    396e:	df 93       	push	r29
    3970:	80 91 a4 01 	lds	r24, 0x01A4	; 0x8001a4 <_ZN7ns_menu13setTime_timeNE>
    3974:	88 23       	and	r24, r24
    3976:	d9 f0       	breq	.+54     	; 0x39ae <_ZN7ns_menu11Set_TimeEntEh+0x44>
    3978:	9f ef       	ldi	r25, 0xFF	; 255
    397a:	98 0f       	add	r25, r24
    397c:	93 30       	cpi	r25, 0x03	; 3
    397e:	19 f0       	breq	.+6      	; 0x3986 <_ZN7ns_menu11Set_TimeEntEh+0x1c>
    3980:	90 93 a4 01 	sts	0x01A4, r25	; 0x8001a4 <_ZN7ns_menu13setTime_timeNE>
    3984:	03 c0       	rjmp	.+6      	; 0x398c <_ZN7ns_menu11Set_TimeEntEh+0x22>
    3986:	82 50       	subi	r24, 0x02	; 2
    3988:	80 93 a4 01 	sts	0x01A4, r24	; 0x8001a4 <_ZN7ns_menu13setTime_timeNE>
    398c:	82 de       	rcall	.-764    	; 0x3692 <_ZN7ns_menu12Set_TimeViewEv>
    398e:	8f b7       	in	r24, 0x3f	; 63
    3990:	f8 94       	cli
    3992:	40 e9       	ldi	r20, 0x90	; 144
    3994:	5f e5       	ldi	r21, 0x5F	; 95
    3996:	61 e0       	ldi	r22, 0x01	; 1
    3998:	70 e0       	ldi	r23, 0x00	; 0
    399a:	40 93 b7 01 	sts	0x01B7, r20	; 0x8001b7 <_ZN7ns_menu7timeOutE>
    399e:	50 93 b8 01 	sts	0x01B8, r21	; 0x8001b8 <_ZN7ns_menu7timeOutE+0x1>
    39a2:	60 93 b9 01 	sts	0x01B9, r22	; 0x8001b9 <_ZN7ns_menu7timeOutE+0x2>
    39a6:	70 93 ba 01 	sts	0x01BA, r23	; 0x8001ba <_ZN7ns_menu7timeOutE+0x3>
    39aa:	8f bf       	out	0x3f, r24	; 63
    39ac:	14 c0       	rjmp	.+40     	; 0x39d6 <_ZN7ns_menu11Set_TimeEntEh+0x6c>
    39ae:	1f b7       	in	r17, 0x3f	; 63
    39b0:	f8 94       	cli
    39b2:	c5 ea       	ldi	r28, 0xA5	; 165
    39b4:	d1 e0       	ldi	r29, 0x01	; 1
    39b6:	8e 81       	ldd	r24, Y+6	; 0x06
    39b8:	13 d6       	rcall	.+3110   	; 0x45e0 <_ZN8ns_clock7SetYearEh>
    39ba:	8d 81       	ldd	r24, Y+5	; 0x05
    39bc:	26 d6       	rcall	.+3148   	; 0x460a <_ZN8ns_clock8SetMonthEh>
    39be:	8c 81       	ldd	r24, Y+4	; 0x04
    39c0:	39 d6       	rcall	.+3186   	; 0x4634 <_ZN8ns_clock7SetDateEh>
    39c2:	8a 81       	ldd	r24, Y+2	; 0x02
    39c4:	4c d6       	rcall	.+3224   	; 0x465e <_ZN8ns_clock7SetHourEh>
    39c6:	89 81       	ldd	r24, Y+1	; 0x01
    39c8:	5f d6       	rcall	.+3262   	; 0x4688 <_ZN8ns_clock9SetMinuteEh>
    39ca:	73 d6       	rcall	.+3302   	; 0x46b2 <_ZN8ns_clock13SetZeroSecondEv>
    39cc:	75 d6       	rcall	.+3306   	; 0x46b8 <_ZN8ns_clock6UpdateEv>
    39ce:	1f bf       	out	0x3f, r17	; 63
    39d0:	80 e0       	ldi	r24, 0x00	; 0
    39d2:	0e 94 4f 14 	call	0x289e	; 0x289e <_ZN7ns_menu7SetModeEh>
    39d6:	df 91       	pop	r29
    39d8:	cf 91       	pop	r28
    39da:	1f 91       	pop	r17
    39dc:	08 95       	ret

000039de <_ZN7ns_menu12Set_TimeBackEh>:
    39de:	80 91 a4 01 	lds	r24, 0x01A4	; 0x8001a4 <_ZN7ns_menu13setTime_timeNE>
    39e2:	86 30       	cpi	r24, 0x06	; 6
    39e4:	d8 f4       	brcc	.+54     	; 0x3a1c <_ZN7ns_menu12Set_TimeBackEh+0x3e>
    39e6:	91 e0       	ldi	r25, 0x01	; 1
    39e8:	98 0f       	add	r25, r24
    39ea:	93 30       	cpi	r25, 0x03	; 3
    39ec:	19 f0       	breq	.+6      	; 0x39f4 <_ZN7ns_menu12Set_TimeBackEh+0x16>
    39ee:	90 93 a4 01 	sts	0x01A4, r25	; 0x8001a4 <_ZN7ns_menu13setTime_timeNE>
    39f2:	03 c0       	rjmp	.+6      	; 0x39fa <_ZN7ns_menu12Set_TimeBackEh+0x1c>
    39f4:	8e 5f       	subi	r24, 0xFE	; 254
    39f6:	80 93 a4 01 	sts	0x01A4, r24	; 0x8001a4 <_ZN7ns_menu13setTime_timeNE>
    39fa:	4b de       	rcall	.-874    	; 0x3692 <_ZN7ns_menu12Set_TimeViewEv>
    39fc:	8f b7       	in	r24, 0x3f	; 63
    39fe:	f8 94       	cli
    3a00:	40 e9       	ldi	r20, 0x90	; 144
    3a02:	5f e5       	ldi	r21, 0x5F	; 95
    3a04:	61 e0       	ldi	r22, 0x01	; 1
    3a06:	70 e0       	ldi	r23, 0x00	; 0
    3a08:	40 93 b7 01 	sts	0x01B7, r20	; 0x8001b7 <_ZN7ns_menu7timeOutE>
    3a0c:	50 93 b8 01 	sts	0x01B8, r21	; 0x8001b8 <_ZN7ns_menu7timeOutE+0x1>
    3a10:	60 93 b9 01 	sts	0x01B9, r22	; 0x8001b9 <_ZN7ns_menu7timeOutE+0x2>
    3a14:	70 93 ba 01 	sts	0x01BA, r23	; 0x8001ba <_ZN7ns_menu7timeOutE+0x3>
    3a18:	8f bf       	out	0x3f, r24	; 63
    3a1a:	08 95       	ret
    3a1c:	8f b7       	in	r24, 0x3f	; 63
    3a1e:	f8 94       	cli
    3a20:	10 92 b7 01 	sts	0x01B7, r1	; 0x8001b7 <_ZN7ns_menu7timeOutE>
    3a24:	10 92 b8 01 	sts	0x01B8, r1	; 0x8001b8 <_ZN7ns_menu7timeOutE+0x1>
    3a28:	10 92 b9 01 	sts	0x01B9, r1	; 0x8001b9 <_ZN7ns_menu7timeOutE+0x2>
    3a2c:	10 92 ba 01 	sts	0x01BA, r1	; 0x8001ba <_ZN7ns_menu7timeOutE+0x3>
    3a30:	8f bf       	out	0x3f, r24	; 63
    3a32:	80 e0       	ldi	r24, 0x00	; 0
    3a34:	0c 94 4f 14 	jmp	0x289e	; 0x289e <_ZN7ns_menu7SetModeEh>
    3a38:	08 95       	ret

00003a3a <_ZN7ns_menu10view_arcShEv>:
    3a3a:	cf 93       	push	r28
    3a3c:	df 93       	push	r29
    3a3e:	cd b7       	in	r28, 0x3d	; 61
    3a40:	de b7       	in	r29, 0x3e	; 62
    3a42:	2c 97       	sbiw	r28, 0x0c	; 12
    3a44:	0f b6       	in	r0, 0x3f	; 63
    3a46:	f8 94       	cli
    3a48:	de bf       	out	0x3e, r29	; 62
    3a4a:	0f be       	out	0x3f, r0	; 63
    3a4c:	cd bf       	out	0x3d, r28	; 61
    3a4e:	20 91 93 01 	lds	r18, 0x0193	; 0x800193 <_ZN7ns_menu9viewarc_nE>
    3a52:	30 91 94 01 	lds	r19, 0x0194	; 0x800194 <_ZN7ns_menu9viewarc_nE+0x1>
    3a56:	80 91 95 01 	lds	r24, 0x0195	; 0x800195 <_ZN7ns_menu11viewarc_idxE>
    3a5a:	90 91 96 01 	lds	r25, 0x0196	; 0x800196 <_ZN7ns_menu11viewarc_idxE+0x1>
    3a5e:	82 0f       	add	r24, r18
    3a60:	93 1f       	adc	r25, r19
    3a62:	8c 32       	cpi	r24, 0x2C	; 44
    3a64:	21 e0       	ldi	r18, 0x01	; 1
    3a66:	92 07       	cpc	r25, r18
    3a68:	30 f0       	brcs	.+12     	; 0x3a76 <_ZN7ns_menu10view_arcShEv+0x3c>
    3a6a:	8c 52       	subi	r24, 0x2C	; 44
    3a6c:	91 40       	sbci	r25, 0x01	; 1
    3a6e:	8c 32       	cpi	r24, 0x2C	; 44
    3a70:	21 e0       	ldi	r18, 0x01	; 1
    3a72:	92 07       	cpc	r25, r18
    3a74:	d0 f7       	brcc	.-12     	; 0x3a6a <_ZN7ns_menu10view_arcShEv+0x30>
    3a76:	2b e0       	ldi	r18, 0x0B	; 11
    3a78:	28 9f       	mul	r18, r24
    3a7a:	b0 01       	movw	r22, r0
    3a7c:	29 9f       	mul	r18, r25
    3a7e:	70 0d       	add	r23, r0
    3a80:	11 24       	eor	r1, r1
    3a82:	6c 5f       	subi	r22, 0xFC	; 252
    3a84:	7f 4f       	sbci	r23, 0xFF	; 255
    3a86:	4b e0       	ldi	r20, 0x0B	; 11
    3a88:	50 e0       	ldi	r21, 0x00	; 0
    3a8a:	ce 01       	movw	r24, r28
    3a8c:	01 96       	adiw	r24, 0x01	; 1
    3a8e:	0e 94 7d 2f 	call	0x5efa	; 0x5efa <eeprom_read_block>
    3a92:	61 e0       	ldi	r22, 0x01	; 1
    3a94:	80 e0       	ldi	r24, 0x00	; 0
    3a96:	0e 94 8f 27 	call	0x4f1e	; 0x4f1e <_ZN6ns_lcd11SetPositionEhh>
    3a9a:	8c 87       	std	Y+12, r24	; 0x0c
    3a9c:	2c 81       	ldd	r18, Y+4	; 0x04
    3a9e:	30 e0       	ldi	r19, 0x00	; 0
    3aa0:	40 e0       	ldi	r20, 0x00	; 0
    3aa2:	50 e0       	ldi	r21, 0x00	; 0
    3aa4:	62 e0       	ldi	r22, 0x02	; 2
    3aa6:	ce 01       	movw	r24, r28
    3aa8:	0c 96       	adiw	r24, 0x0c	; 12
    3aaa:	0e 94 a6 28 	call	0x514c	; 0x514c <_ZN6ns_lcd6DigitZEPhhl>
    3aae:	6a e3       	ldi	r22, 0x3A	; 58
    3ab0:	ce 01       	movw	r24, r28
    3ab2:	0c 96       	adiw	r24, 0x0c	; 12
    3ab4:	0e 94 f6 27 	call	0x4fec	; 0x4fec <_ZN6ns_lcd7PutCharEPhc>
    3ab8:	2d 81       	ldd	r18, Y+5	; 0x05
    3aba:	30 e0       	ldi	r19, 0x00	; 0
    3abc:	40 e0       	ldi	r20, 0x00	; 0
    3abe:	50 e0       	ldi	r21, 0x00	; 0
    3ac0:	62 e0       	ldi	r22, 0x02	; 2
    3ac2:	ce 01       	movw	r24, r28
    3ac4:	0c 96       	adiw	r24, 0x0c	; 12
    3ac6:	0e 94 a6 28 	call	0x514c	; 0x514c <_ZN6ns_lcd6DigitZEPhhl>
    3aca:	8c 85       	ldd	r24, Y+12	; 0x0c
    3acc:	8f 5f       	subi	r24, 0xFF	; 255
    3ace:	8c 87       	std	Y+12, r24	; 0x0c
    3ad0:	2e 81       	ldd	r18, Y+6	; 0x06
    3ad2:	3f 81       	ldd	r19, Y+7	; 0x07
    3ad4:	40 e0       	ldi	r20, 0x00	; 0
    3ad6:	50 e0       	ldi	r21, 0x00	; 0
    3ad8:	63 e0       	ldi	r22, 0x03	; 3
    3ada:	ce 01       	movw	r24, r28
    3adc:	0c 96       	adiw	r24, 0x0c	; 12
    3ade:	0e 94 a6 28 	call	0x514c	; 0x514c <_ZN6ns_lcd6DigitZEPhhl>
    3ae2:	8c 85       	ldd	r24, Y+12	; 0x0c
    3ae4:	8f 5f       	subi	r24, 0xFF	; 255
    3ae6:	8c 87       	std	Y+12, r24	; 0x0c
    3ae8:	28 85       	ldd	r18, Y+8	; 0x08
    3aea:	39 85       	ldd	r19, Y+9	; 0x09
    3aec:	40 e0       	ldi	r20, 0x00	; 0
    3aee:	50 e0       	ldi	r21, 0x00	; 0
    3af0:	65 e0       	ldi	r22, 0x05	; 5
    3af2:	ce 01       	movw	r24, r28
    3af4:	0c 96       	adiw	r24, 0x0c	; 12
    3af6:	0e 94 a6 28 	call	0x514c	; 0x514c <_ZN6ns_lcd6DigitZEPhhl>
    3afa:	8a 85       	ldd	r24, Y+10	; 0x0a
    3afc:	81 11       	cpse	r24, r1
    3afe:	06 c0       	rjmp	.+12     	; 0x3b0c <_ZN7ns_menu10view_arcShEv+0xd2>
    3b00:	64 e4       	ldi	r22, 0x44	; 68
    3b02:	ce 01       	movw	r24, r28
    3b04:	0c 96       	adiw	r24, 0x0c	; 12
    3b06:	0e 94 f6 27 	call	0x4fec	; 0x4fec <_ZN6ns_lcd7PutCharEPhc>
    3b0a:	05 c0       	rjmp	.+10     	; 0x3b16 <_ZN7ns_menu10view_arcShEv+0xdc>
    3b0c:	60 e2       	ldi	r22, 0x20	; 32
    3b0e:	ce 01       	movw	r24, r28
    3b10:	0c 96       	adiw	r24, 0x0c	; 12
    3b12:	0e 94 f6 27 	call	0x4fec	; 0x4fec <_ZN6ns_lcd7PutCharEPhc>
    3b16:	60 e0       	ldi	r22, 0x00	; 0
    3b18:	86 e0       	ldi	r24, 0x06	; 6
    3b1a:	0e 94 8f 27 	call	0x4f1e	; 0x4f1e <_ZN6ns_lcd11SetPositionEhh>
    3b1e:	8c 87       	std	Y+12, r24	; 0x0c
    3b20:	2b 81       	ldd	r18, Y+3	; 0x03
    3b22:	30 e0       	ldi	r19, 0x00	; 0
    3b24:	40 e0       	ldi	r20, 0x00	; 0
    3b26:	50 e0       	ldi	r21, 0x00	; 0
    3b28:	62 e0       	ldi	r22, 0x02	; 2
    3b2a:	ce 01       	movw	r24, r28
    3b2c:	0c 96       	adiw	r24, 0x0c	; 12
    3b2e:	0e 94 a6 28 	call	0x514c	; 0x514c <_ZN6ns_lcd6DigitZEPhhl>
    3b32:	6d e2       	ldi	r22, 0x2D	; 45
    3b34:	ce 01       	movw	r24, r28
    3b36:	0c 96       	adiw	r24, 0x0c	; 12
    3b38:	0e 94 f6 27 	call	0x4fec	; 0x4fec <_ZN6ns_lcd7PutCharEPhc>
    3b3c:	2a 81       	ldd	r18, Y+2	; 0x02
    3b3e:	30 e0       	ldi	r19, 0x00	; 0
    3b40:	40 e0       	ldi	r20, 0x00	; 0
    3b42:	50 e0       	ldi	r21, 0x00	; 0
    3b44:	62 e0       	ldi	r22, 0x02	; 2
    3b46:	ce 01       	movw	r24, r28
    3b48:	0c 96       	adiw	r24, 0x0c	; 12
    3b4a:	0e 94 a6 28 	call	0x514c	; 0x514c <_ZN6ns_lcd6DigitZEPhhl>
    3b4e:	6d e6       	ldi	r22, 0x6D	; 109
    3b50:	71 e0       	ldi	r23, 0x01	; 1
    3b52:	ce 01       	movw	r24, r28
    3b54:	0c 96       	adiw	r24, 0x0c	; 12
    3b56:	0e 94 64 28 	call	0x50c8	; 0x50c8 <_ZN6ns_lcd8String_PEPhPKc>
    3b5a:	29 81       	ldd	r18, Y+1	; 0x01
    3b5c:	30 e0       	ldi	r19, 0x00	; 0
    3b5e:	40 e0       	ldi	r20, 0x00	; 0
    3b60:	50 e0       	ldi	r21, 0x00	; 0
    3b62:	62 e0       	ldi	r22, 0x02	; 2
    3b64:	ce 01       	movw	r24, r28
    3b66:	0c 96       	adiw	r24, 0x0c	; 12
    3b68:	0e 94 a6 28 	call	0x514c	; 0x514c <_ZN6ns_lcd6DigitZEPhhl>
    3b6c:	2c 96       	adiw	r28, 0x0c	; 12
    3b6e:	0f b6       	in	r0, 0x3f	; 63
    3b70:	f8 94       	cli
    3b72:	de bf       	out	0x3e, r29	; 62
    3b74:	0f be       	out	0x3f, r0	; 63
    3b76:	cd bf       	out	0x3d, r28	; 61
    3b78:	df 91       	pop	r29
    3b7a:	cf 91       	pop	r28
    3b7c:	08 95       	ret

00003b7e <_ZN7ns_menu8view_arcEh>:
    3b7e:	10 92 b7 01 	sts	0x01B7, r1	; 0x8001b7 <_ZN7ns_menu7timeOutE>
    3b82:	10 92 b8 01 	sts	0x01B8, r1	; 0x8001b8 <_ZN7ns_menu7timeOutE+0x1>
    3b86:	10 92 b9 01 	sts	0x01B9, r1	; 0x8001b9 <_ZN7ns_menu7timeOutE+0x2>
    3b8a:	10 92 ba 01 	sts	0x01BA, r1	; 0x8001ba <_ZN7ns_menu7timeOutE+0x3>
    3b8e:	e0 91 d6 01 	lds	r30, 0x01D6	; 0x8001d6 <key4>
    3b92:	f0 91 d7 01 	lds	r31, 0x01D7	; 0x8001d7 <key4+0x1>
    3b96:	10 82       	st	Z, r1
    3b98:	0e 94 63 26 	call	0x4cc6	; 0x4cc6 <_ZN6ns_lcd5ClearEv>
    3b9c:	60 e0       	ldi	r22, 0x00	; 0
    3b9e:	80 e0       	ldi	r24, 0x00	; 0
    3ba0:	0e 94 8f 27 	call	0x4f1e	; 0x4f1e <_ZN6ns_lcd11SetPositionEhh>
    3ba4:	68 e6       	ldi	r22, 0x68	; 104
    3ba6:	71 e0       	ldi	r23, 0x01	; 1
    3ba8:	0e 94 99 28 	call	0x5132	; 0x5132 <_ZN6ns_lcd8String_PEhPKc>
    3bac:	4f b7       	in	r20, 0x3f	; 63
    3bae:	f8 94       	cli
    3bb0:	20 91 3d 01 	lds	r18, 0x013D	; 0x80013d <_ZN10ns_archive3lenE>
    3bb4:	30 91 3e 01 	lds	r19, 0x013E	; 0x80013e <_ZN10ns_archive3lenE+0x1>
    3bb8:	2c 32       	cpi	r18, 0x2C	; 44
    3bba:	81 e0       	ldi	r24, 0x01	; 1
    3bbc:	38 07       	cpc	r19, r24
    3bbe:	18 f0       	brcs	.+6      	; 0x3bc6 <_ZN7ns_menu8view_arcEh+0x48>
    3bc0:	60 e0       	ldi	r22, 0x00	; 0
    3bc2:	70 e0       	ldi	r23, 0x00	; 0
    3bc4:	01 c0       	rjmp	.+2      	; 0x3bc8 <_ZN7ns_menu8view_arcEh+0x4a>
    3bc6:	b9 01       	movw	r22, r18
    3bc8:	80 91 3f 01 	lds	r24, 0x013F	; 0x80013f <_ZN10ns_archive3idxE>
    3bcc:	90 91 40 01 	lds	r25, 0x0140	; 0x800140 <_ZN10ns_archive3idxE+0x1>
    3bd0:	82 17       	cp	r24, r18
    3bd2:	93 07       	cpc	r25, r19
    3bd4:	48 f4       	brcc	.+18     	; 0x3be8 <_ZN7ns_menu8view_arcEh+0x6a>
    3bd6:	84 5d       	subi	r24, 0xD4	; 212
    3bd8:	9e 4f       	sbci	r25, 0xFE	; 254
    3bda:	86 1b       	sub	r24, r22
    3bdc:	97 0b       	sbc	r25, r23
    3bde:	90 93 96 01 	sts	0x0196, r25	; 0x800196 <_ZN7ns_menu11viewarc_idxE+0x1>
    3be2:	80 93 95 01 	sts	0x0195, r24	; 0x800195 <_ZN7ns_menu11viewarc_idxE>
    3be6:	27 c0       	rjmp	.+78     	; 0x3c36 <_ZN7ns_menu8view_arcEh+0xb8>
    3be8:	86 1b       	sub	r24, r22
    3bea:	97 0b       	sbc	r25, r23
    3bec:	90 93 96 01 	sts	0x0196, r25	; 0x800196 <_ZN7ns_menu11viewarc_idxE+0x1>
    3bf0:	80 93 95 01 	sts	0x0195, r24	; 0x800195 <_ZN7ns_menu11viewarc_idxE>
    3bf4:	20 c0       	rjmp	.+64     	; 0x3c36 <_ZN7ns_menu8view_arcEh+0xb8>
    3bf6:	80 91 3d 01 	lds	r24, 0x013D	; 0x80013d <_ZN10ns_archive3lenE>
    3bfa:	90 91 3e 01 	lds	r25, 0x013E	; 0x80013e <_ZN10ns_archive3lenE+0x1>
    3bfe:	89 2b       	or	r24, r25
    3c00:	c1 f4       	brne	.+48     	; 0x3c32 <_ZN7ns_menu8view_arcEh+0xb4>
    3c02:	61 e0       	ldi	r22, 0x01	; 1
    3c04:	80 e0       	ldi	r24, 0x00	; 0
    3c06:	0e 94 8f 27 	call	0x4f1e	; 0x4f1e <_ZN6ns_lcd11SetPositionEhh>
    3c0a:	6d e5       	ldi	r22, 0x5D	; 93
    3c0c:	71 e0       	ldi	r23, 0x01	; 1
    3c0e:	0e 94 99 28 	call	0x5132	; 0x5132 <_ZN6ns_lcd8String_PEhPKc>
    3c12:	80 e1       	ldi	r24, 0x10	; 16
    3c14:	97 e2       	ldi	r25, 0x27	; 39
    3c16:	a0 e0       	ldi	r26, 0x00	; 0
    3c18:	b0 e0       	ldi	r27, 0x00	; 0
    3c1a:	80 93 b7 01 	sts	0x01B7, r24	; 0x8001b7 <_ZN7ns_menu7timeOutE>
    3c1e:	90 93 b8 01 	sts	0x01B8, r25	; 0x8001b8 <_ZN7ns_menu7timeOutE+0x1>
    3c22:	a0 93 b9 01 	sts	0x01B9, r26	; 0x8001b9 <_ZN7ns_menu7timeOutE+0x2>
    3c26:	b0 93 ba 01 	sts	0x01BA, r27	; 0x8001ba <_ZN7ns_menu7timeOutE+0x3>
    3c2a:	84 e0       	ldi	r24, 0x04	; 4
    3c2c:	0c 94 4f 14 	jmp	0x289e	; 0x289e <_ZN7ns_menu7SetModeEh>
    3c30:	08 95       	ret
    3c32:	03 cf       	rjmp	.-506    	; 0x3a3a <_ZN7ns_menu10view_arcShEv>
    3c34:	08 95       	ret
    3c36:	4f bf       	out	0x3f, r20	; 63
    3c38:	10 92 94 01 	sts	0x0194, r1	; 0x800194 <_ZN7ns_menu9viewarc_nE+0x1>
    3c3c:	10 92 93 01 	sts	0x0193, r1	; 0x800193 <_ZN7ns_menu9viewarc_nE>
    3c40:	80 e0       	ldi	r24, 0x00	; 0
    3c42:	90 e0       	ldi	r25, 0x00	; 0
    3c44:	0e 94 95 2f 	call	0x5f2a	; 0x5f2a <eeprom_read_word>
    3c48:	89 2b       	or	r24, r25
    3c4a:	a9 f2       	breq	.-86     	; 0x3bf6 <_ZN7ns_menu8view_arcEh+0x78>
    3c4c:	f2 cf       	rjmp	.-28     	; 0x3c32 <_ZN7ns_menu8view_arcEh+0xb4>

00003c4e <_ZN7ns_menu10view_arcEnEh>:
    3c4e:	cf 93       	push	r28
    3c50:	df 93       	push	r29
    3c52:	e0 91 d6 01 	lds	r30, 0x01D6	; 0x8001d6 <key4>
    3c56:	f0 91 d7 01 	lds	r31, 0x01D7	; 0x8001d7 <key4+0x1>
    3c5a:	10 82       	st	Z, r1
    3c5c:	20 91 93 01 	lds	r18, 0x0193	; 0x800193 <_ZN7ns_menu9viewarc_nE>
    3c60:	30 91 94 01 	lds	r19, 0x0194	; 0x800194 <_ZN7ns_menu9viewarc_nE+0x1>
    3c64:	80 91 95 01 	lds	r24, 0x0195	; 0x800195 <_ZN7ns_menu11viewarc_idxE>
    3c68:	90 91 96 01 	lds	r25, 0x0196	; 0x800196 <_ZN7ns_menu11viewarc_idxE+0x1>
    3c6c:	28 0f       	add	r18, r24
    3c6e:	39 1f       	adc	r19, r25
    3c70:	2c 32       	cpi	r18, 0x2C	; 44
    3c72:	81 e0       	ldi	r24, 0x01	; 1
    3c74:	38 07       	cpc	r19, r24
    3c76:	30 f0       	brcs	.+12     	; 0x3c84 <_ZN7ns_menu10view_arcEnEh+0x36>
    3c78:	2c 52       	subi	r18, 0x2C	; 44
    3c7a:	31 40       	sbci	r19, 0x01	; 1
    3c7c:	2c 32       	cpi	r18, 0x2C	; 44
    3c7e:	81 e0       	ldi	r24, 0x01	; 1
    3c80:	38 07       	cpc	r19, r24
    3c82:	d0 f7       	brcc	.-12     	; 0x3c78 <_ZN7ns_menu10view_arcEnEh+0x2a>
    3c84:	8b e0       	ldi	r24, 0x0B	; 11
    3c86:	82 9f       	mul	r24, r18
    3c88:	e0 01       	movw	r28, r0
    3c8a:	83 9f       	mul	r24, r19
    3c8c:	d0 0d       	add	r29, r0
    3c8e:	11 24       	eor	r1, r1
    3c90:	c3 5f       	subi	r28, 0xF3	; 243
    3c92:	df 4f       	sbci	r29, 0xFF	; 255
    3c94:	ce 01       	movw	r24, r28
    3c96:	0e 94 8d 2f 	call	0x5f1a	; 0x5f1a <eeprom_read_byte>
    3c9a:	88 23       	and	r24, r24
    3c9c:	29 f0       	breq	.+10     	; 0x3ca8 <_ZN7ns_menu10view_arcEnEh+0x5a>
    3c9e:	60 e0       	ldi	r22, 0x00	; 0
    3ca0:	ce 01       	movw	r24, r28
    3ca2:	0e 94 9a 2f 	call	0x5f34	; 0x5f34 <eeprom_update_byte>
    3ca6:	04 c0       	rjmp	.+8      	; 0x3cb0 <_ZN7ns_menu10view_arcEnEh+0x62>
    3ca8:	61 e0       	ldi	r22, 0x01	; 1
    3caa:	ce 01       	movw	r24, r28
    3cac:	0e 94 9a 2f 	call	0x5f34	; 0x5f34 <eeprom_update_byte>
    3cb0:	c4 de       	rcall	.-632    	; 0x3a3a <_ZN7ns_menu10view_arcShEv>
    3cb2:	df 91       	pop	r29
    3cb4:	cf 91       	pop	r28
    3cb6:	08 95       	ret

00003cb8 <_ZN7ns_menu13view_arcMinusEh>:
    3cb8:	e0 91 d6 01 	lds	r30, 0x01D6	; 0x8001d6 <key4>
    3cbc:	f0 91 d7 01 	lds	r31, 0x01D7	; 0x8001d7 <key4+0x1>
    3cc0:	81 e0       	ldi	r24, 0x01	; 1
    3cc2:	80 83       	st	Z, r24
    3cc4:	80 91 93 01 	lds	r24, 0x0193	; 0x800193 <_ZN7ns_menu9viewarc_nE>
    3cc8:	90 91 94 01 	lds	r25, 0x0194	; 0x800194 <_ZN7ns_menu9viewarc_nE+0x1>
    3ccc:	00 97       	sbiw	r24, 0x00	; 0
    3cce:	29 f0       	breq	.+10     	; 0x3cda <_ZN7ns_menu13view_arcMinusEh+0x22>
    3cd0:	01 97       	sbiw	r24, 0x01	; 1
    3cd2:	90 93 94 01 	sts	0x0194, r25	; 0x800194 <_ZN7ns_menu9viewarc_nE+0x1>
    3cd6:	80 93 93 01 	sts	0x0193, r24	; 0x800193 <_ZN7ns_menu9viewarc_nE>
    3cda:	af ce       	rjmp	.-674    	; 0x3a3a <_ZN7ns_menu10view_arcShEv>
    3cdc:	08 95       	ret

00003cde <_ZN7ns_menu12view_arcPlusEh>:
    3cde:	e0 91 d6 01 	lds	r30, 0x01D6	; 0x8001d6 <key4>
    3ce2:	f0 91 d7 01 	lds	r31, 0x01D7	; 0x8001d7 <key4+0x1>
    3ce6:	81 e0       	ldi	r24, 0x01	; 1
    3ce8:	80 83       	st	Z, r24
    3cea:	80 e0       	ldi	r24, 0x00	; 0
    3cec:	90 e0       	ldi	r25, 0x00	; 0
    3cee:	0e 94 95 2f 	call	0x5f2a	; 0x5f2a <eeprom_read_word>
    3cf2:	40 91 3d 01 	lds	r20, 0x013D	; 0x80013d <_ZN10ns_archive3lenE>
    3cf6:	50 91 3e 01 	lds	r21, 0x013E	; 0x80013e <_ZN10ns_archive3lenE+0x1>
    3cfa:	20 91 93 01 	lds	r18, 0x0193	; 0x800193 <_ZN7ns_menu9viewarc_nE>
    3cfe:	30 91 94 01 	lds	r19, 0x0194	; 0x800194 <_ZN7ns_menu9viewarc_nE+0x1>
    3d02:	84 17       	cp	r24, r20
    3d04:	95 07       	cpc	r25, r21
    3d06:	08 f4       	brcc	.+2      	; 0x3d0a <_ZN7ns_menu12view_arcPlusEh+0x2c>
    3d08:	ca 01       	movw	r24, r20
    3d0a:	01 97       	sbiw	r24, 0x01	; 1
    3d0c:	28 17       	cp	r18, r24
    3d0e:	39 07       	cpc	r19, r25
    3d10:	30 f4       	brcc	.+12     	; 0x3d1e <_ZN7ns_menu12view_arcPlusEh+0x40>
    3d12:	2f 5f       	subi	r18, 0xFF	; 255
    3d14:	3f 4f       	sbci	r19, 0xFF	; 255
    3d16:	30 93 94 01 	sts	0x0194, r19	; 0x800194 <_ZN7ns_menu9viewarc_nE+0x1>
    3d1a:	20 93 93 01 	sts	0x0193, r18	; 0x800193 <_ZN7ns_menu9viewarc_nE>
    3d1e:	8d ce       	rjmp	.-742    	; 0x3a3a <_ZN7ns_menu10view_arcShEv>
    3d20:	08 95       	ret

00003d22 <_ZN7ns_menu12CorCurTubeShEv>:
		uint8_t corCurTube_h, corCurTube_l;
		//int8_t  corCurTube_Cor;
		uint16_t corCurTube_dlina;
		uint16_t corCurTube_base;
		void CorCurTubeSh()
		{
    3d22:	cf 92       	push	r12
    3d24:	df 92       	push	r13
    3d26:	ef 92       	push	r14
    3d28:	ff 92       	push	r15
			scr::DigitZ(scr::SetPosition(4, 1), 5, corCurTube_base);
    3d2a:	c0 90 8e 01 	lds	r12, 0x018E	; 0x80018e <_ZN7ns_menu15corCurTube_baseE>
    3d2e:	d0 90 8f 01 	lds	r13, 0x018F	; 0x80018f <_ZN7ns_menu15corCurTube_baseE+0x1>
    3d32:	e1 2c       	mov	r14, r1
    3d34:	f1 2c       	mov	r15, r1
    3d36:	61 e0       	ldi	r22, 0x01	; 1
    3d38:	84 e0       	ldi	r24, 0x04	; 4
    3d3a:	0e 94 8f 27 	call	0x4f1e	; 0x4f1e <_ZN6ns_lcd11SetPositionEhh>
    3d3e:	a7 01       	movw	r20, r14
    3d40:	96 01       	movw	r18, r12
    3d42:	65 e0       	ldi	r22, 0x05	; 5
    3d44:	0e 94 11 29 	call	0x5222	; 0x5222 <_ZN6ns_lcd6DigitZEhhl>
			//scr::DigitZ(scr::SetPosition(10, 1), 5, corCurTube_dlina + corCurTube_Cor);
			scr::DigitZ(scr::SetPosition(10, 1), 5, corCurTube_dlina);
    3d48:	c0 90 90 01 	lds	r12, 0x0190	; 0x800190 <_ZN7ns_menu16corCurTube_dlinaE>
    3d4c:	d0 90 91 01 	lds	r13, 0x0191	; 0x800191 <_ZN7ns_menu16corCurTube_dlinaE+0x1>
    3d50:	e1 2c       	mov	r14, r1
    3d52:	f1 2c       	mov	r15, r1
    3d54:	61 e0       	ldi	r22, 0x01	; 1
    3d56:	8a e0       	ldi	r24, 0x0A	; 10
    3d58:	0e 94 8f 27 	call	0x4f1e	; 0x4f1e <_ZN6ns_lcd11SetPositionEhh>
    3d5c:	a7 01       	movw	r20, r14
    3d5e:	96 01       	movw	r18, r12
    3d60:	65 e0       	ldi	r22, 0x05	; 5
    3d62:	0e 94 11 29 	call	0x5222	; 0x5222 <_ZN6ns_lcd6DigitZEhhl>
		}
    3d66:	ff 90       	pop	r15
    3d68:	ef 90       	pop	r14
    3d6a:	df 90       	pop	r13
    3d6c:	cf 90       	pop	r12
    3d6e:	08 95       	ret

00003d70 <_ZN7ns_menu10CorCurTubeEh>:
		void CorCurTube(uint8_t k)
		{
    3d70:	cf 92       	push	r12
    3d72:	df 92       	push	r13
    3d74:	ef 92       	push	r14
    3d76:	ff 92       	push	r15
			CRITICAL_SECTION { timeOut = 0; }
    3d78:	8f b7       	in	r24, 0x3f	; 63
    return 1;
}

static __inline__ uint8_t __iCliRetVal(void)
{
    cli();
    3d7a:	f8 94       	cli
    3d7c:	10 92 b7 01 	sts	0x01B7, r1	; 0x8001b7 <_ZN7ns_menu7timeOutE>
    3d80:	10 92 b8 01 	sts	0x01B8, r1	; 0x8001b8 <_ZN7ns_menu7timeOutE+0x1>
    3d84:	10 92 b9 01 	sts	0x01B9, r1	; 0x8001b9 <_ZN7ns_menu7timeOutE+0x2>
    3d88:	10 92 ba 01 	sts	0x01BA, r1	; 0x8001ba <_ZN7ns_menu7timeOutE+0x3>
    (void)__s;
}

static __inline__ void __iRestore(const  uint8_t *__s)
{
    SREG = *__s;
    3d8c:	8f bf       	out	0x3f, r24	; 63
			key4->autoRepeat = false;
    3d8e:	e0 91 d6 01 	lds	r30, 0x01D6	; 0x8001d6 <key4>
    3d92:	f0 91 d7 01 	lds	r31, 0x01D7	; 0x8001d7 <key4+0x1>
    3d96:	10 82       	st	Z, r1
			timeOut = 0;
    3d98:	10 92 b7 01 	sts	0x01B7, r1	; 0x8001b7 <_ZN7ns_menu7timeOutE>
    3d9c:	10 92 b8 01 	sts	0x01B8, r1	; 0x8001b8 <_ZN7ns_menu7timeOutE+0x1>
    3da0:	10 92 b9 01 	sts	0x01B9, r1	; 0x8001b9 <_ZN7ns_menu7timeOutE+0x2>
    3da4:	10 92 ba 01 	sts	0x01BA, r1	; 0x8001ba <_ZN7ns_menu7timeOutE+0x3>
			scr::Clear();
    3da8:	8e d7       	rcall	.+3868   	; 0x4cc6 <_ZN6ns_lcd5ClearEv>
			scr::String_P(scr::SetPosition(0, 0), PSTR("Edit len"));
    3daa:	60 e0       	ldi	r22, 0x00	; 0
    3dac:	80 e0       	ldi	r24, 0x00	; 0
    3dae:	0e 94 8f 27 	call	0x4f1e	; 0x4f1e <_ZN6ns_lcd11SetPositionEhh>
    3db2:	64 e5       	ldi	r22, 0x54	; 84
    3db4:	71 e0       	ldi	r23, 0x01	; 1
    3db6:	0e 94 99 28 	call	0x5132	; 0x5132 <_ZN6ns_lcd8String_PEhPKc>
			if ( (ns_archive::len == 0) && (eeprom_read_word(&ns_archive::lenEE) == 0) )
    3dba:	80 91 3d 01 	lds	r24, 0x013D	; 0x80013d <_ZN10ns_archive3lenE>
    3dbe:	90 91 3e 01 	lds	r25, 0x013E	; 0x80013e <_ZN10ns_archive3lenE+0x1>
    3dc2:	89 2b       	or	r24, r25
    3dc4:	49 f4       	brne	.+18     	; 0x3dd8 <_ZN7ns_menu10CorCurTubeEh+0x68>
    3dc6:	80 e0       	ldi	r24, 0x00	; 0
    3dc8:	90 e0       	ldi	r25, 0x00	; 0
    3dca:	0e 94 95 2f 	call	0x5f2a	; 0x5f2a <eeprom_read_word>
    3dce:	89 2b       	or	r24, r25
    3dd0:	19 f4       	brne	.+6      	; 0x3dd8 <_ZN7ns_menu10CorCurTubeEh+0x68>
			{
				//
				SetMode(MAIN);
    3dd2:	80 e0       	ldi	r24, 0x00	; 0
    3dd4:	0e 94 4f 14 	call	0x289e	; 0x289e <_ZN7ns_menu7SetModeEh>
			}
			corCurTube_idx = ns_archive::idx;
    3dd8:	80 91 3f 01 	lds	r24, 0x013F	; 0x80013f <_ZN10ns_archive3idxE>
    3ddc:	90 91 40 01 	lds	r25, 0x0140	; 0x800140 <_ZN10ns_archive3idxE+0x1>
			if (corCurTube_idx == 0) corCurTube_idx = ARCHIVE_LEN - 1;
    3de0:	00 97       	sbiw	r24, 0x00	; 0
    3de2:	39 f4       	brne	.+14     	; 0x3df2 <_ZN7ns_menu10CorCurTubeEh+0x82>
    3de4:	8b e2       	ldi	r24, 0x2B	; 43
    3de6:	91 e0       	ldi	r25, 0x01	; 1
    3de8:	90 93 98 01 	sts	0x0198, r25	; 0x800198 <_ZN7ns_menu14corCurTube_idxE+0x1>
    3dec:	80 93 97 01 	sts	0x0197, r24	; 0x800197 <_ZN7ns_menu14corCurTube_idxE>
    3df0:	05 c0       	rjmp	.+10     	; 0x3dfc <_ZN7ns_menu10CorCurTubeEh+0x8c>
			else corCurTube_idx--;
    3df2:	01 97       	sbiw	r24, 0x01	; 1
    3df4:	90 93 98 01 	sts	0x0198, r25	; 0x800198 <_ZN7ns_menu14corCurTube_idxE+0x1>
    3df8:	80 93 97 01 	sts	0x0197, r24	; 0x800197 <_ZN7ns_menu14corCurTube_idxE>
			eeprom_read_block(&corCurTube_cell, &ns_archive::archive[corCurTube_idx], sizeof(archiveStruct));
    3dfc:	80 91 97 01 	lds	r24, 0x0197	; 0x800197 <_ZN7ns_menu14corCurTube_idxE>
    3e00:	90 91 98 01 	lds	r25, 0x0198	; 0x800198 <_ZN7ns_menu14corCurTube_idxE+0x1>
    3e04:	2b e0       	ldi	r18, 0x0B	; 11
    3e06:	28 9f       	mul	r18, r24
    3e08:	b0 01       	movw	r22, r0
    3e0a:	29 9f       	mul	r18, r25
    3e0c:	70 0d       	add	r23, r0
    3e0e:	11 24       	eor	r1, r1
    3e10:	6c 5f       	subi	r22, 0xFC	; 252
    3e12:	7f 4f       	sbci	r23, 0xFF	; 255
    3e14:	4b e0       	ldi	r20, 0x0B	; 11
    3e16:	50 e0       	ldi	r21, 0x00	; 0
    3e18:	89 e9       	ldi	r24, 0x99	; 153
    3e1a:	91 e0       	ldi	r25, 0x01	; 1
    3e1c:	0e 94 7d 2f 	call	0x5efa	; 0x5efa <eeprom_read_block>
			uint8_t bas;
			if (corCurTube_cell.sqBas < 0) bas = -corCurTube_cell.sqBas;
    3e20:	90 91 a3 01 	lds	r25, 0x01A3	; 0x8001a3 <_ZN7ns_menu15corCurTube_cellE+0xa>
    3e24:	97 fd       	sbrc	r25, 7
    3e26:	91 95       	neg	r25
			else bas = corCurTube_cell.sqBas;
			//corCurTube_h = bas / 10;
			//scr::DigitZ(scr::SetPosition(0, 1), 2, corCurTube_cell.sqBas);
			corCurTube_l = (bas % 10);
    3e28:	8d ec       	ldi	r24, 0xCD	; 205
    3e2a:	98 9f       	mul	r25, r24
    3e2c:	81 2d       	mov	r24, r1
    3e2e:	11 24       	eor	r1, r1
    3e30:	86 95       	lsr	r24
    3e32:	86 95       	lsr	r24
    3e34:	86 95       	lsr	r24
    3e36:	88 0f       	add	r24, r24
    3e38:	28 2f       	mov	r18, r24
    3e3a:	22 0f       	add	r18, r18
    3e3c:	22 0f       	add	r18, r18
    3e3e:	82 0f       	add	r24, r18
    3e40:	98 1b       	sub	r25, r24
    3e42:	90 93 92 01 	sts	0x0192, r25	; 0x800192 <_ZN7ns_menu12corCurTube_lE>
			//eeprom_read_block(&corCurTube_Cor, &ns_vg::eeDistanceCor[corCurTube_h][corCurTube_l], 1);
			corCurTube_dlina = corCurTube_cell.len;
    3e46:	e0 90 a0 01 	lds	r14, 0x01A0	; 0x8001a0 <_ZN7ns_menu15corCurTube_cellE+0x7>
    3e4a:	f0 90 a1 01 	lds	r15, 0x01A1	; 0x8001a1 <_ZN7ns_menu15corCurTube_cellE+0x8>
    3e4e:	f0 92 91 01 	sts	0x0191, r15	; 0x800191 <_ZN7ns_menu16corCurTube_dlinaE+0x1>
    3e52:	e0 92 90 01 	sts	0x0190, r14	; 0x800190 <_ZN7ns_menu16corCurTube_dlinaE>
			scr::DigitZ(scr::SetPosition(10, 0), 5, corCurTube_dlina);
    3e56:	60 e0       	ldi	r22, 0x00	; 0
    3e58:	8a e0       	ldi	r24, 0x0A	; 10
    3e5a:	0e 94 8f 27 	call	0x4f1e	; 0x4f1e <_ZN6ns_lcd11SetPositionEhh>
    3e5e:	97 01       	movw	r18, r14
    3e60:	40 e0       	ldi	r20, 0x00	; 0
    3e62:	50 e0       	ldi	r21, 0x00	; 0
    3e64:	65 e0       	ldi	r22, 0x05	; 5
    3e66:	0e 94 11 29 	call	0x5222	; 0x5222 <_ZN6ns_lcd6DigitZEhhl>
			//corCurTube_dlina -= corCurTube_Cor;
			{
				corCurTube_base = eeprom_read_word(&ns_vg::eeDistance[corCurTube_l]) - eeprom_read_word(&ns_vg::eeDistance[0]);
    3e6a:	80 91 92 01 	lds	r24, 0x0192	; 0x800192 <_ZN7ns_menu12corCurTube_lE>
    3e6e:	90 e0       	ldi	r25, 0x00	; 0
    3e70:	88 0f       	add	r24, r24
    3e72:	99 1f       	adc	r25, r25
    3e74:	8e 50       	subi	r24, 0x0E	; 14
    3e76:	93 4f       	sbci	r25, 0xF3	; 243
    3e78:	0e 94 95 2f 	call	0x5f2a	; 0x5f2a <eeprom_read_word>
    3e7c:	7c 01       	movw	r14, r24
    3e7e:	82 ef       	ldi	r24, 0xF2	; 242
    3e80:	9c e0       	ldi	r25, 0x0C	; 12
    3e82:	0e 94 95 2f 	call	0x5f2a	; 0x5f2a <eeprom_read_word>
    3e86:	e8 1a       	sub	r14, r24
    3e88:	f9 0a       	sbc	r15, r25
    3e8a:	f0 92 8f 01 	sts	0x018F, r15	; 0x80018f <_ZN7ns_menu15corCurTube_baseE+0x1>
    3e8e:	e0 92 8e 01 	sts	0x018E, r14	; 0x80018e <_ZN7ns_menu15corCurTube_baseE>
				int16_t tmpD0;
				eeprom_read_block(&tmpDn, &ns_vg::eeDistance[corCurTube_l], sizeof(int16_t) );
				eeprom_read_block(&tmpD0, &ns_vg::eeDistance[0], sizeof(int16_t) );
				corCurTube_base = tmpDn - tmpD0;*/
			}
			scr::String_P(scr::SetPosition(0, 1), PSTR("SQ"));
    3e92:	61 e0       	ldi	r22, 0x01	; 1
    3e94:	80 e0       	ldi	r24, 0x00	; 0
    3e96:	0e 94 8f 27 	call	0x4f1e	; 0x4f1e <_ZN6ns_lcd11SetPositionEhh>
    3e9a:	61 e5       	ldi	r22, 0x51	; 81
    3e9c:	71 e0       	ldi	r23, 0x01	; 1
    3e9e:	0e 94 99 28 	call	0x5132	; 0x5132 <_ZN6ns_lcd8String_PEhPKc>
			scr::DigitZ(scr::SetPosition(2, 1), 1, corCurTube_l+1);
    3ea2:	c0 90 92 01 	lds	r12, 0x0192	; 0x800192 <_ZN7ns_menu12corCurTube_lE>
    3ea6:	d1 2c       	mov	r13, r1
    3ea8:	8f ef       	ldi	r24, 0xFF	; 255
    3eaa:	c8 1a       	sub	r12, r24
    3eac:	d8 0a       	sbc	r13, r24
    3eae:	0d 2c       	mov	r0, r13
    3eb0:	00 0c       	add	r0, r0
    3eb2:	ee 08       	sbc	r14, r14
    3eb4:	ff 08       	sbc	r15, r15
    3eb6:	61 e0       	ldi	r22, 0x01	; 1
    3eb8:	82 e0       	ldi	r24, 0x02	; 2
    3eba:	0e 94 8f 27 	call	0x4f1e	; 0x4f1e <_ZN6ns_lcd11SetPositionEhh>
    3ebe:	a7 01       	movw	r20, r14
    3ec0:	96 01       	movw	r18, r12
    3ec2:	61 e0       	ldi	r22, 0x01	; 1
    3ec4:	0e 94 11 29 	call	0x5222	; 0x5222 <_ZN6ns_lcd6DigitZEhhl>
			scr::String_P(scr::SetPosition(3, 1), PSTR(":"));
    3ec8:	61 e0       	ldi	r22, 0x01	; 1
    3eca:	83 e0       	ldi	r24, 0x03	; 3
    3ecc:	0e 94 8f 27 	call	0x4f1e	; 0x4f1e <_ZN6ns_lcd11SetPositionEhh>
    3ed0:	6f e4       	ldi	r22, 0x4F	; 79
    3ed2:	71 e0       	ldi	r23, 0x01	; 1
    3ed4:	0e 94 99 28 	call	0x5132	; 0x5132 <_ZN6ns_lcd8String_PEhPKc>
			scr::String_P(scr::SetPosition(9, 1), PSTR("<"));
    3ed8:	61 e0       	ldi	r22, 0x01	; 1
    3eda:	89 e0       	ldi	r24, 0x09	; 9
    3edc:	0e 94 8f 27 	call	0x4f1e	; 0x4f1e <_ZN6ns_lcd11SetPositionEhh>
    3ee0:	6d e4       	ldi	r22, 0x4D	; 77
    3ee2:	71 e0       	ldi	r23, 0x01	; 1
    3ee4:	0e 94 99 28 	call	0x5132	; 0x5132 <_ZN6ns_lcd8String_PEhPKc>
			CorCurTubeSh();
    3ee8:	1c df       	rcall	.-456    	; 0x3d22 <_ZN7ns_menu12CorCurTubeShEv>
			CRITICAL_SECTION { timeOut = TIMEOUT_MENU; }
    3eea:	8f b7       	in	r24, 0x3f	; 63
    return 1;
}

static __inline__ uint8_t __iCliRetVal(void)
{
    cli();
    3eec:	f8 94       	cli
    3eee:	40 e9       	ldi	r20, 0x90	; 144
    3ef0:	5f e5       	ldi	r21, 0x5F	; 95
    3ef2:	61 e0       	ldi	r22, 0x01	; 1
    3ef4:	70 e0       	ldi	r23, 0x00	; 0
    3ef6:	40 93 b7 01 	sts	0x01B7, r20	; 0x8001b7 <_ZN7ns_menu7timeOutE>
    3efa:	50 93 b8 01 	sts	0x01B8, r21	; 0x8001b8 <_ZN7ns_menu7timeOutE+0x1>
    3efe:	60 93 b9 01 	sts	0x01B9, r22	; 0x8001b9 <_ZN7ns_menu7timeOutE+0x2>
    3f02:	70 93 ba 01 	sts	0x01BA, r23	; 0x8001ba <_ZN7ns_menu7timeOutE+0x3>
    (void)__s;
}

static __inline__ void __iRestore(const  uint8_t *__s)
{
    SREG = *__s;
    3f06:	8f bf       	out	0x3f, r24	; 63
		}
    3f08:	ff 90       	pop	r15
    3f0a:	ef 90       	pop	r14
    3f0c:	df 90       	pop	r13
    3f0e:	cf 90       	pop	r12
    3f10:	08 95       	ret

00003f12 <_ZN7ns_menu15CorCurTubeMinusEh>:
		void CorCurTubeMinus(uint8_t k)
		{
			key4->autoRepeat = true;
    3f12:	e0 91 d6 01 	lds	r30, 0x01D6	; 0x8001d6 <key4>
    3f16:	f0 91 d7 01 	lds	r31, 0x01D7	; 0x8001d7 <key4+0x1>
    3f1a:	81 e0       	ldi	r24, 0x01	; 1
    3f1c:	80 83       	st	Z, r24
			//if (corCurTube_Cor > -100)
			{
				//corCurTube_Cor--;
				corCurTube_base--;
    3f1e:	80 91 8e 01 	lds	r24, 0x018E	; 0x80018e <_ZN7ns_menu15corCurTube_baseE>
    3f22:	90 91 8f 01 	lds	r25, 0x018F	; 0x80018f <_ZN7ns_menu15corCurTube_baseE+0x1>
    3f26:	01 97       	sbiw	r24, 0x01	; 1
    3f28:	90 93 8f 01 	sts	0x018F, r25	; 0x80018f <_ZN7ns_menu15corCurTube_baseE+0x1>
    3f2c:	80 93 8e 01 	sts	0x018E, r24	; 0x80018e <_ZN7ns_menu15corCurTube_baseE>
				corCurTube_dlina--;
    3f30:	80 91 90 01 	lds	r24, 0x0190	; 0x800190 <_ZN7ns_menu16corCurTube_dlinaE>
    3f34:	90 91 91 01 	lds	r25, 0x0191	; 0x800191 <_ZN7ns_menu16corCurTube_dlinaE+0x1>
    3f38:	01 97       	sbiw	r24, 0x01	; 1
    3f3a:	90 93 91 01 	sts	0x0191, r25	; 0x800191 <_ZN7ns_menu16corCurTube_dlinaE+0x1>
    3f3e:	80 93 90 01 	sts	0x0190, r24	; 0x800190 <_ZN7ns_menu16corCurTube_dlinaE>
				CorCurTubeSh();
    3f42:	ef de       	rcall	.-546    	; 0x3d22 <_ZN7ns_menu12CorCurTubeShEv>
			}
			CRITICAL_SECTION { timeOut = TIMEOUT_MENU; }
    3f44:	8f b7       	in	r24, 0x3f	; 63
    return 1;
}

static __inline__ uint8_t __iCliRetVal(void)
{
    cli();
    3f46:	f8 94       	cli
    3f48:	40 e9       	ldi	r20, 0x90	; 144
    3f4a:	5f e5       	ldi	r21, 0x5F	; 95
    3f4c:	61 e0       	ldi	r22, 0x01	; 1
    3f4e:	70 e0       	ldi	r23, 0x00	; 0
    3f50:	40 93 b7 01 	sts	0x01B7, r20	; 0x8001b7 <_ZN7ns_menu7timeOutE>
    3f54:	50 93 b8 01 	sts	0x01B8, r21	; 0x8001b8 <_ZN7ns_menu7timeOutE+0x1>
    3f58:	60 93 b9 01 	sts	0x01B9, r22	; 0x8001b9 <_ZN7ns_menu7timeOutE+0x2>
    3f5c:	70 93 ba 01 	sts	0x01BA, r23	; 0x8001ba <_ZN7ns_menu7timeOutE+0x3>
    (void)__s;
}

static __inline__ void __iRestore(const  uint8_t *__s)
{
    SREG = *__s;
    3f60:	8f bf       	out	0x3f, r24	; 63
    __asm__ volatile ("" ::: "memory");
    3f62:	08 95       	ret

00003f64 <_ZN7ns_menu14CorCurTubePlusEh>:
		}
		void CorCurTubePlus(uint8_t k)
		{
			key4->autoRepeat = true;
    3f64:	e0 91 d6 01 	lds	r30, 0x01D6	; 0x8001d6 <key4>
    3f68:	f0 91 d7 01 	lds	r31, 0x01D7	; 0x8001d7 <key4+0x1>
    3f6c:	81 e0       	ldi	r24, 0x01	; 1
    3f6e:	80 83       	st	Z, r24
			//if (corCurTube_Cor < 100)
			{
				//corCurTube_Cor++;
				corCurTube_base++;
    3f70:	80 91 8e 01 	lds	r24, 0x018E	; 0x80018e <_ZN7ns_menu15corCurTube_baseE>
    3f74:	90 91 8f 01 	lds	r25, 0x018F	; 0x80018f <_ZN7ns_menu15corCurTube_baseE+0x1>
    3f78:	01 96       	adiw	r24, 0x01	; 1
    3f7a:	90 93 8f 01 	sts	0x018F, r25	; 0x80018f <_ZN7ns_menu15corCurTube_baseE+0x1>
    3f7e:	80 93 8e 01 	sts	0x018E, r24	; 0x80018e <_ZN7ns_menu15corCurTube_baseE>
				corCurTube_dlina++;
    3f82:	80 91 90 01 	lds	r24, 0x0190	; 0x800190 <_ZN7ns_menu16corCurTube_dlinaE>
    3f86:	90 91 91 01 	lds	r25, 0x0191	; 0x800191 <_ZN7ns_menu16corCurTube_dlinaE+0x1>
    3f8a:	01 96       	adiw	r24, 0x01	; 1
    3f8c:	90 93 91 01 	sts	0x0191, r25	; 0x800191 <_ZN7ns_menu16corCurTube_dlinaE+0x1>
    3f90:	80 93 90 01 	sts	0x0190, r24	; 0x800190 <_ZN7ns_menu16corCurTube_dlinaE>
				CorCurTubeSh();
    3f94:	c6 de       	rcall	.-628    	; 0x3d22 <_ZN7ns_menu12CorCurTubeShEv>
			}
			CRITICAL_SECTION { timeOut = TIMEOUT_MENU; }
    3f96:	8f b7       	in	r24, 0x3f	; 63
    return 1;
}

static __inline__ uint8_t __iCliRetVal(void)
{
    cli();
    3f98:	f8 94       	cli
    3f9a:	40 e9       	ldi	r20, 0x90	; 144
    3f9c:	5f e5       	ldi	r21, 0x5F	; 95
    3f9e:	61 e0       	ldi	r22, 0x01	; 1
    3fa0:	70 e0       	ldi	r23, 0x00	; 0
    3fa2:	40 93 b7 01 	sts	0x01B7, r20	; 0x8001b7 <_ZN7ns_menu7timeOutE>
    3fa6:	50 93 b8 01 	sts	0x01B8, r21	; 0x8001b8 <_ZN7ns_menu7timeOutE+0x1>
    3faa:	60 93 b9 01 	sts	0x01B9, r22	; 0x8001b9 <_ZN7ns_menu7timeOutE+0x2>
    3fae:	70 93 ba 01 	sts	0x01BA, r23	; 0x8001ba <_ZN7ns_menu7timeOutE+0x3>
    (void)__s;
}

static __inline__ void __iRestore(const  uint8_t *__s)
{
    SREG = *__s;
    3fb2:	8f bf       	out	0x3f, r24	; 63
    __asm__ volatile ("" ::: "memory");
    3fb4:	08 95       	ret

00003fb6 <_ZN7ns_menu19ProtectIntervalViewEv>:
			SetMode(MAIN);
		}
		// ==============================
		uint16_t tmpInterval;
		void ProtectIntervalView()
		{
    3fb6:	cf 92       	push	r12
    3fb8:	df 92       	push	r13
    3fba:	ef 92       	push	r14
    3fbc:	ff 92       	push	r15
			if (tmpInterval > 10000) tmpInterval = 10000;
    3fbe:	80 91 8c 01 	lds	r24, 0x018C	; 0x80018c <_ZN7ns_menu11tmpIntervalE>
    3fc2:	90 91 8d 01 	lds	r25, 0x018D	; 0x80018d <_ZN7ns_menu11tmpIntervalE+0x1>
    3fc6:	81 31       	cpi	r24, 0x11	; 17
    3fc8:	97 42       	sbci	r25, 0x27	; 39
    3fca:	30 f0       	brcs	.+12     	; 0x3fd8 <_ZN7ns_menu19ProtectIntervalViewEv+0x22>
    3fcc:	80 e1       	ldi	r24, 0x10	; 16
    3fce:	97 e2       	ldi	r25, 0x27	; 39
    3fd0:	90 93 8d 01 	sts	0x018D, r25	; 0x80018d <_ZN7ns_menu11tmpIntervalE+0x1>
    3fd4:	80 93 8c 01 	sts	0x018C, r24	; 0x80018c <_ZN7ns_menu11tmpIntervalE>
			scr::DigitZ(scr::SetPosition(9, 1), 5, tmpInterval );
    3fd8:	c0 90 8c 01 	lds	r12, 0x018C	; 0x80018c <_ZN7ns_menu11tmpIntervalE>
    3fdc:	d0 90 8d 01 	lds	r13, 0x018D	; 0x80018d <_ZN7ns_menu11tmpIntervalE+0x1>
    3fe0:	e1 2c       	mov	r14, r1
    3fe2:	f1 2c       	mov	r15, r1
    3fe4:	61 e0       	ldi	r22, 0x01	; 1
    3fe6:	89 e0       	ldi	r24, 0x09	; 9
    3fe8:	9a d7       	rcall	.+3892   	; 0x4f1e <_ZN6ns_lcd11SetPositionEhh>
    3fea:	a7 01       	movw	r20, r14
    3fec:	96 01       	movw	r18, r12
    3fee:	65 e0       	ldi	r22, 0x05	; 5
    3ff0:	0e 94 11 29 	call	0x5222	; 0x5222 <_ZN6ns_lcd6DigitZEhhl>
		}
    3ff4:	ff 90       	pop	r15
    3ff6:	ef 90       	pop	r14
    3ff8:	df 90       	pop	r13
    3ffa:	cf 90       	pop	r12
    3ffc:	08 95       	ret

00003ffe <_ZN7ns_menu15ProtectIntervalEh>:
		void ProtectInterval(uint8_t k)
		{
			CRITICAL_SECTION{ timeOut = 0; }
    3ffe:	8f b7       	in	r24, 0x3f	; 63
    return 1;
}

static __inline__ uint8_t __iCliRetVal(void)
{
    cli();
    4000:	f8 94       	cli
    4002:	10 92 b7 01 	sts	0x01B7, r1	; 0x8001b7 <_ZN7ns_menu7timeOutE>
    4006:	10 92 b8 01 	sts	0x01B8, r1	; 0x8001b8 <_ZN7ns_menu7timeOutE+0x1>
    400a:	10 92 b9 01 	sts	0x01B9, r1	; 0x8001b9 <_ZN7ns_menu7timeOutE+0x2>
    400e:	10 92 ba 01 	sts	0x01BA, r1	; 0x8001ba <_ZN7ns_menu7timeOutE+0x3>
    (void)__s;
}

static __inline__ void __iRestore(const  uint8_t *__s)
{
    SREG = *__s;
    4012:	8f bf       	out	0x3f, r24	; 63
			key4->autoRepeat = false;
    4014:	e0 91 d6 01 	lds	r30, 0x01D6	; 0x8001d6 <key4>
    4018:	f0 91 d7 01 	lds	r31, 0x01D7	; 0x8001d7 <key4+0x1>
    401c:	10 82       	st	Z, r1
			tmpInterval = (uint16_t)( ((uint32_t)eeprom_read_word(&ns_vg::eeProtect) * ((uint32_t)1000) / ((uint32_t)FtTimerMain)   ));
    401e:	80 ef       	ldi	r24, 0xF0	; 240
    4020:	9c e0       	ldi	r25, 0x0C	; 12
    4022:	0e 94 95 2f 	call	0x5f2a	; 0x5f2a <eeprom_read_word>
    4026:	9c 01       	movw	r18, r24
    4028:	a8 ee       	ldi	r26, 0xE8	; 232
    402a:	b3 e0       	ldi	r27, 0x03	; 3
    402c:	0e 94 f0 2c 	call	0x59e0	; 0x59e0 <__umulhisi3>
    4030:	20 ed       	ldi	r18, 0xD0	; 208
    4032:	37 e0       	ldi	r19, 0x07	; 7
    4034:	40 e0       	ldi	r20, 0x00	; 0
    4036:	50 e0       	ldi	r21, 0x00	; 0
    4038:	0e 94 b2 2c 	call	0x5964	; 0x5964 <__udivmodsi4>
    403c:	30 93 8d 01 	sts	0x018D, r19	; 0x80018d <_ZN7ns_menu11tmpIntervalE+0x1>
    4040:	20 93 8c 01 	sts	0x018C, r18	; 0x80018c <_ZN7ns_menu11tmpIntervalE>
			scr::Clear();
    4044:	40 d6       	rcall	.+3200   	; 0x4cc6 <_ZN6ns_lcd5ClearEv>
			scr::String_P(scr::SetPosition(0, 0), PSTR("") );
    4046:	60 e0       	ldi	r22, 0x00	; 0
    4048:	80 e0       	ldi	r24, 0x00	; 0
    404a:	69 d7       	rcall	.+3794   	; 0x4f1e <_ZN6ns_lcd11SetPositionEhh>
    404c:	6b e2       	ldi	r22, 0x2B	; 43
    404e:	71 e0       	ldi	r23, 0x01	; 1
    4050:	0e 94 99 28 	call	0x5132	; 0x5132 <_ZN6ns_lcd8String_PEhPKc>
			scr::String_P(scr::SetPosition(0, 1), PSTR(":") );
    4054:	61 e0       	ldi	r22, 0x01	; 1
    4056:	80 e0       	ldi	r24, 0x00	; 0
    4058:	62 d7       	rcall	.+3780   	; 0x4f1e <_ZN6ns_lcd11SetPositionEhh>
    405a:	61 e2       	ldi	r22, 0x21	; 33
    405c:	71 e0       	ldi	r23, 0x01	; 1
    405e:	0e 94 99 28 	call	0x5132	; 0x5132 <_ZN6ns_lcd8String_PEhPKc>
			ProtectIntervalView();
    4062:	a9 df       	rcall	.-174    	; 0x3fb6 <_ZN7ns_menu19ProtectIntervalViewEv>
			CRITICAL_SECTION{ timeOut = TIMEOUT_MENU; }
    4064:	8f b7       	in	r24, 0x3f	; 63
    return 1;
}

static __inline__ uint8_t __iCliRetVal(void)
{
    cli();
    4066:	f8 94       	cli
    4068:	40 e9       	ldi	r20, 0x90	; 144
    406a:	5f e5       	ldi	r21, 0x5F	; 95
    406c:	61 e0       	ldi	r22, 0x01	; 1
    406e:	70 e0       	ldi	r23, 0x00	; 0
    4070:	40 93 b7 01 	sts	0x01B7, r20	; 0x8001b7 <_ZN7ns_menu7timeOutE>
    4074:	50 93 b8 01 	sts	0x01B8, r21	; 0x8001b8 <_ZN7ns_menu7timeOutE+0x1>
    4078:	60 93 b9 01 	sts	0x01B9, r22	; 0x8001b9 <_ZN7ns_menu7timeOutE+0x2>
    407c:	70 93 ba 01 	sts	0x01BA, r23	; 0x8001ba <_ZN7ns_menu7timeOutE+0x3>
    (void)__s;
}

static __inline__ void __iRestore(const  uint8_t *__s)
{
    SREG = *__s;
    4080:	8f bf       	out	0x3f, r24	; 63
    __asm__ volatile ("" ::: "memory");
    4082:	08 95       	ret

00004084 <_ZN7ns_menu17ProtectIntervalPlEh>:
			CRITICAL_SECTION{ timeOut = 0; }
			SetMode(MENU_SELECT);
		}
		void ProtectIntervalPl(uint8_t k)
		{
			key4->autoRepeat = true;
    4084:	e0 91 d6 01 	lds	r30, 0x01D6	; 0x8001d6 <key4>
    4088:	f0 91 d7 01 	lds	r31, 0x01D7	; 0x8001d7 <key4+0x1>
    408c:	81 e0       	ldi	r24, 0x01	; 1
    408e:	80 83       	st	Z, r24
			if (tmpInterval < 10000) tmpInterval++;
    4090:	80 91 8c 01 	lds	r24, 0x018C	; 0x80018c <_ZN7ns_menu11tmpIntervalE>
    4094:	90 91 8d 01 	lds	r25, 0x018D	; 0x80018d <_ZN7ns_menu11tmpIntervalE+0x1>
    4098:	80 31       	cpi	r24, 0x10	; 16
    409a:	27 e2       	ldi	r18, 0x27	; 39
    409c:	92 07       	cpc	r25, r18
    409e:	28 f4       	brcc	.+10     	; 0x40aa <_ZN7ns_menu17ProtectIntervalPlEh+0x26>
    40a0:	01 96       	adiw	r24, 0x01	; 1
    40a2:	90 93 8d 01 	sts	0x018D, r25	; 0x80018d <_ZN7ns_menu11tmpIntervalE+0x1>
    40a6:	80 93 8c 01 	sts	0x018C, r24	; 0x80018c <_ZN7ns_menu11tmpIntervalE>
			ProtectIntervalView();
    40aa:	85 df       	rcall	.-246    	; 0x3fb6 <_ZN7ns_menu19ProtectIntervalViewEv>
			CRITICAL_SECTION{ timeOut = TIMEOUT_MENU; }
    40ac:	8f b7       	in	r24, 0x3f	; 63
    return 1;
}

static __inline__ uint8_t __iCliRetVal(void)
{
    cli();
    40ae:	f8 94       	cli
    40b0:	40 e9       	ldi	r20, 0x90	; 144
    40b2:	5f e5       	ldi	r21, 0x5F	; 95
    40b4:	61 e0       	ldi	r22, 0x01	; 1
    40b6:	70 e0       	ldi	r23, 0x00	; 0
    40b8:	40 93 b7 01 	sts	0x01B7, r20	; 0x8001b7 <_ZN7ns_menu7timeOutE>
    40bc:	50 93 b8 01 	sts	0x01B8, r21	; 0x8001b8 <_ZN7ns_menu7timeOutE+0x1>
    40c0:	60 93 b9 01 	sts	0x01B9, r22	; 0x8001b9 <_ZN7ns_menu7timeOutE+0x2>
    40c4:	70 93 ba 01 	sts	0x01BA, r23	; 0x8001ba <_ZN7ns_menu7timeOutE+0x3>
    (void)__s;
}

static __inline__ void __iRestore(const  uint8_t *__s)
{
    SREG = *__s;
    40c8:	8f bf       	out	0x3f, r24	; 63
    __asm__ volatile ("" ::: "memory");
    40ca:	08 95       	ret

000040cc <_ZN7ns_menu17ProtectIntervalMnEh>:
		}
		void ProtectIntervalMn(uint8_t k)
		{
			key4->autoRepeat = true;
    40cc:	e0 91 d6 01 	lds	r30, 0x01D6	; 0x8001d6 <key4>
    40d0:	f0 91 d7 01 	lds	r31, 0x01D7	; 0x8001d7 <key4+0x1>
    40d4:	81 e0       	ldi	r24, 0x01	; 1
    40d6:	80 83       	st	Z, r24
			if (tmpInterval > 10) tmpInterval--;
    40d8:	80 91 8c 01 	lds	r24, 0x018C	; 0x80018c <_ZN7ns_menu11tmpIntervalE>
    40dc:	90 91 8d 01 	lds	r25, 0x018D	; 0x80018d <_ZN7ns_menu11tmpIntervalE+0x1>
    40e0:	8b 30       	cpi	r24, 0x0B	; 11
    40e2:	91 05       	cpc	r25, r1
    40e4:	28 f0       	brcs	.+10     	; 0x40f0 <_ZN7ns_menu17ProtectIntervalMnEh+0x24>
    40e6:	01 97       	sbiw	r24, 0x01	; 1
    40e8:	90 93 8d 01 	sts	0x018D, r25	; 0x80018d <_ZN7ns_menu11tmpIntervalE+0x1>
    40ec:	80 93 8c 01 	sts	0x018C, r24	; 0x80018c <_ZN7ns_menu11tmpIntervalE>
			ProtectIntervalView();
    40f0:	62 df       	rcall	.-316    	; 0x3fb6 <_ZN7ns_menu19ProtectIntervalViewEv>
			CRITICAL_SECTION{ timeOut = TIMEOUT_MENU; }
    40f2:	8f b7       	in	r24, 0x3f	; 63
    return 1;
}

static __inline__ uint8_t __iCliRetVal(void)
{
    cli();
    40f4:	f8 94       	cli
    40f6:	40 e9       	ldi	r20, 0x90	; 144
    40f8:	5f e5       	ldi	r21, 0x5F	; 95
    40fa:	61 e0       	ldi	r22, 0x01	; 1
    40fc:	70 e0       	ldi	r23, 0x00	; 0
    40fe:	40 93 b7 01 	sts	0x01B7, r20	; 0x8001b7 <_ZN7ns_menu7timeOutE>
    4102:	50 93 b8 01 	sts	0x01B8, r21	; 0x8001b8 <_ZN7ns_menu7timeOutE+0x1>
    4106:	60 93 b9 01 	sts	0x01B9, r22	; 0x8001b9 <_ZN7ns_menu7timeOutE+0x2>
    410a:	70 93 ba 01 	sts	0x01BA, r23	; 0x8001ba <_ZN7ns_menu7timeOutE+0x3>
    (void)__s;
}

static __inline__ void __iRestore(const  uint8_t *__s)
{
    SREG = *__s;
    410e:	8f bf       	out	0x3f, r24	; 63
    __asm__ volatile ("" ::: "memory");
    4110:	08 95       	ret

00004112 <_ZN7ns_menu14TmIntegralViewEv>:
			SetMode(MENU_SELECT);
		}
		// ==============================
		uint16_t tmIntegral;
		void TmIntegralView()
		{
    4112:	cf 92       	push	r12
    4114:	df 92       	push	r13
    4116:	ef 92       	push	r14
    4118:	ff 92       	push	r15
			if (tmpInterval > 4000) tmIntegral = 4000;
    411a:	80 91 8c 01 	lds	r24, 0x018C	; 0x80018c <_ZN7ns_menu11tmpIntervalE>
    411e:	90 91 8d 01 	lds	r25, 0x018D	; 0x80018d <_ZN7ns_menu11tmpIntervalE+0x1>
    4122:	81 3a       	cpi	r24, 0xA1	; 161
    4124:	9f 40       	sbci	r25, 0x0F	; 15
    4126:	30 f0       	brcs	.+12     	; 0x4134 <_ZN7ns_menu14TmIntegralViewEv+0x22>
    4128:	80 ea       	ldi	r24, 0xA0	; 160
    412a:	9f e0       	ldi	r25, 0x0F	; 15
    412c:	90 93 8b 01 	sts	0x018B, r25	; 0x80018b <_ZN7ns_menu10tmIntegralE+0x1>
    4130:	80 93 8a 01 	sts	0x018A, r24	; 0x80018a <_ZN7ns_menu10tmIntegralE>
			scr::DigitZ(scr::SetPosition(10, 1), 4, tmIntegral);
    4134:	c0 90 8a 01 	lds	r12, 0x018A	; 0x80018a <_ZN7ns_menu10tmIntegralE>
    4138:	d0 90 8b 01 	lds	r13, 0x018B	; 0x80018b <_ZN7ns_menu10tmIntegralE+0x1>
    413c:	e1 2c       	mov	r14, r1
    413e:	f1 2c       	mov	r15, r1
    4140:	61 e0       	ldi	r22, 0x01	; 1
    4142:	8a e0       	ldi	r24, 0x0A	; 10
    4144:	ec d6       	rcall	.+3544   	; 0x4f1e <_ZN6ns_lcd11SetPositionEhh>
    4146:	a7 01       	movw	r20, r14
    4148:	96 01       	movw	r18, r12
    414a:	64 e0       	ldi	r22, 0x04	; 4
    414c:	0e 94 11 29 	call	0x5222	; 0x5222 <_ZN6ns_lcd6DigitZEhhl>
		}
    4150:	ff 90       	pop	r15
    4152:	ef 90       	pop	r14
    4154:	df 90       	pop	r13
    4156:	cf 90       	pop	r12
    4158:	08 95       	ret

0000415a <_ZN7ns_menu10TmIntegralEh>:
		void TmIntegral(uint8_t k)
		{
			CRITICAL_SECTION { timeOut = 0; }
    415a:	8f b7       	in	r24, 0x3f	; 63
    return 1;
}

static __inline__ uint8_t __iCliRetVal(void)
{
    cli();
    415c:	f8 94       	cli
    415e:	10 92 b7 01 	sts	0x01B7, r1	; 0x8001b7 <_ZN7ns_menu7timeOutE>
    4162:	10 92 b8 01 	sts	0x01B8, r1	; 0x8001b8 <_ZN7ns_menu7timeOutE+0x1>
    4166:	10 92 b9 01 	sts	0x01B9, r1	; 0x8001b9 <_ZN7ns_menu7timeOutE+0x2>
    416a:	10 92 ba 01 	sts	0x01BA, r1	; 0x8001ba <_ZN7ns_menu7timeOutE+0x3>
    (void)__s;
}

static __inline__ void __iRestore(const  uint8_t *__s)
{
    SREG = *__s;
    416e:	8f bf       	out	0x3f, r24	; 63
			key4->autoRepeat = false;
    4170:	e0 91 d6 01 	lds	r30, 0x01D6	; 0x8001d6 <key4>
    4174:	f0 91 d7 01 	lds	r31, 0x01D7	; 0x8001d7 <key4+0x1>
    4178:	10 82       	st	Z, r1
			tmIntegral =  (uint16_t)( ((uint32_t)eeprom_read_word(&ns_vg::eeInteral)) * ((uint32_t)1000) / ((uint32_t)FtTimerMain) );
    417a:	8e ee       	ldi	r24, 0xEE	; 238
    417c:	9c e0       	ldi	r25, 0x0C	; 12
    417e:	0e 94 95 2f 	call	0x5f2a	; 0x5f2a <eeprom_read_word>
    4182:	9c 01       	movw	r18, r24
    4184:	a8 ee       	ldi	r26, 0xE8	; 232
    4186:	b3 e0       	ldi	r27, 0x03	; 3
    4188:	0e 94 f0 2c 	call	0x59e0	; 0x59e0 <__umulhisi3>
    418c:	20 ed       	ldi	r18, 0xD0	; 208
    418e:	37 e0       	ldi	r19, 0x07	; 7
    4190:	40 e0       	ldi	r20, 0x00	; 0
    4192:	50 e0       	ldi	r21, 0x00	; 0
    4194:	0e 94 b2 2c 	call	0x5964	; 0x5964 <__udivmodsi4>
    4198:	30 93 8b 01 	sts	0x018B, r19	; 0x80018b <_ZN7ns_menu10tmIntegralE+0x1>
    419c:	20 93 8a 01 	sts	0x018A, r18	; 0x80018a <_ZN7ns_menu10tmIntegralE>
			scr	::Clear();
    41a0:	92 d5       	rcall	.+2852   	; 0x4cc6 <_ZN6ns_lcd5ClearEv>
			scr::String_P(scr::SetPosition(0, 0), PSTR(" .") );
    41a2:	60 e0       	ldi	r22, 0x00	; 0
    41a4:	80 e0       	ldi	r24, 0x00	; 0
    41a6:	bb d6       	rcall	.+3446   	; 0x4f1e <_ZN6ns_lcd11SetPositionEhh>
    41a8:	64 e1       	ldi	r22, 0x14	; 20
    41aa:	71 e0       	ldi	r23, 0x01	; 1
    41ac:	c2 d7       	rcall	.+3972   	; 0x5132 <_ZN6ns_lcd8String_PEhPKc>
			scr::String_P(scr::SetPosition(0, 1), PSTR(": ") );
    41ae:	61 e0       	ldi	r22, 0x01	; 1
    41b0:	80 e0       	ldi	r24, 0x00	; 0
    41b2:	b5 d6       	rcall	.+3434   	; 0x4f1e <_ZN6ns_lcd11SetPositionEhh>
    41b4:	69 e0       	ldi	r22, 0x09	; 9
    41b6:	71 e0       	ldi	r23, 0x01	; 1
    41b8:	bc d7       	rcall	.+3960   	; 0x5132 <_ZN6ns_lcd8String_PEhPKc>
			TmIntegralView();
    41ba:	ab df       	rcall	.-170    	; 0x4112 <_ZN7ns_menu14TmIntegralViewEv>
			CRITICAL_SECTION{ timeOut = TIMEOUT_MENU; }
    41bc:	8f b7       	in	r24, 0x3f	; 63
    return 1;
}

static __inline__ uint8_t __iCliRetVal(void)
{
    cli();
    41be:	f8 94       	cli
    41c0:	40 e9       	ldi	r20, 0x90	; 144
    41c2:	5f e5       	ldi	r21, 0x5F	; 95
    41c4:	61 e0       	ldi	r22, 0x01	; 1
    41c6:	70 e0       	ldi	r23, 0x00	; 0
    41c8:	40 93 b7 01 	sts	0x01B7, r20	; 0x8001b7 <_ZN7ns_menu7timeOutE>
    41cc:	50 93 b8 01 	sts	0x01B8, r21	; 0x8001b8 <_ZN7ns_menu7timeOutE+0x1>
    41d0:	60 93 b9 01 	sts	0x01B9, r22	; 0x8001b9 <_ZN7ns_menu7timeOutE+0x2>
    41d4:	70 93 ba 01 	sts	0x01BA, r23	; 0x8001ba <_ZN7ns_menu7timeOutE+0x3>
    (void)__s;
}

static __inline__ void __iRestore(const  uint8_t *__s)
{
    SREG = *__s;
    41d8:	8f bf       	out	0x3f, r24	; 63
    __asm__ volatile ("" ::: "memory");
    41da:	08 95       	ret

000041dc <_ZN7ns_menu12TmIntegralMnEh>:
			ns_line::sensors[4]->porog = di;
			SetMode(MENU_SELECT);
		}
		void TmIntegralMn(uint8_t k)
		{
			key4->autoRepeat = true;
    41dc:	e0 91 d6 01 	lds	r30, 0x01D6	; 0x8001d6 <key4>
    41e0:	f0 91 d7 01 	lds	r31, 0x01D7	; 0x8001d7 <key4+0x1>
    41e4:	81 e0       	ldi	r24, 0x01	; 1
    41e6:	80 83       	st	Z, r24
			if (tmIntegral > 1) tmIntegral--;
    41e8:	80 91 8a 01 	lds	r24, 0x018A	; 0x80018a <_ZN7ns_menu10tmIntegralE>
    41ec:	90 91 8b 01 	lds	r25, 0x018B	; 0x80018b <_ZN7ns_menu10tmIntegralE+0x1>
    41f0:	82 30       	cpi	r24, 0x02	; 2
    41f2:	91 05       	cpc	r25, r1
    41f4:	28 f0       	brcs	.+10     	; 0x4200 <_ZN7ns_menu12TmIntegralMnEh+0x24>
    41f6:	01 97       	sbiw	r24, 0x01	; 1
    41f8:	90 93 8b 01 	sts	0x018B, r25	; 0x80018b <_ZN7ns_menu10tmIntegralE+0x1>
    41fc:	80 93 8a 01 	sts	0x018A, r24	; 0x80018a <_ZN7ns_menu10tmIntegralE>
			TmIntegralView();
    4200:	88 df       	rcall	.-240    	; 0x4112 <_ZN7ns_menu14TmIntegralViewEv>
			CRITICAL_SECTION{ timeOut = TIMEOUT_MENU; }
    4202:	8f b7       	in	r24, 0x3f	; 63
    return 1;
}

static __inline__ uint8_t __iCliRetVal(void)
{
    cli();
    4204:	f8 94       	cli
    4206:	40 e9       	ldi	r20, 0x90	; 144
    4208:	5f e5       	ldi	r21, 0x5F	; 95
    420a:	61 e0       	ldi	r22, 0x01	; 1
    420c:	70 e0       	ldi	r23, 0x00	; 0
    420e:	40 93 b7 01 	sts	0x01B7, r20	; 0x8001b7 <_ZN7ns_menu7timeOutE>
    4212:	50 93 b8 01 	sts	0x01B8, r21	; 0x8001b8 <_ZN7ns_menu7timeOutE+0x1>
    4216:	60 93 b9 01 	sts	0x01B9, r22	; 0x8001b9 <_ZN7ns_menu7timeOutE+0x2>
    421a:	70 93 ba 01 	sts	0x01BA, r23	; 0x8001ba <_ZN7ns_menu7timeOutE+0x3>
    (void)__s;
}

static __inline__ void __iRestore(const  uint8_t *__s)
{
    SREG = *__s;
    421e:	8f bf       	out	0x3f, r24	; 63
    __asm__ volatile ("" ::: "memory");
    4220:	08 95       	ret

00004222 <_ZN7ns_menu12TmIntegralPlEh>:
		}
		void TmIntegralPl(uint8_t k)
		{
			key4->autoRepeat = true;
    4222:	e0 91 d6 01 	lds	r30, 0x01D6	; 0x8001d6 <key4>
    4226:	f0 91 d7 01 	lds	r31, 0x01D7	; 0x8001d7 <key4+0x1>
    422a:	81 e0       	ldi	r24, 0x01	; 1
    422c:	80 83       	st	Z, r24
			if (tmIntegral < 4000) tmIntegral++;
    422e:	80 91 8a 01 	lds	r24, 0x018A	; 0x80018a <_ZN7ns_menu10tmIntegralE>
    4232:	90 91 8b 01 	lds	r25, 0x018B	; 0x80018b <_ZN7ns_menu10tmIntegralE+0x1>
    4236:	80 3a       	cpi	r24, 0xA0	; 160
    4238:	2f e0       	ldi	r18, 0x0F	; 15
    423a:	92 07       	cpc	r25, r18
    423c:	28 f4       	brcc	.+10     	; 0x4248 <_ZN7ns_menu12TmIntegralPlEh+0x26>
    423e:	01 96       	adiw	r24, 0x01	; 1
    4240:	90 93 8b 01 	sts	0x018B, r25	; 0x80018b <_ZN7ns_menu10tmIntegralE+0x1>
    4244:	80 93 8a 01 	sts	0x018A, r24	; 0x80018a <_ZN7ns_menu10tmIntegralE>
			TmIntegralView();
    4248:	64 df       	rcall	.-312    	; 0x4112 <_ZN7ns_menu14TmIntegralViewEv>
			CRITICAL_SECTION{ timeOut = TIMEOUT_MENU; }
    424a:	8f b7       	in	r24, 0x3f	; 63
    return 1;
}

static __inline__ uint8_t __iCliRetVal(void)
{
    cli();
    424c:	f8 94       	cli
    424e:	40 e9       	ldi	r20, 0x90	; 144
    4250:	5f e5       	ldi	r21, 0x5F	; 95
    4252:	61 e0       	ldi	r22, 0x01	; 1
    4254:	70 e0       	ldi	r23, 0x00	; 0
    4256:	40 93 b7 01 	sts	0x01B7, r20	; 0x8001b7 <_ZN7ns_menu7timeOutE>
    425a:	50 93 b8 01 	sts	0x01B8, r21	; 0x8001b8 <_ZN7ns_menu7timeOutE+0x1>
    425e:	60 93 b9 01 	sts	0x01B9, r22	; 0x8001b9 <_ZN7ns_menu7timeOutE+0x2>
    4262:	70 93 ba 01 	sts	0x01BA, r23	; 0x8001ba <_ZN7ns_menu7timeOutE+0x3>
    (void)__s;
}

static __inline__ void __iRestore(const  uint8_t *__s)
{
    SREG = *__s;
    4266:	8f bf       	out	0x3f, r24	; 63
    __asm__ volatile ("" ::: "memory");
    4268:	08 95       	ret

0000426a <_ZN7ns_menu12CorSpeedViewEv>:
		}
		// ==============================
		int8_t corSpeed;
		void CorSpeedView()
		{
    426a:	cf 92       	push	r12
    426c:	df 92       	push	r13
    426e:	ef 92       	push	r14
    4270:	ff 92       	push	r15
			if (corSpeed < -120) corSpeed = -120;
    4272:	80 91 89 01 	lds	r24, 0x0189	; 0x800189 <_ZN7ns_menu8corSpeedE>
    4276:	88 38       	cpi	r24, 0x88	; 136
    4278:	24 f4       	brge	.+8      	; 0x4282 <_ZN7ns_menu12CorSpeedViewEv+0x18>
    427a:	88 e8       	ldi	r24, 0x88	; 136
    427c:	80 93 89 01 	sts	0x0189, r24	; 0x800189 <_ZN7ns_menu8corSpeedE>
    4280:	05 c0       	rjmp	.+10     	; 0x428c <_ZN7ns_menu12CorSpeedViewEv+0x22>
			if (corSpeed >  120) corSpeed =  120;
    4282:	89 37       	cpi	r24, 0x79	; 121
    4284:	1c f0       	brlt	.+6      	; 0x428c <_ZN7ns_menu12CorSpeedViewEv+0x22>
    4286:	88 e7       	ldi	r24, 0x78	; 120
    4288:	80 93 89 01 	sts	0x0189, r24	; 0x800189 <_ZN7ns_menu8corSpeedE>
			scr::DigitZ(scr::SetPosition(9, 1), 4, corSpeed);
    428c:	c0 90 89 01 	lds	r12, 0x0189	; 0x800189 <_ZN7ns_menu8corSpeedE>
    4290:	0c 2c       	mov	r0, r12
    4292:	00 0c       	add	r0, r0
    4294:	dd 08       	sbc	r13, r13
    4296:	ee 08       	sbc	r14, r14
    4298:	ff 08       	sbc	r15, r15
    429a:	61 e0       	ldi	r22, 0x01	; 1
    429c:	89 e0       	ldi	r24, 0x09	; 9
    429e:	3f d6       	rcall	.+3198   	; 0x4f1e <_ZN6ns_lcd11SetPositionEhh>
    42a0:	a7 01       	movw	r20, r14
    42a2:	96 01       	movw	r18, r12
    42a4:	64 e0       	ldi	r22, 0x04	; 4
    42a6:	bd d7       	rcall	.+3962   	; 0x5222 <_ZN6ns_lcd6DigitZEhhl>
		}
    42a8:	ff 90       	pop	r15
    42aa:	ef 90       	pop	r14
    42ac:	df 90       	pop	r13
    42ae:	cf 90       	pop	r12
    42b0:	08 95       	ret

000042b2 <_ZN7ns_menu8CorSpeedEh>:
		void CorSpeed(uint8_t k)
		{
			CRITICAL_SECTION { timeOut = TIMEOUT_MENU; }
    42b2:	8f b7       	in	r24, 0x3f	; 63
    return 1;
}

static __inline__ uint8_t __iCliRetVal(void)
{
    cli();
    42b4:	f8 94       	cli
    42b6:	40 e9       	ldi	r20, 0x90	; 144
    42b8:	5f e5       	ldi	r21, 0x5F	; 95
    42ba:	61 e0       	ldi	r22, 0x01	; 1
    42bc:	70 e0       	ldi	r23, 0x00	; 0
    42be:	40 93 b7 01 	sts	0x01B7, r20	; 0x8001b7 <_ZN7ns_menu7timeOutE>
    42c2:	50 93 b8 01 	sts	0x01B8, r21	; 0x8001b8 <_ZN7ns_menu7timeOutE+0x1>
    42c6:	60 93 b9 01 	sts	0x01B9, r22	; 0x8001b9 <_ZN7ns_menu7timeOutE+0x2>
    42ca:	70 93 ba 01 	sts	0x01BA, r23	; 0x8001ba <_ZN7ns_menu7timeOutE+0x3>
    (void)__s;
}

static __inline__ void __iRestore(const  uint8_t *__s)
{
    SREG = *__s;
    42ce:	8f bf       	out	0x3f, r24	; 63
			key4->autoRepeat = false;
    42d0:	e0 91 d6 01 	lds	r30, 0x01D6	; 0x8001d6 <key4>
    42d4:	f0 91 d7 01 	lds	r31, 0x01D7	; 0x8001d7 <key4+0x1>
    42d8:	10 82       	st	Z, r1
			corSpeed = (int8_t)(eeprom_read_byte(&ns_vg::eeCorSpeed) );
    42da:	8d ee       	ldi	r24, 0xED	; 237
    42dc:	9c e0       	ldi	r25, 0x0C	; 12
    42de:	0e 94 8d 2f 	call	0x5f1a	; 0x5f1a <eeprom_read_byte>
    42e2:	80 93 89 01 	sts	0x0189, r24	; 0x800189 <_ZN7ns_menu8corSpeedE>
			scr::Clear();
    42e6:	ef d4       	rcall	.+2526   	; 0x4cc6 <_ZN6ns_lcd5ClearEv>
			scr::String_P(scr::SetPosition(0, 0), PSTR("") );
    42e8:	60 e0       	ldi	r22, 0x00	; 0
    42ea:	80 e0       	ldi	r24, 0x00	; 0
    42ec:	18 d6       	rcall	.+3120   	; 0x4f1e <_ZN6ns_lcd11SetPositionEhh>
    42ee:	6f ef       	ldi	r22, 0xFF	; 255
    42f0:	70 e0       	ldi	r23, 0x00	; 0
    42f2:	1f d7       	rcall	.+3646   	; 0x5132 <_ZN6ns_lcd8String_PEhPKc>
			scr::String_P(scr::SetPosition(0, 1), PSTR(":") );
    42f4:	61 e0       	ldi	r22, 0x01	; 1
    42f6:	80 e0       	ldi	r24, 0x00	; 0
    42f8:	12 d6       	rcall	.+3108   	; 0x4f1e <_ZN6ns_lcd11SetPositionEhh>
    42fa:	65 ef       	ldi	r22, 0xF5	; 245
    42fc:	70 e0       	ldi	r23, 0x00	; 0
    42fe:	19 d7       	rcall	.+3634   	; 0x5132 <_ZN6ns_lcd8String_PEhPKc>
			CorSpeedView();
    4300:	b4 cf       	rjmp	.-152    	; 0x426a <_ZN7ns_menu12CorSpeedViewEv>
    4302:	08 95       	ret

00004304 <_ZN7ns_menu10CorSpeedMnEh>:
			key4->autoRepeat = false;
			SetMode(MENU_SELECT);
		}
		void CorSpeedMn(uint8_t k)
		{
			CRITICAL_SECTION { timeOut = TIMEOUT_MENU; }
    4304:	8f b7       	in	r24, 0x3f	; 63
    return 1;
}

static __inline__ uint8_t __iCliRetVal(void)
{
    cli();
    4306:	f8 94       	cli
    4308:	40 e9       	ldi	r20, 0x90	; 144
    430a:	5f e5       	ldi	r21, 0x5F	; 95
    430c:	61 e0       	ldi	r22, 0x01	; 1
    430e:	70 e0       	ldi	r23, 0x00	; 0
    4310:	40 93 b7 01 	sts	0x01B7, r20	; 0x8001b7 <_ZN7ns_menu7timeOutE>
    4314:	50 93 b8 01 	sts	0x01B8, r21	; 0x8001b8 <_ZN7ns_menu7timeOutE+0x1>
    4318:	60 93 b9 01 	sts	0x01B9, r22	; 0x8001b9 <_ZN7ns_menu7timeOutE+0x2>
    431c:	70 93 ba 01 	sts	0x01BA, r23	; 0x8001ba <_ZN7ns_menu7timeOutE+0x3>
    (void)__s;
}

static __inline__ void __iRestore(const  uint8_t *__s)
{
    SREG = *__s;
    4320:	8f bf       	out	0x3f, r24	; 63
			key4->autoRepeat = true;
    4322:	e0 91 d6 01 	lds	r30, 0x01D6	; 0x8001d6 <key4>
    4326:	f0 91 d7 01 	lds	r31, 0x01D7	; 0x8001d7 <key4+0x1>
    432a:	81 e0       	ldi	r24, 0x01	; 1
    432c:	80 83       	st	Z, r24
			if (corSpeed > -120) corSpeed--;
    432e:	80 91 89 01 	lds	r24, 0x0189	; 0x800189 <_ZN7ns_menu8corSpeedE>
    4332:	89 38       	cpi	r24, 0x89	; 137
    4334:	1c f0       	brlt	.+6      	; 0x433c <_ZN7ns_menu10CorSpeedMnEh+0x38>
    4336:	81 50       	subi	r24, 0x01	; 1
    4338:	80 93 89 01 	sts	0x0189, r24	; 0x800189 <_ZN7ns_menu8corSpeedE>
			CorSpeedView();
    433c:	96 cf       	rjmp	.-212    	; 0x426a <_ZN7ns_menu12CorSpeedViewEv>
    433e:	08 95       	ret

00004340 <_ZN7ns_menu10CorSpeedPlEh>:
		}
		void CorSpeedPl(uint8_t k)
		{
			CRITICAL_SECTION { timeOut = TIMEOUT_MENU; }
    4340:	8f b7       	in	r24, 0x3f	; 63
    return 1;
}

static __inline__ uint8_t __iCliRetVal(void)
{
    cli();
    4342:	f8 94       	cli
    4344:	40 e9       	ldi	r20, 0x90	; 144
    4346:	5f e5       	ldi	r21, 0x5F	; 95
    4348:	61 e0       	ldi	r22, 0x01	; 1
    434a:	70 e0       	ldi	r23, 0x00	; 0
    434c:	40 93 b7 01 	sts	0x01B7, r20	; 0x8001b7 <_ZN7ns_menu7timeOutE>
    4350:	50 93 b8 01 	sts	0x01B8, r21	; 0x8001b8 <_ZN7ns_menu7timeOutE+0x1>
    4354:	60 93 b9 01 	sts	0x01B9, r22	; 0x8001b9 <_ZN7ns_menu7timeOutE+0x2>
    4358:	70 93 ba 01 	sts	0x01BA, r23	; 0x8001ba <_ZN7ns_menu7timeOutE+0x3>
    (void)__s;
}

static __inline__ void __iRestore(const  uint8_t *__s)
{
    SREG = *__s;
    435c:	8f bf       	out	0x3f, r24	; 63
			key4->autoRepeat = true;
    435e:	e0 91 d6 01 	lds	r30, 0x01D6	; 0x8001d6 <key4>
    4362:	f0 91 d7 01 	lds	r31, 0x01D7	; 0x8001d7 <key4+0x1>
    4366:	81 e0       	ldi	r24, 0x01	; 1
    4368:	80 83       	st	Z, r24
			if (corSpeed < 120) corSpeed++;
    436a:	80 91 89 01 	lds	r24, 0x0189	; 0x800189 <_ZN7ns_menu8corSpeedE>
    436e:	88 37       	cpi	r24, 0x78	; 120
    4370:	1c f4       	brge	.+6      	; 0x4378 <_ZN7ns_menu10CorSpeedPlEh+0x38>
    4372:	8f 5f       	subi	r24, 0xFF	; 255
    4374:	80 93 89 01 	sts	0x0189, r24	; 0x800189 <_ZN7ns_menu8corSpeedE>
			CorSpeedView();
    4378:	78 cf       	rjmp	.-272    	; 0x426a <_ZN7ns_menu12CorSpeedViewEv>
    437a:	08 95       	ret

0000437c <_ZN9ns_module4InitEv>:
{
	uint16_t mSec = 0;
	uint8_t sec = 0;
	void Init()
	{
		ns_archive::Init();
    437c:	0e 94 77 02 	call	0x4ee	; 0x4ee <_ZN10ns_archive4InitEv>
		ns_menu::Init();
    4380:	0e 94 5a 17 	call	0x2eb4	; 0x2eb4 <_ZN7ns_menu4InitEv>
		ns_line::Init();
    4384:	0c 94 f0 03 	jmp	0x7e0	; 0x7e0 <_ZN7ns_line4InitEv>
    4388:	08 95       	ret

0000438a <_ZN9ns_module17InterruptLcdTimerEv>:
	}
	void InterruptLcdTimer()
	{
		ns_menu::Interrupt();
    438a:	0e 94 ab 17 	call	0x2f56	; 0x2f56 <_ZN7ns_menu9InterruptEv>
		ns_archive::Interrupt();
    438e:	0c 94 a1 03 	jmp	0x742	; 0x742 <_ZN10ns_archive9InterruptEv>
    4392:	08 95       	ret

00004394 <_ZN9ns_module18InterruptMainTimerEv>:
	}
	void InterruptMainTimer()
	{
		ns_line::Interrupt();
    4394:	0c 94 9a 05 	jmp	0xb34	; 0xb34 <_ZN7ns_line9InterruptEv>
    4398:	08 95       	ret

0000439a <_ZN8ns_clock5StartEv>:
	uint8_t level_sda;
	// ==============================
	//          I2C
	void Start()  //    
	{
		SDA_SCLK_HI;
    439a:	df 9a       	sbi	0x1b, 7	; 27
    439c:	de 9a       	sbi	0x1b, 6	; 27
		__delay_us(clc_zad);	//  
    439e:	85 e1       	ldi	r24, 0x15	; 21
    43a0:	8a 95       	dec	r24
    43a2:	f1 f7       	brne	.-4      	; 0x43a0 <_ZN8ns_clock5StartEv+0x6>
    43a4:	00 00       	nop
		SDA_WR = 0;				//  "0"    I2C
    43a6:	de 98       	cbi	0x1b, 6	; 27
		__delay_us(clc_zad);	//  
    43a8:	85 e1       	ldi	r24, 0x15	; 21
    43aa:	8a 95       	dec	r24
    43ac:	f1 f7       	brne	.-4      	; 0x43aa <_ZN8ns_clock5StartEv+0x10>
    43ae:	00 00       	nop
		SCLK_WR = 0;			//  "0"    I2C
    43b0:	df 98       	cbi	0x1b, 7	; 27
    43b2:	08 95       	ret

000043b4 <_ZN8ns_clock4StopEv>:
	}
	void Stop()						//    
	{
		SDA_WR = 0;				//  "0"    I2C
    43b4:	de 98       	cbi	0x1b, 6	; 27
		__delay_us(clc_zad);	//  
    43b6:	85 e1       	ldi	r24, 0x15	; 21
    43b8:	8a 95       	dec	r24
    43ba:	f1 f7       	brne	.-4      	; 0x43b8 <_ZN8ns_clock4StopEv+0x4>
    43bc:	00 00       	nop
		SCLK_WR = 1;			//  "1"      I2C
    43be:	df 9a       	sbi	0x1b, 7	; 27
		__delay_us(clc_zad);	//  
    43c0:	85 e1       	ldi	r24, 0x15	; 21
    43c2:	8a 95       	dec	r24
    43c4:	f1 f7       	brne	.-4      	; 0x43c2 <_ZN8ns_clock4StopEv+0xe>
    43c6:	00 00       	nop
		SDA_WR = 1;				//  "1"    I2C
    43c8:	de 9a       	sbi	0x1b, 6	; 27
    43ca:	08 95       	ret

000043cc <_ZN8ns_clock5ClockEv>:
	}
	void Clock()				//   
	{								//   SDA    level_sda
		SCLK_WR = 1;			//  "1"      I2C
    43cc:	df 9a       	sbi	0x1b, 7	; 27
		level_sda = 1;			//      eeprom level_sda=1
    43ce:	81 e0       	ldi	r24, 0x01	; 1
    43d0:	80 93 d5 01 	sts	0x01D5, r24	; 0x8001d5 <_ZN8ns_clock9level_sdaE>
		__delay_us(clc_zad);	//  
    43d4:	85 e1       	ldi	r24, 0x15	; 21
    43d6:	8a 95       	dec	r24
    43d8:	f1 f7       	brne	.-4      	; 0x43d6 <_ZN8ns_clock5ClockEv+0xa>
    43da:	00 00       	nop
		if (!SDA_RD)
    43dc:	ce 9b       	sbis	0x19, 6	; 25
			level_sda = 0;		// SDA = 0,     eeprom
    43de:	10 92 d5 01 	sts	0x01D5, r1	; 0x8001d5 <_ZN8ns_clock9level_sdaE>
		SCLK_WR = 0;			//  "0"    I2C
    43e2:	df 98       	cbi	0x1b, 7	; 27
		__delay_us(clc_zad);	//  
    43e4:	85 e1       	ldi	r24, 0x15	; 21
    43e6:	8a 95       	dec	r24
    43e8:	f1 f7       	brne	.-4      	; 0x43e6 <_ZN8ns_clock5ClockEv+0x1a>
    43ea:	00 00       	nop
    43ec:	08 95       	ret

000043ee <_ZN8ns_clock3AckEv>:
	}
	void Ack()						//   ack -   
	{
		SDA_WR = 0;					//  "0"    I2C
    43ee:	de 98       	cbi	0x1b, 6	; 27
		Clock();					//   
    43f0:	ed df       	rcall	.-38     	; 0x43cc <_ZN8ns_clock5ClockEv>
		SDA_WR = 1;					//  "1"    I2C
    43f2:	de 9a       	sbi	0x1b, 6	; 27
    43f4:	08 95       	ret

000043f6 <_ZN8ns_clock4NackEv>:
	}
	void Nack()						//   nack -   
	{
		SDA_WR = 1;					//  "1"    I2C
    43f6:	de 9a       	sbi	0x1b, 6	; 27
		Clock();					//   
    43f8:	e9 cf       	rjmp	.-46     	; 0x43cc <_ZN8ns_clock5ClockEv>
    43fa:	08 95       	ret

000043fc <_ZN8ns_clock6RecAckEv>:
	}
	void RecAck() //      eeprom (  level_sda)
	{
		SDA_IO = 0;       //   I2C  
    43fc:	d6 98       	cbi	0x1a, 6	; 26
		Clock();        //   
    43fe:	e6 df       	rcall	.-52     	; 0x43cc <_ZN8ns_clock5ClockEv>
		SDA_IO = 1;       //   I2C  
    4400:	d6 9a       	sbi	0x1a, 6	; 26
    4402:	08 95       	ret

00004404 <_ZN8ns_clock6InByteEv>:
	uint8_t InByte()
	{
		uint8_t bit_count;
		uint8_t data_i2c;
		data_i2c = 0;
		SDA_IO = 0;						//   I2C  
    4404:	d6 98       	cbi	0x1a, 6	; 26
    4406:	98 e0       	ldi	r25, 0x08	; 8
	}
	uint8_t InByte()
	{
		uint8_t bit_count;
		uint8_t data_i2c;
		data_i2c = 0;
    4408:	80 e0       	ldi	r24, 0x00	; 0
		SDA_IO = 0;						//   I2C  
		for(bit_count = 0; bit_count < 8; bit_count++) {
			SCLK_WR = 1;				//  "1"      I2C
    440a:	df 9a       	sbi	0x1b, 7	; 27
			__delay_us(clc_zad);		//  
    440c:	25 e1       	ldi	r18, 0x15	; 21
    440e:	2a 95       	dec	r18
    4410:	f1 f7       	brne	.-4      	; 0x440e <_ZN8ns_clock6InByteEv+0xa>
    4412:	00 00       	nop
			data_i2c <<= 1;
    4414:	88 0f       	add	r24, r24
			if(SDA_RD == 1)				//  SDA = 0,     eeprom
    4416:	ce 99       	sbic	0x19, 6	; 25
			  data_i2c += 1;
    4418:	8f 5f       	subi	r24, 0xFF	; 255
			SCLK_WR = 0;				//  "0"    I2C
    441a:	df 98       	cbi	0x1b, 7	; 27
			__delay_us(clc_zad);		//  
    441c:	25 e1       	ldi	r18, 0x15	; 21
    441e:	2a 95       	dec	r18
    4420:	f1 f7       	brne	.-4      	; 0x441e <_ZN8ns_clock6InByteEv+0x1a>
    4422:	00 00       	nop
    4424:	91 50       	subi	r25, 0x01	; 1
	{
		uint8_t bit_count;
		uint8_t data_i2c;
		data_i2c = 0;
		SDA_IO = 0;						//   I2C  
		for(bit_count = 0; bit_count < 8; bit_count++) {
    4426:	89 f7       	brne	.-30     	; 0x440a <_ZN8ns_clock6InByteEv+0x6>
			if(SDA_RD == 1)				//  SDA = 0,     eeprom
			  data_i2c += 1;
			SCLK_WR = 0;				//  "0"    I2C
			__delay_us(clc_zad);		//  
		}
		SDA_IO=1;						//   I2C  
    4428:	d6 9a       	sbi	0x1a, 6	; 26
		return data_i2c;
	}
    442a:	08 95       	ret

0000442c <_ZN8ns_clock7OutByteEh>:
	void OutByte(uint8_t data_i2c)			//   
	{
    442c:	cf 93       	push	r28
    442e:	df 93       	push	r29
    4430:	d8 2f       	mov	r29, r24
    4432:	c8 e0       	ldi	r28, 0x08	; 8
		uint8_t bit_count;
		for(bit_count = 0; bit_count < 8; bit_count++) {
			if(data_i2c & 0x80)
    4434:	dd 23       	and	r29, r29
    4436:	14 f4       	brge	.+4      	; 0x443c <_ZN8ns_clock7OutByteEh+0x10>
				SDA_WR = 1;					//  "1"    I2C
    4438:	de 9a       	sbi	0x1b, 6	; 27
    443a:	01 c0       	rjmp	.+2      	; 0x443e <_ZN8ns_clock7OutByteEh+0x12>
			else
				SDA_WR = 0;					//  "0"    I2C
    443c:	de 98       	cbi	0x1b, 6	; 27
			Clock();						//   
    443e:	c6 df       	rcall	.-116    	; 0x43cc <_ZN8ns_clock5ClockEv>
			data_i2c <<= 1;
    4440:	dd 0f       	add	r29, r29
    4442:	c1 50       	subi	r28, 0x01	; 1
		return data_i2c;
	}
	void OutByte(uint8_t data_i2c)			//   
	{
		uint8_t bit_count;
		for(bit_count = 0; bit_count < 8; bit_count++) {
    4444:	b9 f7       	brne	.-18     	; 0x4434 <_ZN8ns_clock7OutByteEh+0x8>
			else
				SDA_WR = 0;					//  "0"    I2C
			Clock();						//   
			data_i2c <<= 1;
		}
	}
    4446:	df 91       	pop	r29
    4448:	cf 91       	pop	r28
    444a:	08 95       	ret

0000444c <_ZN8ns_clock6WrPollEv>:
	void WrPoll()
	{
		Start();          //    
    444c:	a6 df       	rcall	.-180    	; 0x439a <_ZN8ns_clock5StartEv>
		OutByte(0xD0);    //   
    444e:	80 ed       	ldi	r24, 0xD0	; 208
    4450:	ed df       	rcall	.-38     	; 0x442c <_ZN8ns_clock7OutByteEh>
		RecAck();         //      eeprom (  level_sda)
    4452:	d4 cf       	rjmp	.-88     	; 0x43fc <_ZN8ns_clock6RecAckEv>
    4454:	08 95       	ret

00004456 <_ZN8ns_clock14ClockBuffWriteEv>:
	uint16_t tik_count = 1;
	uint8_t tik_cn = 0;
	uint8_t tik = 0;
	uint8_t old_sec = 255;
	void ClockBuffWrite() //      
	{
    4456:	ff 92       	push	r15
    4458:	0f 93       	push	r16
    445a:	1f 93       	push	r17
    445c:	cf 93       	push	r28
    445e:	df 93       	push	r29
		CRITICAL_SECTION
    4460:	ff b6       	in	r15, 0x3f	; 63
    return 1;
}

static __inline__ uint8_t __iCliRetVal(void)
{
    cli();
    4462:	f8 94       	cli
		{
			uint8_t count_byte;
			WrPoll();
    4464:	f3 df       	rcall	.-26     	; 0x444c <_ZN8ns_clock6WrPollEv>
			OutByte(0);       //  
    4466:	80 e0       	ldi	r24, 0x00	; 0
    4468:	e1 df       	rcall	.-62     	; 0x442c <_ZN8ns_clock7OutByteEh>
			RecAck();         //      eeprom (  level_sda)
    446a:	c8 df       	rcall	.-112    	; 0x43fc <_ZN8ns_clock6RecAckEv>
    446c:	ce eb       	ldi	r28, 0xBE	; 190
    446e:	d1 e0       	ldi	r29, 0x01	; 1
    4470:	06 ec       	ldi	r16, 0xC6	; 198
    4472:	11 e0       	ldi	r17, 0x01	; 1
			for (count_byte = 0; count_byte < 8; count_byte++)
			{
				OutByte(clock_datas[count_byte]);	//    -
    4474:	89 91       	ld	r24, Y+
    4476:	da df       	rcall	.-76     	; 0x442c <_ZN8ns_clock7OutByteEh>
				RecAck();							//      eeprom (  level_sda)
    4478:	c1 df       	rcall	.-126    	; 0x43fc <_ZN8ns_clock6RecAckEv>
		{
			uint8_t count_byte;
			WrPoll();
			OutByte(0);       //  
			RecAck();         //      eeprom (  level_sda)
			for (count_byte = 0; count_byte < 8; count_byte++)
    447a:	c0 17       	cp	r28, r16
    447c:	d1 07       	cpc	r29, r17
    447e:	d1 f7       	brne	.-12     	; 0x4474 <_ZN8ns_clock14ClockBuffWriteEv+0x1e>
			{
				OutByte(clock_datas[count_byte]);	//    -
				RecAck();							//      eeprom (  level_sda)
			}
			Stop();         //    
    4480:	99 df       	rcall	.-206    	; 0x43b4 <_ZN8ns_clock4StopEv>
    (void)__s;
}

static __inline__ void __iRestore(const  uint8_t *__s)
{
    SREG = *__s;
    4482:	ff be       	out	0x3f, r15	; 63
		}
	}
    4484:	df 91       	pop	r29
    4486:	cf 91       	pop	r28
    4488:	1f 91       	pop	r17
    448a:	0f 91       	pop	r16
    448c:	ff 90       	pop	r15
    448e:	08 95       	ret

00004490 <_ZN8ns_clock13ClockBuffReadEv>:
	void ClockBuffRead() //      
	{
    4490:	ff 92       	push	r15
    4492:	0f 93       	push	r16
    4494:	1f 93       	push	r17
    4496:	cf 93       	push	r28
    4498:	df 93       	push	r29
		CRITICAL_SECTION
    449a:	ff b6       	in	r15, 0x3f	; 63
    return 1;
}

static __inline__ uint8_t __iCliRetVal(void)
{
    cli();
    449c:	f8 94       	cli
		{
			uint8_t count_byte;
			WrPoll();
    449e:	d6 df       	rcall	.-84     	; 0x444c <_ZN8ns_clock6WrPollEv>
			OutByte(0x00);  //  
    44a0:	80 e0       	ldi	r24, 0x00	; 0
    44a2:	c4 df       	rcall	.-120    	; 0x442c <_ZN8ns_clock7OutByteEh>
			RecAck();       //      eeprom (  level_sda)
    44a4:	ab df       	rcall	.-170    	; 0x43fc <_ZN8ns_clock6RecAckEv>
			Start();        //    
    44a6:	79 df       	rcall	.-270    	; 0x439a <_ZN8ns_clock5StartEv>
			OutByte(0xD1);  //   
    44a8:	81 ed       	ldi	r24, 0xD1	; 209
    44aa:	c0 df       	rcall	.-128    	; 0x442c <_ZN8ns_clock7OutByteEh>
			RecAck();       //      eeprom (  level_sda)
    44ac:	a7 df       	rcall	.-178    	; 0x43fc <_ZN8ns_clock6RecAckEv>
			for (count_byte = 0; count_byte < 8; count_byte++)
			{
				clock_data[count_byte] = InByte();    //    -
    44ae:	aa df       	rcall	.-172    	; 0x4404 <_ZN8ns_clock6InByteEv>
    44b0:	80 93 cd 01 	sts	0x01CD, r24	; 0x8001cd <_ZN8ns_clock10clock_dataE>
    44b4:	ce ec       	ldi	r28, 0xCE	; 206
    44b6:	d1 e0       	ldi	r29, 0x01	; 1
    44b8:	05 ed       	ldi	r16, 0xD5	; 213
    44ba:	11 e0       	ldi	r17, 0x01	; 1
				if (count_byte != 7)
				Ack();      //   ack -   
    44bc:	98 df       	rcall	.-208    	; 0x43ee <_ZN8ns_clock3AckEv>
			Start();        //    
			OutByte(0xD1);  //   
			RecAck();       //      eeprom (  level_sda)
			for (count_byte = 0; count_byte < 8; count_byte++)
			{
				clock_data[count_byte] = InByte();    //    -
    44be:	a2 df       	rcall	.-188    	; 0x4404 <_ZN8ns_clock6InByteEv>
    44c0:	89 93       	st	Y+, r24
				if (count_byte != 7)
    44c2:	c0 17       	cp	r28, r16
    44c4:	d1 07       	cpc	r29, r17
    44c6:	d1 f7       	brne	.-12     	; 0x44bc <_ZN8ns_clock13ClockBuffReadEv+0x2c>
				Ack();      //   ack -   
				else
				Nack();     //   nack -   
    44c8:	96 df       	rcall	.-212    	; 0x43f6 <_ZN8ns_clock4NackEv>
			}
			Stop(); //    
    44ca:	74 df       	rcall	.-280    	; 0x43b4 <_ZN8ns_clock4StopEv>
    (void)__s;
}

static __inline__ void __iRestore(const  uint8_t *__s)
{
    SREG = *__s;
    44cc:	ff be       	out	0x3f, r15	; 63
		}
	}
    44ce:	df 91       	pop	r29
    44d0:	cf 91       	pop	r28
    44d2:	1f 91       	pop	r17
    44d4:	0f 91       	pop	r16
    44d6:	ff 90       	pop	r15
    44d8:	08 95       	ret

000044da <_ZN8ns_clock11RefreshTimeEv>:
	void RefreshTime(void) //      time[]
	{
    44da:	cf 93       	push	r28
		CRITICAL_SECTION
    44dc:	cf b7       	in	r28, 0x3f	; 63
    return 1;
}

static __inline__ uint8_t __iCliRetVal(void)
{
    cli();
    44de:	f8 94       	cli
		{
			ClockBuffRead();		//   /  
    44e0:	d7 df       	rcall	.-82     	; 0x4490 <_ZN8ns_clock13ClockBuffReadEv>
			time[CT_SECOND] = (clock_data[CC_SECOND] & 0x0F) + (clock_data[CC_SECOND] >> 4) * 10;			// 
    44e2:	ad ec       	ldi	r26, 0xCD	; 205
    44e4:	b1 e0       	ldi	r27, 0x01	; 1
    44e6:	8c 91       	ld	r24, X
    44e8:	e6 ec       	ldi	r30, 0xC6	; 198
    44ea:	f1 e0       	ldi	r31, 0x01	; 1
    44ec:	98 2f       	mov	r25, r24
    44ee:	96 95       	lsr	r25
    44f0:	96 95       	lsr	r25
    44f2:	96 95       	lsr	r25
    44f4:	9e 71       	andi	r25, 0x1E	; 30
    44f6:	29 2f       	mov	r18, r25
    44f8:	22 0f       	add	r18, r18
    44fa:	22 0f       	add	r18, r18
    44fc:	92 0f       	add	r25, r18
    44fe:	8f 70       	andi	r24, 0x0F	; 15
    4500:	89 0f       	add	r24, r25
    4502:	80 83       	st	Z, r24
			time[CT_MINUTE] = (clock_data[CC_MINUTE] & 0x0F) + (clock_data[CC_MINUTE] >> 4) * 10;			// 
    4504:	11 96       	adiw	r26, 0x01	; 1
    4506:	8c 91       	ld	r24, X
    4508:	11 97       	sbiw	r26, 0x01	; 1
    450a:	98 2f       	mov	r25, r24
    450c:	96 95       	lsr	r25
    450e:	96 95       	lsr	r25
    4510:	96 95       	lsr	r25
    4512:	9e 71       	andi	r25, 0x1E	; 30
    4514:	29 2f       	mov	r18, r25
    4516:	22 0f       	add	r18, r18
    4518:	22 0f       	add	r18, r18
    451a:	92 0f       	add	r25, r18
    451c:	8f 70       	andi	r24, 0x0F	; 15
    451e:	89 0f       	add	r24, r25
    4520:	81 83       	std	Z+1, r24	; 0x01
			time[CT_HOUR]   = (clock_data[CC_HOUR]   & 0x0F) + ((clock_data[CC_HOUR] >> 4) & 0x03) * 10;	// 
    4522:	12 96       	adiw	r26, 0x02	; 2
    4524:	2c 91       	ld	r18, X
    4526:	12 97       	sbiw	r26, 0x02	; 2
    4528:	82 2f       	mov	r24, r18
    452a:	90 e0       	ldi	r25, 0x00	; 0
    452c:	95 95       	asr	r25
    452e:	87 95       	ror	r24
    4530:	95 95       	asr	r25
    4532:	87 95       	ror	r24
    4534:	95 95       	asr	r25
    4536:	87 95       	ror	r24
    4538:	95 95       	asr	r25
    453a:	87 95       	ror	r24
    453c:	83 70       	andi	r24, 0x03	; 3
    453e:	88 0f       	add	r24, r24
    4540:	98 2f       	mov	r25, r24
    4542:	99 0f       	add	r25, r25
    4544:	99 0f       	add	r25, r25
    4546:	89 0f       	add	r24, r25
    4548:	2f 70       	andi	r18, 0x0F	; 15
    454a:	82 0f       	add	r24, r18
    454c:	82 83       	std	Z+2, r24	; 0x02
			time[CT_DAY]    = (clock_data[CC_DAY]    & 0x07);												//  
    454e:	13 96       	adiw	r26, 0x03	; 3
    4550:	8c 91       	ld	r24, X
    4552:	13 97       	sbiw	r26, 0x03	; 3
    4554:	87 70       	andi	r24, 0x07	; 7
    4556:	83 83       	std	Z+3, r24	; 0x03
			time[CT_DATE]   = (clock_data[CC_DATE]   & 0x0F) + ((clock_data[CC_DATE] >> 4) & 0x03) * 10;	// 
    4558:	14 96       	adiw	r26, 0x04	; 4
    455a:	2c 91       	ld	r18, X
    455c:	14 97       	sbiw	r26, 0x04	; 4
    455e:	82 2f       	mov	r24, r18
    4560:	90 e0       	ldi	r25, 0x00	; 0
    4562:	95 95       	asr	r25
    4564:	87 95       	ror	r24
    4566:	95 95       	asr	r25
    4568:	87 95       	ror	r24
    456a:	95 95       	asr	r25
    456c:	87 95       	ror	r24
    456e:	95 95       	asr	r25
    4570:	87 95       	ror	r24
    4572:	83 70       	andi	r24, 0x03	; 3
    4574:	88 0f       	add	r24, r24
    4576:	98 2f       	mov	r25, r24
    4578:	99 0f       	add	r25, r25
    457a:	99 0f       	add	r25, r25
    457c:	89 0f       	add	r24, r25
    457e:	2f 70       	andi	r18, 0x0F	; 15
    4580:	82 0f       	add	r24, r18
    4582:	84 83       	std	Z+4, r24	; 0x04
			time[CT_MONTH]  = (clock_data[CC_MONTH]  & 0x0F) + ((clock_data[CC_MONTH] >> 4) & 0x01) * 10;	// 
    4584:	15 96       	adiw	r26, 0x05	; 5
    4586:	8c 91       	ld	r24, X
    4588:	15 97       	sbiw	r26, 0x05	; 5
    458a:	84 fb       	bst	r24, 4
    458c:	99 27       	eor	r25, r25
    458e:	90 f9       	bld	r25, 0
    4590:	99 0f       	add	r25, r25
    4592:	29 2f       	mov	r18, r25
    4594:	22 0f       	add	r18, r18
    4596:	22 0f       	add	r18, r18
    4598:	92 0f       	add	r25, r18
    459a:	8f 70       	andi	r24, 0x0F	; 15
    459c:	89 0f       	add	r24, r25
    459e:	85 83       	std	Z+5, r24	; 0x05
			time[CT_YEAR]   = (clock_data[CC_YEAR]   & 0x0F) + (clock_data[CC_YEAR] >> 4) * 10;				// 
    45a0:	16 96       	adiw	r26, 0x06	; 6
    45a2:	8c 91       	ld	r24, X
    45a4:	98 2f       	mov	r25, r24
    45a6:	96 95       	lsr	r25
    45a8:	96 95       	lsr	r25
    45aa:	96 95       	lsr	r25
    45ac:	9e 71       	andi	r25, 0x1E	; 30
    45ae:	29 2f       	mov	r18, r25
    45b0:	22 0f       	add	r18, r18
    45b2:	22 0f       	add	r18, r18
    45b4:	92 0f       	add	r25, r18
    45b6:	8f 70       	andi	r24, 0x0F	; 15
    45b8:	89 0f       	add	r24, r25
    45ba:	86 83       	std	Z+6, r24	; 0x06
    (void)__s;
}

static __inline__ void __iRestore(const  uint8_t *__s)
{
    SREG = *__s;
    45bc:	cf bf       	out	0x3f, r28	; 63
		}
	}
    45be:	cf 91       	pop	r28
    45c0:	08 95       	ret

000045c2 <_ZN8ns_clock6RefSavEv>:
	void RefSav()
	{
		CRITICAL_SECTION
    45c2:	9f b7       	in	r25, 0x3f	; 63
    return 1;
}

static __inline__ uint8_t __iCliRetVal(void)
{
    cli();
    45c4:	f8 94       	cli
    45c6:	ed ec       	ldi	r30, 0xCD	; 205
    45c8:	f1 e0       	ldi	r31, 0x01	; 1
    45ca:	ae eb       	ldi	r26, 0xBE	; 190
    45cc:	b1 e0       	ldi	r27, 0x01	; 1
    45ce:	25 ed       	ldi	r18, 0xD5	; 213
    45d0:	31 e0       	ldi	r19, 0x01	; 1
		{
			for (uint8_t i = 0; i < 8; i++)
				clock_datas[i] = clock_data[i];
    45d2:	81 91       	ld	r24, Z+
    45d4:	8d 93       	st	X+, r24
	}
	void RefSav()
	{
		CRITICAL_SECTION
		{
			for (uint8_t i = 0; i < 8; i++)
    45d6:	e2 17       	cp	r30, r18
    45d8:	f3 07       	cpc	r31, r19
    45da:	d9 f7       	brne	.-10     	; 0x45d2 <_ZN8ns_clock6RefSavEv+0x10>
    (void)__s;
}

static __inline__ void __iRestore(const  uint8_t *__s)
{
    SREG = *__s;
    45dc:	9f bf       	out	0x3f, r25	; 63
    __asm__ volatile ("" ::: "memory");
    45de:	08 95       	ret

000045e0 <_ZN8ns_clock7SetYearEh>:
				clock_datas[i] = clock_data[i];
		}
	}
	void SetYear(unsigned char year)
	{
		clock_datas[CC_YEAR] = ((year / 10) << 4) + (year % 10);
    45e0:	9d ec       	ldi	r25, 0xCD	; 205
    45e2:	89 9f       	mul	r24, r25
    45e4:	91 2d       	mov	r25, r1
    45e6:	11 24       	eor	r1, r1
    45e8:	96 95       	lsr	r25
    45ea:	96 95       	lsr	r25
    45ec:	96 95       	lsr	r25
    45ee:	39 2f       	mov	r19, r25
    45f0:	33 0f       	add	r19, r19
    45f2:	23 2f       	mov	r18, r19
    45f4:	22 0f       	add	r18, r18
    45f6:	22 0f       	add	r18, r18
    45f8:	23 0f       	add	r18, r19
    45fa:	82 1b       	sub	r24, r18
    45fc:	20 e1       	ldi	r18, 0x10	; 16
    45fe:	92 9f       	mul	r25, r18
    4600:	80 0d       	add	r24, r0
    4602:	11 24       	eor	r1, r1
    4604:	80 93 c4 01 	sts	0x01C4, r24	; 0x8001c4 <_ZN8ns_clock11clock_datasE+0x6>
    4608:	08 95       	ret

0000460a <_ZN8ns_clock8SetMonthEh>:
	}
	void SetMonth(unsigned char mount)
	{
	 clock_datas[CC_MONTH] = ((mount/10)<<4)+(mount%10);
    460a:	9d ec       	ldi	r25, 0xCD	; 205
    460c:	89 9f       	mul	r24, r25
    460e:	91 2d       	mov	r25, r1
    4610:	11 24       	eor	r1, r1
    4612:	96 95       	lsr	r25
    4614:	96 95       	lsr	r25
    4616:	96 95       	lsr	r25
    4618:	39 2f       	mov	r19, r25
    461a:	33 0f       	add	r19, r19
    461c:	23 2f       	mov	r18, r19
    461e:	22 0f       	add	r18, r18
    4620:	22 0f       	add	r18, r18
    4622:	23 0f       	add	r18, r19
    4624:	82 1b       	sub	r24, r18
    4626:	20 e1       	ldi	r18, 0x10	; 16
    4628:	92 9f       	mul	r25, r18
    462a:	80 0d       	add	r24, r0
    462c:	11 24       	eor	r1, r1
    462e:	80 93 c3 01 	sts	0x01C3, r24	; 0x8001c3 <_ZN8ns_clock11clock_datasE+0x5>
    4632:	08 95       	ret

00004634 <_ZN8ns_clock7SetDateEh>:
	}
	void SetDate(unsigned char date)
	{
	 clock_datas[CC_DATE] = ((date/10)<<4)+(date%10);
    4634:	9d ec       	ldi	r25, 0xCD	; 205
    4636:	89 9f       	mul	r24, r25
    4638:	91 2d       	mov	r25, r1
    463a:	11 24       	eor	r1, r1
    463c:	96 95       	lsr	r25
    463e:	96 95       	lsr	r25
    4640:	96 95       	lsr	r25
    4642:	39 2f       	mov	r19, r25
    4644:	33 0f       	add	r19, r19
    4646:	23 2f       	mov	r18, r19
    4648:	22 0f       	add	r18, r18
    464a:	22 0f       	add	r18, r18
    464c:	23 0f       	add	r18, r19
    464e:	82 1b       	sub	r24, r18
    4650:	20 e1       	ldi	r18, 0x10	; 16
    4652:	92 9f       	mul	r25, r18
    4654:	80 0d       	add	r24, r0
    4656:	11 24       	eor	r1, r1
    4658:	80 93 c2 01 	sts	0x01C2, r24	; 0x8001c2 <_ZN8ns_clock11clock_datasE+0x4>
    465c:	08 95       	ret

0000465e <_ZN8ns_clock7SetHourEh>:
	}
	void SetHour(unsigned char hour)
	{
		clock_datas[CC_HOUR] = ((hour / 10) << 4) + (hour % 10);
    465e:	9d ec       	ldi	r25, 0xCD	; 205
    4660:	89 9f       	mul	r24, r25
    4662:	91 2d       	mov	r25, r1
    4664:	11 24       	eor	r1, r1
    4666:	96 95       	lsr	r25
    4668:	96 95       	lsr	r25
    466a:	96 95       	lsr	r25
    466c:	39 2f       	mov	r19, r25
    466e:	33 0f       	add	r19, r19
    4670:	23 2f       	mov	r18, r19
    4672:	22 0f       	add	r18, r18
    4674:	22 0f       	add	r18, r18
    4676:	23 0f       	add	r18, r19
    4678:	82 1b       	sub	r24, r18
    467a:	20 e1       	ldi	r18, 0x10	; 16
    467c:	92 9f       	mul	r25, r18
    467e:	80 0d       	add	r24, r0
    4680:	11 24       	eor	r1, r1
    4682:	80 93 c0 01 	sts	0x01C0, r24	; 0x8001c0 <_ZN8ns_clock11clock_datasE+0x2>
    4686:	08 95       	ret

00004688 <_ZN8ns_clock9SetMinuteEh>:
	}
	void SetMinute(unsigned char minute)
	{
		clock_datas[CC_MINUTE] = ((minute / 10) << 4) + (minute % 10);
    4688:	9d ec       	ldi	r25, 0xCD	; 205
    468a:	89 9f       	mul	r24, r25
    468c:	91 2d       	mov	r25, r1
    468e:	11 24       	eor	r1, r1
    4690:	96 95       	lsr	r25
    4692:	96 95       	lsr	r25
    4694:	96 95       	lsr	r25
    4696:	39 2f       	mov	r19, r25
    4698:	33 0f       	add	r19, r19
    469a:	23 2f       	mov	r18, r19
    469c:	22 0f       	add	r18, r18
    469e:	22 0f       	add	r18, r18
    46a0:	23 0f       	add	r18, r19
    46a2:	82 1b       	sub	r24, r18
    46a4:	20 e1       	ldi	r18, 0x10	; 16
    46a6:	92 9f       	mul	r25, r18
    46a8:	80 0d       	add	r24, r0
    46aa:	11 24       	eor	r1, r1
    46ac:	80 93 bf 01 	sts	0x01BF, r24	; 0x8001bf <_ZN8ns_clock11clock_datasE+0x1>
    46b0:	08 95       	ret

000046b2 <_ZN8ns_clock13SetZeroSecondEv>:
	}
	void SetZeroSecond()
	{
		clock_datas[CC_SECOND] = 0;
    46b2:	10 92 be 01 	sts	0x01BE, r1	; 0x8001be <_ZN8ns_clock11clock_datasE>
    46b6:	08 95       	ret

000046b8 <_ZN8ns_clock6UpdateEv>:
	}
	void Update()
	{
		ClockBuffWrite();
    46b8:	ce ce       	rjmp	.-612    	; 0x4456 <_ZN8ns_clock14ClockBuffWriteEv>
    46ba:	08 95       	ret

000046bc <_ZN8ns_clock4InitEv>:
	}
	void Init()
	{
		SCLK_IO = 1;
    46bc:	d7 9a       	sbi	0x1a, 7	; 26
		SDA_IO  = 1;
    46be:	d6 9a       	sbi	0x1a, 6	; 26
		SDA_SCLK_HI;
    46c0:	df 9a       	sbi	0x1b, 7	; 27
    46c2:	de 9a       	sbi	0x1b, 6	; 27
		RefreshTime();
    46c4:	0a df       	rcall	.-492    	; 0x44da <_ZN8ns_clock11RefreshTimeEv>
		RefSav();
    46c6:	7d df       	rcall	.-262    	; 0x45c2 <_ZN8ns_clock6RefSavEv>
		if (time[CT_HOUR]   > 23)   SetHour(0);
    46c8:	80 91 c8 01 	lds	r24, 0x01C8	; 0x8001c8 <_ZN8ns_clock4timeE+0x2>
    46cc:	88 31       	cpi	r24, 0x18	; 24
    46ce:	10 f0       	brcs	.+4      	; 0x46d4 <_ZN8ns_clock4InitEv+0x18>
	{
	 clock_datas[CC_DATE] = ((date/10)<<4)+(date%10);
	}
	void SetHour(unsigned char hour)
	{
		clock_datas[CC_HOUR] = ((hour / 10) << 4) + (hour % 10);
    46d0:	10 92 c0 01 	sts	0x01C0, r1	; 0x8001c0 <_ZN8ns_clock11clock_datasE+0x2>
		SDA_IO  = 1;
		SDA_SCLK_HI;
		RefreshTime();
		RefSav();
		if (time[CT_HOUR]   > 23)   SetHour(0);
		if (time[CT_MINUTE] > 59) SetMinute(0);
    46d4:	80 91 c7 01 	lds	r24, 0x01C7	; 0x8001c7 <_ZN8ns_clock4timeE+0x1>
    46d8:	8c 33       	cpi	r24, 0x3C	; 60
    46da:	10 f0       	brcs	.+4      	; 0x46e0 <_ZN8ns_clock4InitEv+0x24>
	{
		clock_datas[CC_HOUR] = ((hour / 10) << 4) + (hour % 10);
	}
	void SetMinute(unsigned char minute)
	{
		clock_datas[CC_MINUTE] = ((minute / 10) << 4) + (minute % 10);
    46dc:	10 92 bf 01 	sts	0x01BF, r1	; 0x8001bf <_ZN8ns_clock11clock_datasE+0x1>
		SDA_SCLK_HI;
		RefreshTime();
		RefSav();
		if (time[CT_HOUR]   > 23)   SetHour(0);
		if (time[CT_MINUTE] > 59) SetMinute(0);
		if (time[CT_SECOND] > 59) SetZeroSecond();
    46e0:	80 91 c6 01 	lds	r24, 0x01C6	; 0x8001c6 <_ZN8ns_clock4timeE>
    46e4:	8c 33       	cpi	r24, 0x3C	; 60
    46e6:	10 f0       	brcs	.+4      	; 0x46ec <_ZN8ns_clock4InitEv+0x30>
	{
		clock_datas[CC_MINUTE] = ((minute / 10) << 4) + (minute % 10);
	}
	void SetZeroSecond()
	{
		clock_datas[CC_SECOND] = 0;
    46e8:	10 92 be 01 	sts	0x01BE, r1	; 0x8001be <_ZN8ns_clock11clock_datasE>
		RefreshTime();
		RefSav();
		if (time[CT_HOUR]   > 23)   SetHour(0);
		if (time[CT_MINUTE] > 59) SetMinute(0);
		if (time[CT_SECOND] > 59) SetZeroSecond();
		clock_datas[CC_MODE] = 0x13;
    46ec:	83 e1       	ldi	r24, 0x13	; 19
    46ee:	80 93 c5 01 	sts	0x01C5, r24	; 0x8001c5 <_ZN8ns_clock11clock_datasE+0x7>
	{
		clock_datas[CC_SECOND] = 0;
	}
	void Update()
	{
		ClockBuffWrite();
    46f2:	b1 ce       	rjmp	.-670    	; 0x4456 <_ZN8ns_clock14ClockBuffWriteEv>
    46f4:	08 95       	ret

000046f6 <_ZN8ns_clock9InterruptEv>:
		clock_datas[CC_MODE] = 0x13;
		Update();
	}
	void Interrupt()
	{
		if (--tik_count > 0) return;
    46f6:	80 91 2c 01 	lds	r24, 0x012C	; 0x80012c <_ZN8ns_clock9tik_countE>
    46fa:	90 91 2d 01 	lds	r25, 0x012D	; 0x80012d <_ZN8ns_clock9tik_countE+0x1>
    46fe:	01 97       	sbiw	r24, 0x01	; 1
    4700:	29 f0       	breq	.+10     	; 0x470c <_ZN8ns_clock9InterruptEv+0x16>
    4702:	90 93 2d 01 	sts	0x012D, r25	; 0x80012d <_ZN8ns_clock9tik_countE+0x1>
    4706:	80 93 2c 01 	sts	0x012C, r24	; 0x80012c <_ZN8ns_clock9tik_countE>
    470a:	08 95       	ret
		tik_count = 1000;
    470c:	88 ee       	ldi	r24, 0xE8	; 232
    470e:	93 e0       	ldi	r25, 0x03	; 3
    4710:	90 93 2d 01 	sts	0x012D, r25	; 0x80012d <_ZN8ns_clock9tik_countE+0x1>
    4714:	80 93 2c 01 	sts	0x012C, r24	; 0x80012c <_ZN8ns_clock9tik_countE>
		RefreshTime();
    4718:	e0 de       	rcall	.-576    	; 0x44da <_ZN8ns_clock11RefreshTimeEv>
		if (++tik_cn > 1) tik_cn = 0;
    471a:	80 91 bd 01 	lds	r24, 0x01BD	; 0x8001bd <_ZN8ns_clock6tik_cnE>
    471e:	8f 5f       	subi	r24, 0xFF	; 255
    4720:	82 30       	cpi	r24, 0x02	; 2
    4722:	18 f4       	brcc	.+6      	; 0x472a <_ZN8ns_clock9InterruptEv+0x34>
    4724:	80 93 bd 01 	sts	0x01BD, r24	; 0x8001bd <_ZN8ns_clock6tik_cnE>
    4728:	02 c0       	rjmp	.+4      	; 0x472e <_ZN8ns_clock9InterruptEv+0x38>
    472a:	10 92 bd 01 	sts	0x01BD, r1	; 0x8001bd <_ZN8ns_clock6tik_cnE>
		if (old_sec == time[CT_SECOND]) return;
    472e:	80 91 c6 01 	lds	r24, 0x01C6	; 0x8001c6 <_ZN8ns_clock4timeE>
    4732:	90 91 2b 01 	lds	r25, 0x012B	; 0x80012b <_ZN8ns_clock7old_secE>
    4736:	89 17       	cp	r24, r25
    4738:	29 f0       	breq	.+10     	; 0x4744 <_ZN8ns_clock9InterruptEv+0x4e>
		old_sec = time[CT_SECOND];
    473a:	80 93 2b 01 	sts	0x012B, r24	; 0x80012b <_ZN8ns_clock7old_secE>
		tik = 1;
    473e:	81 e0       	ldi	r24, 0x01	; 1
    4740:	80 93 bc 01 	sts	0x01BC, r24	; 0x8001bc <_ZN8ns_clock3tikE>
    4744:	08 95       	ret

00004746 <_ZN9ns_device4InitEv>:
tc_key4*	key4 = NULL;

namespace ns_device
{
	void Init()
	{
    4746:	ef 92       	push	r14
    4748:	ff 92       	push	r15
    474a:	0f 93       	push	r16
    474c:	1f 93       	push	r17
    474e:	cf 93       	push	r28
    4750:	df 93       	push	r29
		ns_LcdKeyTimer::Init();
    4752:	29 d6       	rcall	.+3154   	; 0x53a6 <_ZN14ns_LcdKeyTimer4InitEv>
		lcdStdOut = ns_lcd::Init(16);
    4754:	80 e1       	ldi	r24, 0x10	; 16
    4756:	d6 d2       	rcall	.+1452   	; 0x4d04 <_ZN6ns_lcd4InitEh>
    4758:	90 93 db 01 	sts	0x01DB, r25	; 0x8001db <lcdStdOut+0x1>
    475c:	80 93 da 01 	sts	0x01DA, r24	; 0x8001da <lcdStdOut>
		key4 = new tc_key4;
    4760:	87 e1       	ldi	r24, 0x17	; 23
    4762:	90 e0       	ldi	r25, 0x00	; 0
    4764:	08 d7       	rcall	.+3600   	; 0x5576 <_Znwj>
    4766:	ec 01       	movw	r28, r24
    4768:	1e d0       	rcall	.+60     	; 0x47a6 <_ZN7tc_key4C1Ev>
    476a:	d0 93 d7 01 	sts	0x01D7, r29	; 0x8001d7 <key4+0x1>
    476e:	c0 93 d6 01 	sts	0x01D6, r28	; 0x8001d6 <key4>
		ns_timerMain::Init();
    4772:	0e 94 4d 2c 	call	0x589a	; 0x589a <_ZN12ns_timerMain4InitEv>
		rs232StdOut = ns_rs232::Init(baud9600, DISABLE, bit8, size16, size256);
    4776:	e1 2c       	mov	r14, r1
    4778:	ff 24       	eor	r15, r15
    477a:	f3 94       	inc	r15
    477c:	00 e1       	ldi	r16, 0x10	; 16
    477e:	10 e0       	ldi	r17, 0x00	; 0
    4780:	23 e0       	ldi	r18, 0x03	; 3
    4782:	40 e0       	ldi	r20, 0x00	; 0
    4784:	60 e8       	ldi	r22, 0x80	; 128
    4786:	75 e2       	ldi	r23, 0x25	; 37
    4788:	80 e0       	ldi	r24, 0x00	; 0
    478a:	90 e0       	ldi	r25, 0x00	; 0
    478c:	f8 d6       	rcall	.+3568   	; 0x557e <_ZN8ns_rs2324InitE6rsBaud8rsParity5rsBit12rsBufferSizeS3_>
    478e:	90 93 d9 01 	sts	0x01D9, r25	; 0x8001d9 <rs232StdOut+0x1>
    4792:	80 93 d8 01 	sts	0x01D8, r24	; 0x8001d8 <rs232StdOut>
		ns_clock::Init();
    4796:	92 df       	rcall	.-220    	; 0x46bc <_ZN8ns_clock4InitEv>
		// =========
	}
    4798:	df 91       	pop	r29
    479a:	cf 91       	pop	r28
    479c:	1f 91       	pop	r17
    479e:	0f 91       	pop	r16
    47a0:	ff 90       	pop	r15
    47a2:	ef 90       	pop	r14
    47a4:	08 95       	ret

000047a6 <_ZN7tc_key4C1Ev>:
unsigned char tc_key4::norm(unsigned char idx)
{
	while(idx >= KEY_BUFFER)
		idx -= KEY_BUFFER;
	return idx;
}
    47a6:	1f 93       	push	r17
    47a8:	cf 93       	push	r28
    47aa:	df 93       	push	r29
    47ac:	ec 01       	movw	r28, r24
    47ae:	e4 e6       	ldi	r30, 0x64	; 100
    47b0:	f0 e0       	ldi	r31, 0x00	; 0
    47b2:	80 81       	ld	r24, Z
    47b4:	80 81       	ld	r24, Z
    47b6:	80 7f       	andi	r24, 0xF0	; 240
    47b8:	80 83       	st	Z, r24
    47ba:	e5 e6       	ldi	r30, 0x65	; 101
    47bc:	f0 e0       	ldi	r31, 0x00	; 0
    47be:	80 81       	ld	r24, Z
    47c0:	8f 60       	ori	r24, 0x0F	; 15
    47c2:	80 83       	st	Z, r24
    47c4:	8f ef       	ldi	r24, 0xFF	; 255
    47c6:	89 8b       	std	Y+17, r24	; 0x11
    47c8:	18 8a       	std	Y+16, r1	; 0x10
    47ca:	1f 86       	std	Y+15, r1	; 0x0f
    47cc:	1e 86       	std	Y+14, r1	; 0x0e
    47ce:	1d 86       	std	Y+13, r1	; 0x0d
    47d0:	1a 86       	std	Y+10, r1	; 0x0a
    47d2:	19 86       	std	Y+9, r1	; 0x09
    47d4:	8b 87       	std	Y+11, r24	; 0x0b
    47d6:	1c 86       	std	Y+12, r1	; 0x0c
    47d8:	1d 8a       	std	Y+21, r1	; 0x15
    47da:	1c 8a       	std	Y+20, r1	; 0x14
    47dc:	81 e0       	ldi	r24, 0x01	; 1
    47de:	88 83       	st	Y, r24
    47e0:	80 e1       	ldi	r24, 0x10	; 16
    47e2:	90 e0       	ldi	r25, 0x00	; 0
    47e4:	ca d6       	rcall	.+3476   	; 0x557a <_Znaj>
    47e6:	9b 8b       	std	Y+19, r25	; 0x13
    47e8:	8a 8b       	std	Y+18, r24	; 0x12
    47ea:	84 e0       	ldi	r24, 0x04	; 4
    47ec:	90 e0       	ldi	r25, 0x00	; 0
    47ee:	c3 d6       	rcall	.+3462   	; 0x5576 <_Znwj>
    47f0:	fc 01       	movw	r30, r24
    47f2:	11 82       	std	Z+1, r1	; 0x01
    47f4:	14 e1       	ldi	r17, 0x14	; 20
    47f6:	12 83       	std	Z+2, r17	; 0x02
    47f8:	13 82       	std	Z+3, r1	; 0x03
    47fa:	10 82       	st	Z, r1
    47fc:	9a 83       	std	Y+2, r25	; 0x02
    47fe:	89 83       	std	Y+1, r24	; 0x01
    4800:	84 e0       	ldi	r24, 0x04	; 4
    4802:	90 e0       	ldi	r25, 0x00	; 0
    4804:	b8 d6       	rcall	.+3440   	; 0x5576 <_Znwj>
    4806:	fc 01       	movw	r30, r24
    4808:	11 82       	std	Z+1, r1	; 0x01
    480a:	12 83       	std	Z+2, r17	; 0x02
    480c:	13 82       	std	Z+3, r1	; 0x03
    480e:	10 82       	st	Z, r1
    4810:	9c 83       	std	Y+4, r25	; 0x04
    4812:	8b 83       	std	Y+3, r24	; 0x03
    4814:	84 e0       	ldi	r24, 0x04	; 4
    4816:	90 e0       	ldi	r25, 0x00	; 0
    4818:	ae d6       	rcall	.+3420   	; 0x5576 <_Znwj>
    481a:	fc 01       	movw	r30, r24
    481c:	11 82       	std	Z+1, r1	; 0x01
    481e:	12 83       	std	Z+2, r17	; 0x02
    4820:	13 82       	std	Z+3, r1	; 0x03
    4822:	10 82       	st	Z, r1
    4824:	9e 83       	std	Y+6, r25	; 0x06
    4826:	8d 83       	std	Y+5, r24	; 0x05
    4828:	84 e0       	ldi	r24, 0x04	; 4
    482a:	90 e0       	ldi	r25, 0x00	; 0
    482c:	a4 d6       	rcall	.+3400   	; 0x5576 <_Znwj>
    482e:	fc 01       	movw	r30, r24
    4830:	11 82       	std	Z+1, r1	; 0x01
    4832:	12 83       	std	Z+2, r17	; 0x02
    4834:	13 82       	std	Z+3, r1	; 0x03
    4836:	10 82       	st	Z, r1
    4838:	98 87       	std	Y+8, r25	; 0x08
    483a:	8f 83       	std	Y+7, r24	; 0x07
    483c:	df 91       	pop	r29
    483e:	cf 91       	pop	r28
    4840:	1f 91       	pop	r17
    4842:	08 95       	ret

00004844 <_ZN7tc_key44NbitEh>:
    4844:	20 e0       	ldi	r18, 0x00	; 0
    4846:	30 e0       	ldi	r19, 0x00	; 0
    4848:	80 e0       	ldi	r24, 0x00	; 0
    484a:	70 e0       	ldi	r23, 0x00	; 0
    484c:	ab 01       	movw	r20, r22
    484e:	02 2e       	mov	r0, r18
    4850:	02 c0       	rjmp	.+4      	; 0x4856 <_ZN7tc_key44NbitEh+0x12>
    4852:	55 95       	asr	r21
    4854:	47 95       	ror	r20
    4856:	0a 94       	dec	r0
    4858:	e2 f7       	brpl	.-8      	; 0x4852 <_ZN7tc_key44NbitEh+0xe>
    485a:	40 fd       	sbrc	r20, 0
    485c:	8f 5f       	subi	r24, 0xFF	; 255
    485e:	2f 5f       	subi	r18, 0xFF	; 255
    4860:	3f 4f       	sbci	r19, 0xFF	; 255
    4862:	24 30       	cpi	r18, 0x04	; 4
    4864:	31 05       	cpc	r19, r1
    4866:	91 f7       	brne	.-28     	; 0x484c <_ZN7tc_key44NbitEh+0x8>
    4868:	08 95       	ret

0000486a <_ZN7tc_key44PushEh>:

void tc_key4::Push(unsigned char dat)
{
    486a:	dc 01       	movw	r26, r24
	CRITICAL_SECTION
    486c:	3f b7       	in	r19, 0x3f	; 63
    return 1;
}

static __inline__ uint8_t __iCliRetVal(void)
{
    cli();
    486e:	f8 94       	cli
	{
		unsigned char adr = norm(head+1);
    4870:	54 96       	adiw	r26, 0x14	; 20
    4872:	8c 91       	ld	r24, X
    4874:	54 97       	sbiw	r26, 0x14	; 20
    4876:	91 e0       	ldi	r25, 0x01	; 1
    4878:	98 0f       	add	r25, r24
	return xx;
}

unsigned char tc_key4::norm(unsigned char idx)
{
	while(idx >= KEY_BUFFER)
    487a:	90 31       	cpi	r25, 0x10	; 16
    487c:	30 f0       	brcs	.+12     	; 0x488a <_ZN7tc_key44PushEh+0x20>
		idx -= KEY_BUFFER;
    487e:	90 51       	subi	r25, 0x10	; 16
	return xx;
}

unsigned char tc_key4::norm(unsigned char idx)
{
	while(idx >= KEY_BUFFER)
    4880:	90 31       	cpi	r25, 0x10	; 16
    4882:	e8 f7       	brcc	.-6      	; 0x487e <_ZN7tc_key44PushEh+0x14>
    4884:	91 ef       	ldi	r25, 0xF1	; 241
    4886:	98 0f       	add	r25, r24
    4888:	9f 70       	andi	r25, 0x0F	; 15
void tc_key4::Push(unsigned char dat)
{
	CRITICAL_SECTION
	{
		unsigned char adr = norm(head+1);
		if (tail == adr)
    488a:	55 96       	adiw	r26, 0x15	; 21
    488c:	2c 91       	ld	r18, X
    488e:	55 97       	sbiw	r26, 0x15	; 21
    4890:	29 17       	cp	r18, r25
    4892:	59 f0       	breq	.+22     	; 0x48aa <_ZN7tc_key44PushEh+0x40>
			return;
		buffer[head] = dat;
    4894:	52 96       	adiw	r26, 0x12	; 18
    4896:	ed 91       	ld	r30, X+
    4898:	fc 91       	ld	r31, X
    489a:	53 97       	sbiw	r26, 0x13	; 19
    489c:	e8 0f       	add	r30, r24
    489e:	f1 1d       	adc	r31, r1
    48a0:	60 83       	st	Z, r22
		head = adr;
    48a2:	54 96       	adiw	r26, 0x14	; 20
    48a4:	9c 93       	st	X, r25
    (void)__s;
}

static __inline__ void __iRestore(const  uint8_t *__s)
{
    SREG = *__s;
    48a6:	3f bf       	out	0x3f, r19	; 63
    __asm__ volatile ("" ::: "memory");
    48a8:	08 95       	ret
    (void)__s;
}

static __inline__ void __iRestore(const  uint8_t *__s)
{
    SREG = *__s;
    48aa:	3f bf       	out	0x3f, r19	; 63
    __asm__ volatile ("" ::: "memory");
    48ac:	08 95       	ret

000048ae <_ZN7tc_key46SelectEv>:
			Select();
		}
	}
}
void tc_key4::Select()
{
    48ae:	ff 92       	push	r15
    48b0:	0f 93       	push	r16
    48b2:	1f 93       	push	r17
    48b4:	cf 93       	push	r28
    48b6:	df 93       	push	r29
    48b8:	ec 01       	movw	r28, r24
	if (oldKey1 == 0)
    48ba:	1b 85       	ldd	r17, Y+11	; 0x0b
    48bc:	11 11       	cpse	r17, r1
    48be:	16 c0       	rjmp	.+44     	; 0x48ec <_ZN7tc_key46SelectEv+0x3e>
	{
		if (oldKey2>0)
    48c0:	6c 85       	ldd	r22, Y+12	; 0x0c
    48c2:	66 23       	and	r22, r22
    48c4:	69 f0       	breq	.+26     	; 0x48e0 <_ZN7tc_key46SelectEv+0x32>
		{
			if (((countL2 <= TIME_PUSH) && !autoRepeat) || autoRepeat)
    48c6:	8d 85       	ldd	r24, Y+13	; 0x0d
    48c8:	9e 85       	ldd	r25, Y+14	; 0x0e
    48ca:	81 35       	cpi	r24, 0x51	; 81
    48cc:	91 05       	cpc	r25, r1
    48ce:	18 f4       	brcc	.+6      	; 0x48d6 <_ZN7tc_key46SelectEv+0x28>
    48d0:	88 81       	ld	r24, Y
    48d2:	88 23       	and	r24, r24
    48d4:	19 f0       	breq	.+6      	; 0x48dc <_ZN7tc_key46SelectEv+0x2e>
    48d6:	88 81       	ld	r24, Y
    48d8:	88 23       	and	r24, r24
    48da:	11 f0       	breq	.+4      	; 0x48e0 <_ZN7tc_key46SelectEv+0x32>
//			if (((countL2 <= TIME_PUSH) && !autoRepeat) || ((countL2 >= TIME_PUSH) && autoRepeat))
				Push(oldKey2);
    48dc:	ce 01       	movw	r24, r28
    48de:	c5 df       	rcall	.-118    	; 0x486a <_ZN7tc_key44PushEh>
		}
			oldKey2 = 0;
    48e0:	1c 86       	std	Y+12, r1	; 0x0c
			countL2 = 0;
    48e2:	1e 86       	std	Y+14, r1	; 0x0e
    48e4:	1d 86       	std	Y+13, r1	; 0x0d
			countAut2 = 0;
    48e6:	18 8a       	std	Y+16, r1	; 0x10
    48e8:	1f 86       	std	Y+15, r1	; 0x0f
    48ea:	40 c0       	rjmp	.+128    	; 0x496c <_ZN7tc_key46SelectEv+0xbe>
	}
	else
	{
		if ( Nbit(oldKey1) > Nbit(oldKey2) )
    48ec:	61 2f       	mov	r22, r17
    48ee:	aa df       	rcall	.-172    	; 0x4844 <_ZN7tc_key44NbitEh>
    48f0:	f8 2e       	mov	r15, r24
    48f2:	0c 85       	ldd	r16, Y+12	; 0x0c
    48f4:	60 2f       	mov	r22, r16
    48f6:	ce 01       	movw	r24, r28
    48f8:	a5 df       	rcall	.-182    	; 0x4844 <_ZN7tc_key44NbitEh>
    48fa:	8f 15       	cp	r24, r15
    48fc:	10 f4       	brcc	.+4      	; 0x4902 <_ZN7tc_key46SelectEv+0x54>
		{
			oldKey2 = oldKey1;
    48fe:	1c 87       	std	Y+12, r17	; 0x0c
    4900:	02 c0       	rjmp	.+4      	; 0x4906 <_ZN7tc_key46SelectEv+0x58>
		}
		//
		if (oldKey1 == oldKey2)
    4902:	10 13       	cpse	r17, r16
    4904:	2f c0       	rjmp	.+94     	; 0x4964 <_ZN7tc_key46SelectEv+0xb6>
		{
			if (countL2 <= TIME_AUTO) countL2++;
    4906:	8d 85       	ldd	r24, Y+13	; 0x0d
    4908:	9e 85       	ldd	r25, Y+14	; 0x0e
    490a:	81 3d       	cpi	r24, 0xD1	; 209
    490c:	27 e0       	ldi	r18, 0x07	; 7
    490e:	92 07       	cpc	r25, r18
    4910:	18 f4       	brcc	.+6      	; 0x4918 <_ZN7tc_key46SelectEv+0x6a>
    4912:	01 96       	adiw	r24, 0x01	; 1
    4914:	9e 87       	std	Y+14, r25	; 0x0e
    4916:	8d 87       	std	Y+13, r24	; 0x0d
			if (autoRepeat)
    4918:	88 81       	ld	r24, Y
    491a:	88 23       	and	r24, r24
    491c:	d1 f0       	breq	.+52     	; 0x4952 <_ZN7tc_key46SelectEv+0xa4>
			{
				if (countL2 >= TIME_AUTO)
    491e:	8d 85       	ldd	r24, Y+13	; 0x0d
    4920:	9e 85       	ldd	r25, Y+14	; 0x0e
    4922:	80 3d       	cpi	r24, 0xD0	; 208
    4924:	97 40       	sbci	r25, 0x07	; 7
    4926:	10 f1       	brcs	.+68     	; 0x496c <_ZN7tc_key46SelectEv+0xbe>
				{
					Push(oldKey2);
    4928:	61 2f       	mov	r22, r17
    492a:	ce 01       	movw	r24, r28
    492c:	9e df       	rcall	.-196    	; 0x486a <_ZN7tc_key44PushEh>
					if (countAut2 < TIME_AUT2)
    492e:	8f 85       	ldd	r24, Y+15	; 0x0f
    4930:	98 89       	ldd	r25, Y+16	; 0x10
    4932:	84 36       	cpi	r24, 0x64	; 100
    4934:	91 05       	cpc	r25, r1
    4936:	40 f4       	brcc	.+16     	; 0x4948 <_ZN7tc_key46SelectEv+0x9a>
					{
						countAut2++;
    4938:	01 96       	adiw	r24, 0x01	; 1
    493a:	98 8b       	std	Y+16, r25	; 0x10
    493c:	8f 87       	std	Y+15, r24	; 0x0f
						countL2 = TIME_AUT1;
    493e:	88 e0       	ldi	r24, 0x08	; 8
    4940:	97 e0       	ldi	r25, 0x07	; 7
    4942:	9e 87       	std	Y+14, r25	; 0x0e
    4944:	8d 87       	std	Y+13, r24	; 0x0d
    4946:	12 c0       	rjmp	.+36     	; 0x496c <_ZN7tc_key46SelectEv+0xbe>
					}
					else
					{
						countL2 = TIME_AUTO - 2;
    4948:	8e ec       	ldi	r24, 0xCE	; 206
    494a:	97 e0       	ldi	r25, 0x07	; 7
    494c:	9e 87       	std	Y+14, r25	; 0x0e
    494e:	8d 87       	std	Y+13, r24	; 0x0d
    4950:	0d c0       	rjmp	.+26     	; 0x496c <_ZN7tc_key46SelectEv+0xbe>
					
				}
			}
			else
			{
				if (countL2 == TIME_PUSH)
    4952:	8d 85       	ldd	r24, Y+13	; 0x0d
    4954:	9e 85       	ldd	r25, Y+14	; 0x0e
    4956:	80 35       	cpi	r24, 0x50	; 80
    4958:	91 05       	cpc	r25, r1
    495a:	41 f4       	brne	.+16     	; 0x496c <_ZN7tc_key46SelectEv+0xbe>
				Push(oldKey2);
    495c:	61 2f       	mov	r22, r17
    495e:	ce 01       	movw	r24, r28
    4960:	84 df       	rcall	.-248    	; 0x486a <_ZN7tc_key44PushEh>
    4962:	04 c0       	rjmp	.+8      	; 0x496c <_ZN7tc_key46SelectEv+0xbe>
			}
		}
		else
		{
			countL2 = 0;
    4964:	1e 86       	std	Y+14, r1	; 0x0e
    4966:	1d 86       	std	Y+13, r1	; 0x0d
			countAut2 = 0;
    4968:	18 8a       	std	Y+16, r1	; 0x10
    496a:	1f 86       	std	Y+15, r1	; 0x0f
		}
	}
}
    496c:	df 91       	pop	r29
    496e:	cf 91       	pop	r28
    4970:	1f 91       	pop	r17
    4972:	0f 91       	pop	r16
    4974:	ff 90       	pop	r15
    4976:	08 95       	ret

00004978 <_ZN7tc_key49InterruptEv>:
tc_key4::~tc_key4()
{
} //~key4

void tc_key4::Interrupt()
{
    4978:	cf 93       	push	r28
    497a:	df 93       	push	r29
    497c:	1f 92       	push	r1
    497e:	cd b7       	in	r28, 0x3d	; 61
    4980:	de b7       	in	r29, 0x3e	; 62
    4982:	fc 01       	movw	r30, r24
	//
	unsigned char s = KEY_RD;
    4984:	80 91 63 00 	lds	r24, 0x0063	; 0x800063 <__TEXT_REGION_LENGTH__+0x7e0063>
    4988:	8f 70       	andi	r24, 0x0F	; 15
    498a:	89 83       	std	Y+1, r24	; 0x01
	keyX = 0;
    498c:	16 8a       	std	Z+22, r1	; 0x16
	keyX |= line1->Cirle(__port(s).bit3) << 0;
    498e:	89 81       	ldd	r24, Y+1	; 0x01
    4990:	83 fb       	bst	r24, 3
    4992:	88 27       	eor	r24, r24
    4994:	80 f9       	bld	r24, 0
    4996:	a1 81       	ldd	r26, Z+1	; 0x01
    4998:	b2 81       	ldd	r27, Z+2	; 0x02
		countMax = max;
		tr = tr_int = false;
	}
	unsigned char Cirle(unsigned char s)
	{
		CRITICAL_SECTION
    499a:	9f b7       	in	r25, 0x3f	; 63
    return 1;
}

static __inline__ uint8_t __iCliRetVal(void)
{
    cli();
    499c:	f8 94       	cli
		{
			if (s)
    499e:	88 23       	and	r24, r24
    49a0:	a9 f0       	breq	.+42     	; 0x49cc <_ZN7tc_key49InterruptEv+0x54>
			{
				if (count>(ST)0) count--;
    49a2:	11 96       	adiw	r26, 0x01	; 1
    49a4:	8c 91       	ld	r24, X
    49a6:	11 97       	sbiw	r26, 0x01	; 1
    49a8:	88 23       	and	r24, r24
    49aa:	31 f0       	breq	.+12     	; 0x49b8 <_ZN7tc_key49InterruptEv+0x40>
    49ac:	81 50       	subi	r24, 0x01	; 1
    49ae:	11 96       	adiw	r26, 0x01	; 1
    49b0:	8c 93       	st	X, r24
    49b2:	11 97       	sbiw	r26, 0x01	; 1
				if ((count==(ST)0) && tr_int)
    49b4:	81 11       	cpse	r24, r1
    49b6:	25 c0       	rjmp	.+74     	; 0x4a02 <_ZN7tc_key49InterruptEv+0x8a>
    49b8:	13 96       	adiw	r26, 0x03	; 3
    49ba:	8c 91       	ld	r24, X
    49bc:	13 97       	sbiw	r26, 0x03	; 3
    49be:	88 23       	and	r24, r24
    49c0:	01 f1       	breq	.+64     	; 0x4a02 <_ZN7tc_key49InterruptEv+0x8a>
				tr = tr_int = false;
    49c2:	13 96       	adiw	r26, 0x03	; 3
    49c4:	1c 92       	st	X, r1
    49c6:	13 97       	sbiw	r26, 0x03	; 3
    49c8:	1c 92       	st	X, r1
    49ca:	1b c0       	rjmp	.+54     	; 0x4a02 <_ZN7tc_key49InterruptEv+0x8a>
			}
			else
			{
				if (count<countMax) count++;
    49cc:	11 96       	adiw	r26, 0x01	; 1
    49ce:	8c 91       	ld	r24, X
    49d0:	11 97       	sbiw	r26, 0x01	; 1
    49d2:	12 96       	adiw	r26, 0x02	; 2
    49d4:	2c 91       	ld	r18, X
    49d6:	12 97       	sbiw	r26, 0x02	; 2
    49d8:	82 17       	cp	r24, r18
    49da:	30 f4       	brcc	.+12     	; 0x49e8 <_ZN7tc_key49InterruptEv+0x70>
    49dc:	8f 5f       	subi	r24, 0xFF	; 255
    49de:	11 96       	adiw	r26, 0x01	; 1
    49e0:	8c 93       	st	X, r24
    49e2:	11 97       	sbiw	r26, 0x01	; 1
				if ((count>=countMax) && !tr_int)
    49e4:	82 17       	cp	r24, r18
    49e6:	68 f0       	brcs	.+26     	; 0x4a02 <_ZN7tc_key49InterruptEv+0x8a>
    49e8:	13 96       	adiw	r26, 0x03	; 3
    49ea:	8c 91       	ld	r24, X
    49ec:	13 97       	sbiw	r26, 0x03	; 3
    49ee:	81 11       	cpse	r24, r1
    49f0:	08 c0       	rjmp	.+16     	; 0x4a02 <_ZN7tc_key49InterruptEv+0x8a>
				{
					tr = tr_int = true;
    49f2:	81 e0       	ldi	r24, 0x01	; 1
    49f4:	13 96       	adiw	r26, 0x03	; 3
    49f6:	8c 93       	st	X, r24
    49f8:	13 97       	sbiw	r26, 0x03	; 3
    49fa:	8c 93       	st	X, r24
					count = countMax;
    49fc:	11 96       	adiw	r26, 0x01	; 1
    49fe:	2c 93       	st	X, r18
    4a00:	11 97       	sbiw	r26, 0x01	; 1
				}
			}
			return tr_int;// ? 0 : 0xff;
    4a02:	13 96       	adiw	r26, 0x03	; 3
    4a04:	8c 91       	ld	r24, X
    (void)__s;
}

static __inline__ void __iRestore(const  uint8_t *__s)
{
    SREG = *__s;
    4a06:	9f bf       	out	0x3f, r25	; 63
    4a08:	96 89       	ldd	r25, Z+22	; 0x16
    4a0a:	89 2b       	or	r24, r25
    4a0c:	86 8b       	std	Z+22, r24	; 0x16
	keyX |= line2->Cirle(__port(s).bit2) << 1;
    4a0e:	89 81       	ldd	r24, Y+1	; 0x01
    4a10:	82 fb       	bst	r24, 2
    4a12:	88 27       	eor	r24, r24
    4a14:	80 f9       	bld	r24, 0
    4a16:	a3 81       	ldd	r26, Z+3	; 0x03
    4a18:	b4 81       	ldd	r27, Z+4	; 0x04
		countMax = max;
		tr = tr_int = false;
	}
	unsigned char Cirle(unsigned char s)
	{
		CRITICAL_SECTION
    4a1a:	9f b7       	in	r25, 0x3f	; 63
    return 1;
}

static __inline__ uint8_t __iCliRetVal(void)
{
    cli();
    4a1c:	f8 94       	cli
		{
			if (s)
    4a1e:	88 23       	and	r24, r24
    4a20:	a9 f0       	breq	.+42     	; 0x4a4c <_ZN7tc_key49InterruptEv+0xd4>
			{
				if (count>(ST)0) count--;
    4a22:	11 96       	adiw	r26, 0x01	; 1
    4a24:	8c 91       	ld	r24, X
    4a26:	11 97       	sbiw	r26, 0x01	; 1
    4a28:	88 23       	and	r24, r24
    4a2a:	31 f0       	breq	.+12     	; 0x4a38 <_ZN7tc_key49InterruptEv+0xc0>
    4a2c:	81 50       	subi	r24, 0x01	; 1
    4a2e:	11 96       	adiw	r26, 0x01	; 1
    4a30:	8c 93       	st	X, r24
    4a32:	11 97       	sbiw	r26, 0x01	; 1
				if ((count==(ST)0) && tr_int)
    4a34:	81 11       	cpse	r24, r1
    4a36:	25 c0       	rjmp	.+74     	; 0x4a82 <_ZN7tc_key49InterruptEv+0x10a>
    4a38:	13 96       	adiw	r26, 0x03	; 3
    4a3a:	8c 91       	ld	r24, X
    4a3c:	13 97       	sbiw	r26, 0x03	; 3
    4a3e:	88 23       	and	r24, r24
    4a40:	01 f1       	breq	.+64     	; 0x4a82 <_ZN7tc_key49InterruptEv+0x10a>
				tr = tr_int = false;
    4a42:	13 96       	adiw	r26, 0x03	; 3
    4a44:	1c 92       	st	X, r1
    4a46:	13 97       	sbiw	r26, 0x03	; 3
    4a48:	1c 92       	st	X, r1
    4a4a:	1b c0       	rjmp	.+54     	; 0x4a82 <_ZN7tc_key49InterruptEv+0x10a>
			}
			else
			{
				if (count<countMax) count++;
    4a4c:	11 96       	adiw	r26, 0x01	; 1
    4a4e:	8c 91       	ld	r24, X
    4a50:	11 97       	sbiw	r26, 0x01	; 1
    4a52:	12 96       	adiw	r26, 0x02	; 2
    4a54:	2c 91       	ld	r18, X
    4a56:	12 97       	sbiw	r26, 0x02	; 2
    4a58:	82 17       	cp	r24, r18
    4a5a:	30 f4       	brcc	.+12     	; 0x4a68 <_ZN7tc_key49InterruptEv+0xf0>
    4a5c:	8f 5f       	subi	r24, 0xFF	; 255
    4a5e:	11 96       	adiw	r26, 0x01	; 1
    4a60:	8c 93       	st	X, r24
    4a62:	11 97       	sbiw	r26, 0x01	; 1
				if ((count>=countMax) && !tr_int)
    4a64:	82 17       	cp	r24, r18
    4a66:	68 f0       	brcs	.+26     	; 0x4a82 <_ZN7tc_key49InterruptEv+0x10a>
    4a68:	13 96       	adiw	r26, 0x03	; 3
    4a6a:	8c 91       	ld	r24, X
    4a6c:	13 97       	sbiw	r26, 0x03	; 3
    4a6e:	81 11       	cpse	r24, r1
    4a70:	08 c0       	rjmp	.+16     	; 0x4a82 <_ZN7tc_key49InterruptEv+0x10a>
				{
					tr = tr_int = true;
    4a72:	81 e0       	ldi	r24, 0x01	; 1
    4a74:	13 96       	adiw	r26, 0x03	; 3
    4a76:	8c 93       	st	X, r24
    4a78:	13 97       	sbiw	r26, 0x03	; 3
    4a7a:	8c 93       	st	X, r24
					count = countMax;
    4a7c:	11 96       	adiw	r26, 0x01	; 1
    4a7e:	2c 93       	st	X, r18
    4a80:	11 97       	sbiw	r26, 0x01	; 1
				}
			}
			return tr_int;// ? 0 : 0xff;
    4a82:	13 96       	adiw	r26, 0x03	; 3
    4a84:	8c 91       	ld	r24, X
    (void)__s;
}

static __inline__ void __iRestore(const  uint8_t *__s)
{
    SREG = *__s;
    4a86:	9f bf       	out	0x3f, r25	; 63
    4a88:	90 e0       	ldi	r25, 0x00	; 0
    4a8a:	88 0f       	add	r24, r24
    4a8c:	99 1f       	adc	r25, r25
    4a8e:	26 89       	ldd	r18, Z+22	; 0x16
    4a90:	82 2b       	or	r24, r18
    4a92:	86 8b       	std	Z+22, r24	; 0x16
	keyX |= line3->Cirle(__port(s).bit1) << 2;
    4a94:	89 81       	ldd	r24, Y+1	; 0x01
    4a96:	86 95       	lsr	r24
    4a98:	81 70       	andi	r24, 0x01	; 1
    4a9a:	a5 81       	ldd	r26, Z+5	; 0x05
    4a9c:	b6 81       	ldd	r27, Z+6	; 0x06
		countMax = max;
		tr = tr_int = false;
	}
	unsigned char Cirle(unsigned char s)
	{
		CRITICAL_SECTION
    4a9e:	9f b7       	in	r25, 0x3f	; 63
    return 1;
}

static __inline__ uint8_t __iCliRetVal(void)
{
    cli();
    4aa0:	f8 94       	cli
		{
			if (s)
    4aa2:	88 23       	and	r24, r24
    4aa4:	a9 f0       	breq	.+42     	; 0x4ad0 <_ZN7tc_key49InterruptEv+0x158>
			{
				if (count>(ST)0) count--;
    4aa6:	11 96       	adiw	r26, 0x01	; 1
    4aa8:	8c 91       	ld	r24, X
    4aaa:	11 97       	sbiw	r26, 0x01	; 1
    4aac:	88 23       	and	r24, r24
    4aae:	31 f0       	breq	.+12     	; 0x4abc <_ZN7tc_key49InterruptEv+0x144>
    4ab0:	81 50       	subi	r24, 0x01	; 1
    4ab2:	11 96       	adiw	r26, 0x01	; 1
    4ab4:	8c 93       	st	X, r24
    4ab6:	11 97       	sbiw	r26, 0x01	; 1
				if ((count==(ST)0) && tr_int)
    4ab8:	81 11       	cpse	r24, r1
    4aba:	25 c0       	rjmp	.+74     	; 0x4b06 <_ZN7tc_key49InterruptEv+0x18e>
    4abc:	13 96       	adiw	r26, 0x03	; 3
    4abe:	8c 91       	ld	r24, X
    4ac0:	13 97       	sbiw	r26, 0x03	; 3
    4ac2:	88 23       	and	r24, r24
    4ac4:	01 f1       	breq	.+64     	; 0x4b06 <_ZN7tc_key49InterruptEv+0x18e>
				tr = tr_int = false;
    4ac6:	13 96       	adiw	r26, 0x03	; 3
    4ac8:	1c 92       	st	X, r1
    4aca:	13 97       	sbiw	r26, 0x03	; 3
    4acc:	1c 92       	st	X, r1
    4ace:	1b c0       	rjmp	.+54     	; 0x4b06 <_ZN7tc_key49InterruptEv+0x18e>
			}
			else
			{
				if (count<countMax) count++;
    4ad0:	11 96       	adiw	r26, 0x01	; 1
    4ad2:	8c 91       	ld	r24, X
    4ad4:	11 97       	sbiw	r26, 0x01	; 1
    4ad6:	12 96       	adiw	r26, 0x02	; 2
    4ad8:	2c 91       	ld	r18, X
    4ada:	12 97       	sbiw	r26, 0x02	; 2
    4adc:	82 17       	cp	r24, r18
    4ade:	30 f4       	brcc	.+12     	; 0x4aec <_ZN7tc_key49InterruptEv+0x174>
    4ae0:	8f 5f       	subi	r24, 0xFF	; 255
    4ae2:	11 96       	adiw	r26, 0x01	; 1
    4ae4:	8c 93       	st	X, r24
    4ae6:	11 97       	sbiw	r26, 0x01	; 1
				if ((count>=countMax) && !tr_int)
    4ae8:	82 17       	cp	r24, r18
    4aea:	68 f0       	brcs	.+26     	; 0x4b06 <_ZN7tc_key49InterruptEv+0x18e>
    4aec:	13 96       	adiw	r26, 0x03	; 3
    4aee:	8c 91       	ld	r24, X
    4af0:	13 97       	sbiw	r26, 0x03	; 3
    4af2:	81 11       	cpse	r24, r1
    4af4:	08 c0       	rjmp	.+16     	; 0x4b06 <_ZN7tc_key49InterruptEv+0x18e>
				{
					tr = tr_int = true;
    4af6:	81 e0       	ldi	r24, 0x01	; 1
    4af8:	13 96       	adiw	r26, 0x03	; 3
    4afa:	8c 93       	st	X, r24
    4afc:	13 97       	sbiw	r26, 0x03	; 3
    4afe:	8c 93       	st	X, r24
					count = countMax;
    4b00:	11 96       	adiw	r26, 0x01	; 1
    4b02:	2c 93       	st	X, r18
    4b04:	11 97       	sbiw	r26, 0x01	; 1
				}
			}
			return tr_int;// ? 0 : 0xff;
    4b06:	13 96       	adiw	r26, 0x03	; 3
    4b08:	8c 91       	ld	r24, X
    (void)__s;
}

static __inline__ void __iRestore(const  uint8_t *__s)
{
    SREG = *__s;
    4b0a:	9f bf       	out	0x3f, r25	; 63
    4b0c:	90 e0       	ldi	r25, 0x00	; 0
    4b0e:	88 0f       	add	r24, r24
    4b10:	99 1f       	adc	r25, r25
    4b12:	88 0f       	add	r24, r24
    4b14:	99 1f       	adc	r25, r25
    4b16:	26 89       	ldd	r18, Z+22	; 0x16
    4b18:	82 2b       	or	r24, r18
    4b1a:	86 8b       	std	Z+22, r24	; 0x16
	keyX |= line4->Cirle(__port(s).bit0) << 3;
    4b1c:	89 81       	ldd	r24, Y+1	; 0x01
    4b1e:	81 70       	andi	r24, 0x01	; 1
    4b20:	a7 81       	ldd	r26, Z+7	; 0x07
    4b22:	b0 85       	ldd	r27, Z+8	; 0x08
		countMax = max;
		tr = tr_int = false;
	}
	unsigned char Cirle(unsigned char s)
	{
		CRITICAL_SECTION
    4b24:	9f b7       	in	r25, 0x3f	; 63
    return 1;
}

static __inline__ uint8_t __iCliRetVal(void)
{
    cli();
    4b26:	f8 94       	cli
		{
			if (s)
    4b28:	88 23       	and	r24, r24
    4b2a:	a9 f0       	breq	.+42     	; 0x4b56 <_ZN7tc_key49InterruptEv+0x1de>
			{
				if (count>(ST)0) count--;
    4b2c:	11 96       	adiw	r26, 0x01	; 1
    4b2e:	8c 91       	ld	r24, X
    4b30:	11 97       	sbiw	r26, 0x01	; 1
    4b32:	88 23       	and	r24, r24
    4b34:	31 f0       	breq	.+12     	; 0x4b42 <_ZN7tc_key49InterruptEv+0x1ca>
    4b36:	81 50       	subi	r24, 0x01	; 1
    4b38:	11 96       	adiw	r26, 0x01	; 1
    4b3a:	8c 93       	st	X, r24
    4b3c:	11 97       	sbiw	r26, 0x01	; 1
				if ((count==(ST)0) && tr_int)
    4b3e:	81 11       	cpse	r24, r1
    4b40:	25 c0       	rjmp	.+74     	; 0x4b8c <_ZN7tc_key49InterruptEv+0x214>
    4b42:	13 96       	adiw	r26, 0x03	; 3
    4b44:	8c 91       	ld	r24, X
    4b46:	13 97       	sbiw	r26, 0x03	; 3
    4b48:	88 23       	and	r24, r24
    4b4a:	01 f1       	breq	.+64     	; 0x4b8c <_ZN7tc_key49InterruptEv+0x214>
				tr = tr_int = false;
    4b4c:	13 96       	adiw	r26, 0x03	; 3
    4b4e:	1c 92       	st	X, r1
    4b50:	13 97       	sbiw	r26, 0x03	; 3
    4b52:	1c 92       	st	X, r1
    4b54:	1b c0       	rjmp	.+54     	; 0x4b8c <_ZN7tc_key49InterruptEv+0x214>
			}
			else
			{
				if (count<countMax) count++;
    4b56:	11 96       	adiw	r26, 0x01	; 1
    4b58:	8c 91       	ld	r24, X
    4b5a:	11 97       	sbiw	r26, 0x01	; 1
    4b5c:	12 96       	adiw	r26, 0x02	; 2
    4b5e:	2c 91       	ld	r18, X
    4b60:	12 97       	sbiw	r26, 0x02	; 2
    4b62:	82 17       	cp	r24, r18
    4b64:	30 f4       	brcc	.+12     	; 0x4b72 <_ZN7tc_key49InterruptEv+0x1fa>
    4b66:	8f 5f       	subi	r24, 0xFF	; 255
    4b68:	11 96       	adiw	r26, 0x01	; 1
    4b6a:	8c 93       	st	X, r24
    4b6c:	11 97       	sbiw	r26, 0x01	; 1
				if ((count>=countMax) && !tr_int)
    4b6e:	82 17       	cp	r24, r18
    4b70:	68 f0       	brcs	.+26     	; 0x4b8c <_ZN7tc_key49InterruptEv+0x214>
    4b72:	13 96       	adiw	r26, 0x03	; 3
    4b74:	8c 91       	ld	r24, X
    4b76:	13 97       	sbiw	r26, 0x03	; 3
    4b78:	81 11       	cpse	r24, r1
    4b7a:	08 c0       	rjmp	.+16     	; 0x4b8c <_ZN7tc_key49InterruptEv+0x214>
				{
					tr = tr_int = true;
    4b7c:	81 e0       	ldi	r24, 0x01	; 1
    4b7e:	13 96       	adiw	r26, 0x03	; 3
    4b80:	8c 93       	st	X, r24
    4b82:	13 97       	sbiw	r26, 0x03	; 3
    4b84:	8c 93       	st	X, r24
					count = countMax;
    4b86:	11 96       	adiw	r26, 0x01	; 1
    4b88:	2c 93       	st	X, r18
    4b8a:	11 97       	sbiw	r26, 0x01	; 1
				}
			}
			return tr_int;// ? 0 : 0xff;
    4b8c:	13 96       	adiw	r26, 0x03	; 3
    4b8e:	8c 91       	ld	r24, X
    (void)__s;
}

static __inline__ void __iRestore(const  uint8_t *__s)
{
    SREG = *__s;
    4b90:	9f bf       	out	0x3f, r25	; 63
    4b92:	90 e0       	ldi	r25, 0x00	; 0
    4b94:	88 0f       	add	r24, r24
    4b96:	99 1f       	adc	r25, r25
    4b98:	88 0f       	add	r24, r24
    4b9a:	99 1f       	adc	r25, r25
    4b9c:	88 0f       	add	r24, r24
    4b9e:	99 1f       	adc	r25, r25
    4ba0:	26 89       	ldd	r18, Z+22	; 0x16
    4ba2:	82 2b       	or	r24, r18
    4ba4:	86 8b       	std	Z+22, r24	; 0x16
	//
	if (oldKey1!=keyX)
    4ba6:	23 85       	ldd	r18, Z+11	; 0x0b
    4ba8:	28 17       	cp	r18, r24
    4baa:	69 f0       	breq	.+26     	; 0x4bc6 <_ZN7tc_key49InterruptEv+0x24e>
	{
		if (countL1>0)	countL1--;
    4bac:	21 85       	ldd	r18, Z+9	; 0x09
    4bae:	32 85       	ldd	r19, Z+10	; 0x0a
    4bb0:	21 15       	cp	r18, r1
    4bb2:	31 05       	cpc	r19, r1
    4bb4:	31 f0       	breq	.+12     	; 0x4bc2 <_ZN7tc_key49InterruptEv+0x24a>
    4bb6:	21 50       	subi	r18, 0x01	; 1
    4bb8:	31 09       	sbc	r19, r1
    4bba:	32 87       	std	Z+10, r19	; 0x0a
    4bbc:	21 87       	std	Z+9, r18	; 0x09
		if (countL1==0)
    4bbe:	23 2b       	or	r18, r19
    4bc0:	91 f4       	brne	.+36     	; 0x4be6 <_ZN7tc_key49InterruptEv+0x26e>
		{
			oldKey1 = keyX;
    4bc2:	83 87       	std	Z+11, r24	; 0x0b
    4bc4:	10 c0       	rjmp	.+32     	; 0x4be6 <_ZN7tc_key49InterruptEv+0x26e>
		}
	}
	else
	{
		if (countL1<TIME_STAB) countL1++;
    4bc6:	81 85       	ldd	r24, Z+9	; 0x09
    4bc8:	92 85       	ldd	r25, Z+10	; 0x0a
    4bca:	88 32       	cpi	r24, 0x28	; 40
    4bcc:	91 05       	cpc	r25, r1
    4bce:	28 f4       	brcc	.+10     	; 0x4bda <_ZN7tc_key49InterruptEv+0x262>
    4bd0:	01 96       	adiw	r24, 0x01	; 1
    4bd2:	92 87       	std	Z+10, r25	; 0x0a
    4bd4:	81 87       	std	Z+9, r24	; 0x09
		if (countL1>=TIME_STAB)
    4bd6:	88 97       	sbiw	r24, 0x28	; 40
    4bd8:	30 f0       	brcs	.+12     	; 0x4be6 <_ZN7tc_key49InterruptEv+0x26e>
    4bda:	cf 01       	movw	r24, r30
		{
			countL1 = TIME_STAB;
    4bdc:	28 e2       	ldi	r18, 0x28	; 40
    4bde:	30 e0       	ldi	r19, 0x00	; 0
    4be0:	32 87       	std	Z+10, r19	; 0x0a
    4be2:	21 87       	std	Z+9, r18	; 0x09
			Select();
    4be4:	64 de       	rcall	.-824    	; 0x48ae <_ZN7tc_key46SelectEv>
		}
	}
}
    4be6:	0f 90       	pop	r0
    4be8:	df 91       	pop	r29
    4bea:	cf 91       	pop	r28
    4bec:	08 95       	ret

00004bee <_ZN7tc_key44ReadEPh>:
		head = adr;
	}
}

unsigned char tc_key4::Read(unsigned char* key)
{
    4bee:	fc 01       	movw	r30, r24
	unsigned char k = 0;
	CRITICAL_SECTION
    4bf0:	2f b7       	in	r18, 0x3f	; 63
    return 1;
}

static __inline__ uint8_t __iCliRetVal(void)
{
    cli();
    4bf2:	f8 94       	cli
	{
		if (tail == head)
    4bf4:	85 89       	ldd	r24, Z+21	; 0x15
    4bf6:	94 89       	ldd	r25, Z+20	; 0x14
    4bf8:	89 13       	cpse	r24, r25
    4bfa:	04 c0       	rjmp	.+8      	; 0x4c04 <_ZN7tc_key44ReadEPh+0x16>
		{
			*key = 0;
    4bfc:	db 01       	movw	r26, r22
    4bfe:	1c 92       	st	X, r1
			return k;
    4c00:	80 e0       	ldi	r24, 0x00	; 0
    4c02:	22 c0       	rjmp	.+68     	; 0x4c48 <_ZN7tc_key44ReadEPh+0x5a>
		}
		*key = buffer[tail];
    4c04:	a2 89       	ldd	r26, Z+18	; 0x12
    4c06:	b3 89       	ldd	r27, Z+19	; 0x13
    4c08:	a8 0f       	add	r26, r24
    4c0a:	b1 1d       	adc	r27, r1
    4c0c:	8c 91       	ld	r24, X
    4c0e:	db 01       	movw	r26, r22
    4c10:	8c 93       	st	X, r24
		tail = norm(tail+1);
    4c12:	85 89       	ldd	r24, Z+21	; 0x15
    4c14:	91 e0       	ldi	r25, 0x01	; 1
    4c16:	98 0f       	add	r25, r24
	return xx;
}

unsigned char tc_key4::norm(unsigned char idx)
{
	while(idx >= KEY_BUFFER)
    4c18:	90 31       	cpi	r25, 0x10	; 16
    4c1a:	30 f0       	brcs	.+12     	; 0x4c28 <_ZN7tc_key44ReadEPh+0x3a>
		idx -= KEY_BUFFER;
    4c1c:	90 51       	subi	r25, 0x10	; 16
	return xx;
}

unsigned char tc_key4::norm(unsigned char idx)
{
	while(idx >= KEY_BUFFER)
    4c1e:	90 31       	cpi	r25, 0x10	; 16
    4c20:	e8 f7       	brcc	.-6      	; 0x4c1c <_ZN7tc_key44ReadEPh+0x2e>
    4c22:	91 ef       	ldi	r25, 0xF1	; 241
    4c24:	98 0f       	add	r25, r24
    4c26:	9f 70       	andi	r25, 0x0F	; 15
		{
			*key = 0;
			return k;
		}
		*key = buffer[tail];
		tail = norm(tail+1);
    4c28:	95 8b       	std	Z+21, r25	; 0x15
		if (*key == KEY1) k = 1;
    4c2a:	fb 01       	movw	r30, r22
    4c2c:	80 81       	ld	r24, Z
    4c2e:	81 30       	cpi	r24, 0x01	; 1
    4c30:	59 f0       	breq	.+22     	; 0x4c48 <_ZN7tc_key44ReadEPh+0x5a>
		else
		if (*key == KEY2) k = 2;
    4c32:	82 30       	cpi	r24, 0x02	; 2
    4c34:	49 f0       	breq	.+18     	; 0x4c48 <_ZN7tc_key44ReadEPh+0x5a>
		else
		if (*key == KEY3) k = 3;
    4c36:	84 30       	cpi	r24, 0x04	; 4
    4c38:	21 f0       	breq	.+8      	; 0x4c42 <_ZN7tc_key44ReadEPh+0x54>
		else
		if (*key == KEY4) k = 4;
    4c3a:	88 30       	cpi	r24, 0x08	; 8
    4c3c:	21 f0       	breq	.+8      	; 0x4c46 <_ZN7tc_key44ReadEPh+0x58>
		else k = 5;
    4c3e:	85 e0       	ldi	r24, 0x05	; 5
    4c40:	03 c0       	rjmp	.+6      	; 0x4c48 <_ZN7tc_key44ReadEPh+0x5a>
		tail = norm(tail+1);
		if (*key == KEY1) k = 1;
		else
		if (*key == KEY2) k = 2;
		else
		if (*key == KEY3) k = 3;
    4c42:	83 e0       	ldi	r24, 0x03	; 3
    4c44:	01 c0       	rjmp	.+2      	; 0x4c48 <_ZN7tc_key44ReadEPh+0x5a>
		else
		if (*key == KEY4) k = 4;
    4c46:	84 e0       	ldi	r24, 0x04	; 4
    (void)__s;
}

static __inline__ void __iRestore(const  uint8_t *__s)
{
    SREG = *__s;
    4c48:	2f bf       	out	0x3f, r18	; 63
		else k = 5;
		return k;
	}
	return 0;
}
    4c4a:	08 95       	ret

00004c4c <_ZN6ns_lcd4SendEh>:
	}
	// ==================================================
	void Hex(uint8_t pos, uint8_t dig)
	{
		Hex(&pos, dig);
	}
    4c4c:	28 2f       	mov	r18, r24
    4c4e:	22 95       	swap	r18
    4c50:	2f 70       	andi	r18, 0x0F	; 15
    4c52:	9b b3       	in	r25, 0x1b	; 27
    4c54:	90 7f       	andi	r25, 0xF0	; 240
    4c56:	92 2b       	or	r25, r18
    4c58:	9b bb       	out	0x1b, r25	; 27
    4c5a:	dc 9a       	sbi	0x1b, 4	; 27
    4c5c:	93 e0       	ldi	r25, 0x03	; 3
    4c5e:	9a 95       	dec	r25
    4c60:	f1 f7       	brne	.-4      	; 0x4c5e <_ZN6ns_lcd4SendEh+0x12>
    4c62:	00 00       	nop
    4c64:	dc 98       	cbi	0x1b, 4	; 27
    4c66:	93 e0       	ldi	r25, 0x03	; 3
    4c68:	9a 95       	dec	r25
    4c6a:	f1 f7       	brne	.-4      	; 0x4c68 <_ZN6ns_lcd4SendEh+0x1c>
    4c6c:	00 00       	nop
    4c6e:	8f 70       	andi	r24, 0x0F	; 15
    4c70:	9b b3       	in	r25, 0x1b	; 27
    4c72:	90 7f       	andi	r25, 0xF0	; 240
    4c74:	89 2b       	or	r24, r25
    4c76:	8b bb       	out	0x1b, r24	; 27
    4c78:	dc 9a       	sbi	0x1b, 4	; 27
    4c7a:	83 e0       	ldi	r24, 0x03	; 3
    4c7c:	8a 95       	dec	r24
    4c7e:	f1 f7       	brne	.-4      	; 0x4c7c <_ZN6ns_lcd4SendEh+0x30>
    4c80:	00 00       	nop
    4c82:	dc 98       	cbi	0x1b, 4	; 27
    4c84:	93 e0       	ldi	r25, 0x03	; 3
    4c86:	9a 95       	dec	r25
    4c88:	f1 f7       	brne	.-4      	; 0x4c86 <_ZN6ns_lcd4SendEh+0x3a>
    4c8a:	00 00       	nop
    4c8c:	08 95       	ret

00004c8e <_ZN6ns_lcd11SendCommandEh>:
    4c8e:	cf 93       	push	r28
    4c90:	cf b7       	in	r28, 0x3f	; 63
    4c92:	f8 94       	cli
    4c94:	dd 98       	cbi	0x1b, 5	; 27
    4c96:	e7 ec       	ldi	r30, 0xC7	; 199
    4c98:	f0 e0       	ldi	r31, 0x00	; 0
    4c9a:	31 97       	sbiw	r30, 0x01	; 1
    4c9c:	f1 f7       	brne	.-4      	; 0x4c9a <_ZN6ns_lcd11SendCommandEh+0xc>
    4c9e:	00 c0       	rjmp	.+0      	; 0x4ca0 <_ZN6ns_lcd11SendCommandEh+0x12>
    4ca0:	00 00       	nop
    4ca2:	d4 df       	rcall	.-88     	; 0x4c4c <_ZN6ns_lcd4SendEh>
    4ca4:	cf bf       	out	0x3f, r28	; 63
    4ca6:	cf 91       	pop	r28
    4ca8:	08 95       	ret

00004caa <_ZN6ns_lcd8SendDataEh>:
    4caa:	cf 93       	push	r28
    4cac:	cf b7       	in	r28, 0x3f	; 63
    4cae:	f8 94       	cli
    4cb0:	dd 9a       	sbi	0x1b, 5	; 27
    4cb2:	e7 ec       	ldi	r30, 0xC7	; 199
    4cb4:	f0 e0       	ldi	r31, 0x00	; 0
    4cb6:	31 97       	sbiw	r30, 0x01	; 1
    4cb8:	f1 f7       	brne	.-4      	; 0x4cb6 <_ZN6ns_lcd8SendDataEh+0xc>
    4cba:	00 c0       	rjmp	.+0      	; 0x4cbc <_ZN6ns_lcd8SendDataEh+0x12>
    4cbc:	00 00       	nop
    4cbe:	c6 df       	rcall	.-116    	; 0x4c4c <_ZN6ns_lcd4SendEh>
    4cc0:	cf bf       	out	0x3f, r28	; 63
    4cc2:	cf 91       	pop	r28
    4cc4:	08 95       	ret

00004cc6 <_ZN6ns_lcd5ClearEv>:
    4cc6:	80 91 ed 01 	lds	r24, 0x01ED	; 0x8001ed <_ZN6ns_lcd6maxPosE>
    4cca:	88 23       	and	r24, r24
    4ccc:	71 f0       	breq	.+28     	; 0x4cea <_ZN6ns_lcd5ClearEv+0x24>
    4cce:	80 e0       	ldi	r24, 0x00	; 0
    4cd0:	20 e2       	ldi	r18, 0x20	; 32
    4cd2:	e0 91 eb 01 	lds	r30, 0x01EB	; 0x8001eb <_ZN6ns_lcd6screenE>
    4cd6:	f0 91 ec 01 	lds	r31, 0x01EC	; 0x8001ec <_ZN6ns_lcd6screenE+0x1>
    4cda:	e8 0f       	add	r30, r24
    4cdc:	f1 1d       	adc	r31, r1
    4cde:	20 83       	st	Z, r18
    4ce0:	8f 5f       	subi	r24, 0xFF	; 255
    4ce2:	90 91 ed 01 	lds	r25, 0x01ED	; 0x8001ed <_ZN6ns_lcd6maxPosE>
    4ce6:	89 17       	cp	r24, r25
    4ce8:	a0 f3       	brcs	.-24     	; 0x4cd2 <_ZN6ns_lcd5ClearEv+0xc>
    4cea:	e3 ee       	ldi	r30, 0xE3	; 227
    4cec:	f1 e0       	ldi	r31, 0x01	; 1
    4cee:	10 82       	st	Z, r1
    4cf0:	11 82       	std	Z+1, r1	; 0x01
    4cf2:	12 82       	std	Z+2, r1	; 0x02
    4cf4:	13 82       	std	Z+3, r1	; 0x03
    4cf6:	14 82       	std	Z+4, r1	; 0x04
    4cf8:	15 82       	std	Z+5, r1	; 0x05
    4cfa:	16 82       	std	Z+6, r1	; 0x06
    4cfc:	17 82       	std	Z+7, r1	; 0x07
    4cfe:	10 92 e0 01 	sts	0x01E0, r1	; 0x8001e0 <_ZN6ns_lcd3posE>
    4d02:	08 95       	ret

00004d04 <_ZN6ns_lcd4InitEh>:
    4d04:	0f 93       	push	r16
    4d06:	1f 93       	push	r17
    4d08:	cf 93       	push	r28
    4d0a:	df 93       	push	r29
    4d0c:	9a b3       	in	r25, 0x1a	; 26
    4d0e:	9f 60       	ori	r25, 0x0F	; 15
    4d10:	9a bb       	out	0x1a, r25	; 26
    4d12:	9b b3       	in	r25, 0x1b	; 27
    4d14:	9f 60       	ori	r25, 0x0F	; 15
    4d16:	9b bb       	out	0x1b, r25	; 27
    4d18:	d4 9a       	sbi	0x1a, 4	; 26
    4d1a:	dc 9a       	sbi	0x1b, 4	; 27
    4d1c:	d5 9a       	sbi	0x1a, 5	; 26
    4d1e:	dd 9a       	sbi	0x1b, 5	; 27
    4d20:	2f ef       	ldi	r18, 0xFF	; 255
    4d22:	39 e6       	ldi	r19, 0x69	; 105
    4d24:	98 e1       	ldi	r25, 0x18	; 24
    4d26:	21 50       	subi	r18, 0x01	; 1
    4d28:	30 40       	sbci	r19, 0x00	; 0
    4d2a:	90 40       	sbci	r25, 0x00	; 0
    4d2c:	e1 f7       	brne	.-8      	; 0x4d26 <_ZN6ns_lcd4InitEh+0x22>
    4d2e:	00 c0       	rjmp	.+0      	; 0x4d30 <_ZN6ns_lcd4InitEh+0x2c>
    4d30:	00 00       	nop
    4d32:	80 93 2e 01 	sts	0x012E, r24	; 0x80012e <_ZN6ns_lcd10c_stolbcovE>
    4d36:	98 2f       	mov	r25, r24
    4d38:	99 0f       	add	r25, r25
    4d3a:	90 93 ed 01 	sts	0x01ED, r25	; 0x8001ed <_ZN6ns_lcd6maxPosE>
    4d3e:	90 e0       	ldi	r25, 0x00	; 0
    4d40:	88 0f       	add	r24, r24
    4d42:	99 1f       	adc	r25, r25
    4d44:	1a d4       	rcall	.+2100   	; 0x557a <_Znaj>
    4d46:	90 93 ec 01 	sts	0x01EC, r25	; 0x8001ec <_ZN6ns_lcd6screenE+0x1>
    4d4a:	80 93 eb 01 	sts	0x01EB, r24	; 0x8001eb <_ZN6ns_lcd6screenE>
    4d4e:	10 92 dd 01 	sts	0x01DD, r1	; 0x8001dd <_ZN6ns_lcd11indxRefreshE>
    4d52:	e3 ee       	ldi	r30, 0xE3	; 227
    4d54:	f1 e0       	ldi	r31, 0x01	; 1
    4d56:	f0 93 e2 01 	sts	0x01E2, r31	; 0x8001e2 <_ZN6ns_lcd11ptrScrFlashE+0x1>
    4d5a:	e0 93 e1 01 	sts	0x01E1, r30	; 0x8001e1 <_ZN6ns_lcd11ptrScrFlashE>
    4d5e:	10 92 e0 01 	sts	0x01E0, r1	; 0x8001e0 <_ZN6ns_lcd3posE>
    4d62:	10 82       	st	Z, r1
    4d64:	11 82       	std	Z+1, r1	; 0x01
    4d66:	12 82       	std	Z+2, r1	; 0x02
    4d68:	13 82       	std	Z+3, r1	; 0x03
    4d6a:	14 82       	std	Z+4, r1	; 0x04
    4d6c:	15 82       	std	Z+5, r1	; 0x05
    4d6e:	16 82       	std	Z+6, r1	; 0x06
    4d70:	17 82       	std	Z+7, r1	; 0x07
    4d72:	10 92 df 01 	sts	0x01DF, r1	; 0x8001df <_ZN6ns_lcd13scrFlashCountE+0x1>
    4d76:	10 92 de 01 	sts	0x01DE, r1	; 0x8001de <_ZN6ns_lcd13scrFlashCountE>
    4d7a:	10 92 dc 01 	sts	0x01DC, r1	; 0x8001dc <_ZN6ns_lcd7flickerE>
    4d7e:	88 e2       	ldi	r24, 0x28	; 40
    4d80:	86 df       	rcall	.-244    	; 0x4c8e <_ZN6ns_lcd11SendCommandEh>
    4d82:	ef e3       	ldi	r30, 0x3F	; 63
    4d84:	ff e1       	ldi	r31, 0x1F	; 31
    4d86:	31 97       	sbiw	r30, 0x01	; 1
    4d88:	f1 f7       	brne	.-4      	; 0x4d86 <_ZN6ns_lcd4InitEh+0x82>
    4d8a:	00 c0       	rjmp	.+0      	; 0x4d8c <_ZN6ns_lcd4InitEh+0x88>
    4d8c:	00 00       	nop
    4d8e:	88 e2       	ldi	r24, 0x28	; 40
    4d90:	7e df       	rcall	.-260    	; 0x4c8e <_ZN6ns_lcd11SendCommandEh>
    4d92:	8f e3       	ldi	r24, 0x3F	; 63
    4d94:	9f e1       	ldi	r25, 0x1F	; 31
    4d96:	01 97       	sbiw	r24, 0x01	; 1
    4d98:	f1 f7       	brne	.-4      	; 0x4d96 <_ZN6ns_lcd4InitEh+0x92>
    4d9a:	00 c0       	rjmp	.+0      	; 0x4d9c <_ZN6ns_lcd4InitEh+0x98>
    4d9c:	00 00       	nop
    4d9e:	8c e0       	ldi	r24, 0x0C	; 12
    4da0:	76 df       	rcall	.-276    	; 0x4c8e <_ZN6ns_lcd11SendCommandEh>
    4da2:	81 e0       	ldi	r24, 0x01	; 1
    4da4:	74 df       	rcall	.-280    	; 0x4c8e <_ZN6ns_lcd11SendCommandEh>
    4da6:	ef e3       	ldi	r30, 0x3F	; 63
    4da8:	ff e1       	ldi	r31, 0x1F	; 31
    4daa:	31 97       	sbiw	r30, 0x01	; 1
    4dac:	f1 f7       	brne	.-4      	; 0x4daa <_ZN6ns_lcd4InitEh+0xa6>
    4dae:	00 c0       	rjmp	.+0      	; 0x4db0 <_ZN6ns_lcd4InitEh+0xac>
    4db0:	00 00       	nop
    4db2:	86 e0       	ldi	r24, 0x06	; 6
    4db4:	6c df       	rcall	.-296    	; 0x4c8e <_ZN6ns_lcd11SendCommandEh>
    4db6:	82 e0       	ldi	r24, 0x02	; 2
    4db8:	6a df       	rcall	.-300    	; 0x4c8e <_ZN6ns_lcd11SendCommandEh>
    4dba:	8f e3       	ldi	r24, 0x3F	; 63
    4dbc:	9f e1       	ldi	r25, 0x1F	; 31
    4dbe:	01 97       	sbiw	r24, 0x01	; 1
    4dc0:	f1 f7       	brne	.-4      	; 0x4dbe <_ZN6ns_lcd4InitEh+0xba>
    4dc2:	00 c0       	rjmp	.+0      	; 0x4dc4 <_ZN6ns_lcd4InitEh+0xc0>
    4dc4:	00 00       	nop
    4dc6:	80 e8       	ldi	r24, 0x80	; 128
    4dc8:	62 df       	rcall	.-316    	; 0x4c8e <_ZN6ns_lcd11SendCommandEh>
    4dca:	ef e3       	ldi	r30, 0x3F	; 63
    4dcc:	ff e1       	ldi	r31, 0x1F	; 31
    4dce:	31 97       	sbiw	r30, 0x01	; 1
    4dd0:	f1 f7       	brne	.-4      	; 0x4dce <_ZN6ns_lcd4InitEh+0xca>
    4dd2:	00 c0       	rjmp	.+0      	; 0x4dd4 <_ZN6ns_lcd4InitEh+0xd0>
    4dd4:	00 00       	nop
    4dd6:	80 e4       	ldi	r24, 0x40	; 64
    4dd8:	5a df       	rcall	.-332    	; 0x4c8e <_ZN6ns_lcd11SendCommandEh>
    4dda:	8f e9       	ldi	r24, 0x9F	; 159
    4ddc:	9f e0       	ldi	r25, 0x0F	; 15
    4dde:	01 97       	sbiw	r24, 0x01	; 1
    4de0:	f1 f7       	brne	.-4      	; 0x4dde <_ZN6ns_lcd4InitEh+0xda>
    4de2:	00 c0       	rjmp	.+0      	; 0x4de4 <_ZN6ns_lcd4InitEh+0xe0>
    4de4:	00 00       	nop
    4de6:	c5 e0       	ldi	r28, 0x05	; 5
    4de8:	d4 e0       	ldi	r29, 0x04	; 4
    4dea:	05 e1       	ldi	r16, 0x15	; 21
    4dec:	14 e0       	ldi	r17, 0x04	; 4
    4dee:	fe 01       	movw	r30, r28
    4df0:	84 91       	lpm	r24, Z
    4df2:	5b df       	rcall	.-330    	; 0x4caa <_ZN6ns_lcd8SendDataEh>
    4df4:	f0 e5       	ldi	r31, 0x50	; 80
    4df6:	fa 95       	dec	r31
    4df8:	f1 f7       	brne	.-4      	; 0x4df6 <_ZN6ns_lcd4InitEh+0xf2>
    4dfa:	21 96       	adiw	r28, 0x01	; 1
    4dfc:	c0 17       	cp	r28, r16
    4dfe:	d1 07       	cpc	r29, r17
    4e00:	b1 f7       	brne	.-20     	; 0x4dee <_ZN6ns_lcd4InitEh+0xea>
    4e02:	80 e8       	ldi	r24, 0x80	; 128
    4e04:	44 df       	rcall	.-376    	; 0x4c8e <_ZN6ns_lcd11SendCommandEh>
    4e06:	8f e9       	ldi	r24, 0x9F	; 159
    4e08:	9f e0       	ldi	r25, 0x0F	; 15
    4e0a:	01 97       	sbiw	r24, 0x01	; 1
    4e0c:	f1 f7       	brne	.-4      	; 0x4e0a <_ZN6ns_lcd4InitEh+0x106>
    4e0e:	00 c0       	rjmp	.+0      	; 0x4e10 <_ZN6ns_lcd4InitEh+0x10c>
    4e10:	00 00       	nop
    4e12:	59 df       	rcall	.-334    	; 0x4cc6 <_ZN6ns_lcd5ClearEv>
    4e14:	60 e0       	ldi	r22, 0x00	; 0
    4e16:	70 e0       	ldi	r23, 0x00	; 0
    4e18:	8f e0       	ldi	r24, 0x0F	; 15
    4e1a:	98 e2       	ldi	r25, 0x28	; 40
    4e1c:	0e 94 12 2f 	call	0x5e24	; 0x5e24 <fdevopen>
    4e20:	df 91       	pop	r29
    4e22:	cf 91       	pop	r28
    4e24:	1f 91       	pop	r17
    4e26:	0f 91       	pop	r16
    4e28:	08 95       	ret

00004e2a <_ZN6ns_lcd9InterruptEv>:
    4e2a:	80 91 de 01 	lds	r24, 0x01DE	; 0x8001de <_ZN6ns_lcd13scrFlashCountE>
    4e2e:	90 91 df 01 	lds	r25, 0x01DF	; 0x8001df <_ZN6ns_lcd13scrFlashCountE+0x1>
    4e32:	01 96       	adiw	r24, 0x01	; 1
    4e34:	81 15       	cp	r24, r1
    4e36:	24 e0       	ldi	r18, 0x04	; 4
    4e38:	92 07       	cpc	r25, r18
    4e3a:	28 f4       	brcc	.+10     	; 0x4e46 <_ZN6ns_lcd9InterruptEv+0x1c>
    4e3c:	90 93 df 01 	sts	0x01DF, r25	; 0x8001df <_ZN6ns_lcd13scrFlashCountE+0x1>
    4e40:	80 93 de 01 	sts	0x01DE, r24	; 0x8001de <_ZN6ns_lcd13scrFlashCountE>
    4e44:	04 c0       	rjmp	.+8      	; 0x4e4e <_ZN6ns_lcd9InterruptEv+0x24>
    4e46:	10 92 df 01 	sts	0x01DF, r1	; 0x8001df <_ZN6ns_lcd13scrFlashCountE+0x1>
    4e4a:	10 92 de 01 	sts	0x01DE, r1	; 0x8001de <_ZN6ns_lcd13scrFlashCountE>
    4e4e:	80 91 dd 01 	lds	r24, 0x01DD	; 0x8001dd <_ZN6ns_lcd11indxRefreshE>
    4e52:	8f 5f       	subi	r24, 0xFF	; 255
    4e54:	80 93 dd 01 	sts	0x01DD, r24	; 0x8001dd <_ZN6ns_lcd11indxRefreshE>
    4e58:	90 91 dd 01 	lds	r25, 0x01DD	; 0x8001dd <_ZN6ns_lcd11indxRefreshE>
    4e5c:	80 91 ed 01 	lds	r24, 0x01ED	; 0x8001ed <_ZN6ns_lcd6maxPosE>
    4e60:	98 17       	cp	r25, r24
    4e62:	50 f0       	brcs	.+20     	; 0x4e78 <_ZN6ns_lcd9InterruptEv+0x4e>
    4e64:	10 92 dd 01 	sts	0x01DD, r1	; 0x8001dd <_ZN6ns_lcd11indxRefreshE>
    4e68:	83 ee       	ldi	r24, 0xE3	; 227
    4e6a:	91 e0       	ldi	r25, 0x01	; 1
    4e6c:	90 93 e2 01 	sts	0x01E2, r25	; 0x8001e2 <_ZN6ns_lcd11ptrScrFlashE+0x1>
    4e70:	80 93 e1 01 	sts	0x01E1, r24	; 0x8001e1 <_ZN6ns_lcd11ptrScrFlashE>
    4e74:	80 e8       	ldi	r24, 0x80	; 128
    4e76:	0b df       	rcall	.-490    	; 0x4c8e <_ZN6ns_lcd11SendCommandEh>
    4e78:	90 91 dd 01 	lds	r25, 0x01DD	; 0x8001dd <_ZN6ns_lcd11indxRefreshE>
    4e7c:	80 91 2e 01 	lds	r24, 0x012E	; 0x80012e <_ZN6ns_lcd10c_stolbcovE>
    4e80:	98 13       	cpse	r25, r24
    4e82:	08 c0       	rjmp	.+16     	; 0x4e94 <_ZN6ns_lcd9InterruptEv+0x6a>
    4e84:	87 ee       	ldi	r24, 0xE7	; 231
    4e86:	91 e0       	ldi	r25, 0x01	; 1
    4e88:	90 93 e2 01 	sts	0x01E2, r25	; 0x8001e2 <_ZN6ns_lcd11ptrScrFlashE+0x1>
    4e8c:	80 93 e1 01 	sts	0x01E1, r24	; 0x8001e1 <_ZN6ns_lcd11ptrScrFlashE>
    4e90:	80 ec       	ldi	r24, 0xC0	; 192
    4e92:	fd de       	rcall	.-518    	; 0x4c8e <_ZN6ns_lcd11SendCommandEh>
    4e94:	87 ec       	ldi	r24, 0xC7	; 199
    4e96:	90 e0       	ldi	r25, 0x00	; 0
    4e98:	01 97       	sbiw	r24, 0x01	; 1
    4e9a:	f1 f7       	brne	.-4      	; 0x4e98 <_ZN6ns_lcd9InterruptEv+0x6e>
    4e9c:	00 c0       	rjmp	.+0      	; 0x4e9e <_ZN6ns_lcd9InterruptEv+0x74>
    4e9e:	00 00       	nop
    4ea0:	80 91 dd 01 	lds	r24, 0x01DD	; 0x8001dd <_ZN6ns_lcd11indxRefreshE>
    4ea4:	e0 91 eb 01 	lds	r30, 0x01EB	; 0x8001eb <_ZN6ns_lcd6screenE>
    4ea8:	f0 91 ec 01 	lds	r31, 0x01EC	; 0x8001ec <_ZN6ns_lcd6screenE+0x1>
    4eac:	e8 0f       	add	r30, r24
    4eae:	f1 1d       	adc	r31, r1
    4eb0:	e0 81       	ld	r30, Z
    4eb2:	ee 23       	and	r30, r30
    4eb4:	24 f4       	brge	.+8      	; 0x4ebe <_ZN6ns_lcd9InterruptEv+0x94>
    4eb6:	f0 e0       	ldi	r31, 0x00	; 0
    4eb8:	eb 56       	subi	r30, 0x6B	; 107
    4eba:	fc 4f       	sbci	r31, 0xFC	; 252
    4ebc:	e4 91       	lpm	r30, Z
    4ebe:	80 91 dd 01 	lds	r24, 0x01DD	; 0x8001dd <_ZN6ns_lcd11indxRefreshE>
    4ec2:	a0 91 e1 01 	lds	r26, 0x01E1	; 0x8001e1 <_ZN6ns_lcd11ptrScrFlashE>
    4ec6:	b0 91 e2 01 	lds	r27, 0x01E2	; 0x8001e2 <_ZN6ns_lcd11ptrScrFlashE+0x1>
    4eca:	60 91 2e 01 	lds	r22, 0x012E	; 0x80012e <_ZN6ns_lcd10c_stolbcovE>
    4ece:	3e d5       	rcall	.+2684   	; 0x594c <__udivmodqi4>
    4ed0:	29 2f       	mov	r18, r25
    4ed2:	8d 91       	ld	r24, X+
    4ed4:	9d 91       	ld	r25, X+
    4ed6:	0d 90       	ld	r0, X+
    4ed8:	bc 91       	ld	r27, X
    4eda:	a0 2d       	mov	r26, r0
    4edc:	04 c0       	rjmp	.+8      	; 0x4ee6 <_ZN6ns_lcd9InterruptEv+0xbc>
    4ede:	b6 95       	lsr	r27
    4ee0:	a7 95       	ror	r26
    4ee2:	97 95       	ror	r25
    4ee4:	87 95       	ror	r24
    4ee6:	2a 95       	dec	r18
    4ee8:	d2 f7       	brpl	.-12     	; 0x4ede <_ZN6ns_lcd9InterruptEv+0xb4>
    4eea:	80 ff       	sbrs	r24, 0
    4eec:	08 c0       	rjmp	.+16     	; 0x4efe <_ZN6ns_lcd9InterruptEv+0xd4>
    4eee:	80 91 de 01 	lds	r24, 0x01DE	; 0x8001de <_ZN6ns_lcd13scrFlashCountE>
    4ef2:	90 91 df 01 	lds	r25, 0x01DF	; 0x8001df <_ZN6ns_lcd13scrFlashCountE+0x1>
    4ef6:	81 15       	cp	r24, r1
    4ef8:	92 40       	sbci	r25, 0x02	; 2
    4efa:	08 f4       	brcc	.+2      	; 0x4efe <_ZN6ns_lcd9InterruptEv+0xd4>
    4efc:	e0 e2       	ldi	r30, 0x20	; 32
    4efe:	8e 2f       	mov	r24, r30
    4f00:	d4 ce       	rjmp	.-600    	; 0x4caa <_ZN6ns_lcd8SendDataEh>
    4f02:	08 95       	ret

00004f04 <_ZN6ns_lcd12NormalizePosEPh>:
    4f04:	fc 01       	movw	r30, r24
    4f06:	90 81       	ld	r25, Z
    4f08:	20 91 ed 01 	lds	r18, 0x01ED	; 0x8001ed <_ZN6ns_lcd6maxPosE>
    4f0c:	92 17       	cp	r25, r18
    4f0e:	30 f0       	brcs	.+12     	; 0x4f1c <_ZN6ns_lcd12NormalizePosEPh+0x18>
    4f10:	92 1b       	sub	r25, r18
    4f12:	90 83       	st	Z, r25
    4f14:	20 91 ed 01 	lds	r18, 0x01ED	; 0x8001ed <_ZN6ns_lcd6maxPosE>
    4f18:	92 17       	cp	r25, r18
    4f1a:	d0 f7       	brcc	.-12     	; 0x4f10 <_ZN6ns_lcd12NormalizePosEPh+0xc>
    4f1c:	08 95       	ret

00004f1e <_ZN6ns_lcd11SetPositionEhh>:
    4f1e:	cf 93       	push	r28
    4f20:	df 93       	push	r29
    4f22:	1f 92       	push	r1
    4f24:	cd b7       	in	r28, 0x3d	; 61
    4f26:	de b7       	in	r29, 0x3e	; 62
    4f28:	90 91 2e 01 	lds	r25, 0x012E	; 0x80012e <_ZN6ns_lcd10c_stolbcovE>
    4f2c:	69 9f       	mul	r22, r25
    4f2e:	80 0d       	add	r24, r0
    4f30:	11 24       	eor	r1, r1
    4f32:	89 83       	std	Y+1, r24	; 0x01
    4f34:	ce 01       	movw	r24, r28
    4f36:	01 96       	adiw	r24, 0x01	; 1
    4f38:	e5 df       	rcall	.-54     	; 0x4f04 <_ZN6ns_lcd12NormalizePosEPh>
    4f3a:	89 81       	ldd	r24, Y+1	; 0x01
    4f3c:	0f 90       	pop	r0
    4f3e:	df 91       	pop	r29
    4f40:	cf 91       	pop	r28
    4f42:	08 95       	ret

00004f44 <_ZN6ns_lcd7FlashFnEPhPVb>:
    4f44:	fb 01       	movw	r30, r22
    4f46:	20 81       	ld	r18, Z
    4f48:	22 23       	and	r18, r18
    4f4a:	31 f1       	breq	.+76     	; 0x4f98 <_ZN6ns_lcd7FlashFnEPhPVb+0x54>
    4f4c:	fc 01       	movw	r30, r24
    4f4e:	80 81       	ld	r24, Z
    4f50:	60 91 2e 01 	lds	r22, 0x012E	; 0x80012e <_ZN6ns_lcd10c_stolbcovE>
    4f54:	fb d4       	rcall	.+2550   	; 0x594c <__udivmodqi4>
    4f56:	29 2f       	mov	r18, r25
    4f58:	e8 2f       	mov	r30, r24
    4f5a:	f0 e0       	ldi	r31, 0x00	; 0
    4f5c:	ee 0f       	add	r30, r30
    4f5e:	ff 1f       	adc	r31, r31
    4f60:	ee 0f       	add	r30, r30
    4f62:	ff 1f       	adc	r31, r31
    4f64:	ed 51       	subi	r30, 0x1D	; 29
    4f66:	fe 4f       	sbci	r31, 0xFE	; 254
    4f68:	81 e0       	ldi	r24, 0x01	; 1
    4f6a:	90 e0       	ldi	r25, 0x00	; 0
    4f6c:	a0 e0       	ldi	r26, 0x00	; 0
    4f6e:	b0 e0       	ldi	r27, 0x00	; 0
    4f70:	04 c0       	rjmp	.+8      	; 0x4f7a <_ZN6ns_lcd7FlashFnEPhPVb+0x36>
    4f72:	88 0f       	add	r24, r24
    4f74:	99 1f       	adc	r25, r25
    4f76:	aa 1f       	adc	r26, r26
    4f78:	bb 1f       	adc	r27, r27
    4f7a:	2a 95       	dec	r18
    4f7c:	d2 f7       	brpl	.-12     	; 0x4f72 <_ZN6ns_lcd7FlashFnEPhPVb+0x2e>
    4f7e:	40 81       	ld	r20, Z
    4f80:	51 81       	ldd	r21, Z+1	; 0x01
    4f82:	62 81       	ldd	r22, Z+2	; 0x02
    4f84:	73 81       	ldd	r23, Z+3	; 0x03
    4f86:	84 2b       	or	r24, r20
    4f88:	95 2b       	or	r25, r21
    4f8a:	a6 2b       	or	r26, r22
    4f8c:	b7 2b       	or	r27, r23
    4f8e:	80 83       	st	Z, r24
    4f90:	91 83       	std	Z+1, r25	; 0x01
    4f92:	a2 83       	std	Z+2, r26	; 0x02
    4f94:	b3 83       	std	Z+3, r27	; 0x03
    4f96:	08 95       	ret
    4f98:	fc 01       	movw	r30, r24
    4f9a:	80 81       	ld	r24, Z
    4f9c:	60 91 2e 01 	lds	r22, 0x012E	; 0x80012e <_ZN6ns_lcd10c_stolbcovE>
    4fa0:	d5 d4       	rcall	.+2474   	; 0x594c <__udivmodqi4>
    4fa2:	29 2f       	mov	r18, r25
    4fa4:	e8 2f       	mov	r30, r24
    4fa6:	f0 e0       	ldi	r31, 0x00	; 0
    4fa8:	ee 0f       	add	r30, r30
    4faa:	ff 1f       	adc	r31, r31
    4fac:	ee 0f       	add	r30, r30
    4fae:	ff 1f       	adc	r31, r31
    4fb0:	ed 51       	subi	r30, 0x1D	; 29
    4fb2:	fe 4f       	sbci	r31, 0xFE	; 254
    4fb4:	81 e0       	ldi	r24, 0x01	; 1
    4fb6:	90 e0       	ldi	r25, 0x00	; 0
    4fb8:	a0 e0       	ldi	r26, 0x00	; 0
    4fba:	b0 e0       	ldi	r27, 0x00	; 0
    4fbc:	04 c0       	rjmp	.+8      	; 0x4fc6 <_ZN6ns_lcd7FlashFnEPhPVb+0x82>
    4fbe:	88 0f       	add	r24, r24
    4fc0:	99 1f       	adc	r25, r25
    4fc2:	aa 1f       	adc	r26, r26
    4fc4:	bb 1f       	adc	r27, r27
    4fc6:	2a 95       	dec	r18
    4fc8:	d2 f7       	brpl	.-12     	; 0x4fbe <_ZN6ns_lcd7FlashFnEPhPVb+0x7a>
    4fca:	80 95       	com	r24
    4fcc:	90 95       	com	r25
    4fce:	a0 95       	com	r26
    4fd0:	b0 95       	com	r27
    4fd2:	40 81       	ld	r20, Z
    4fd4:	51 81       	ldd	r21, Z+1	; 0x01
    4fd6:	62 81       	ldd	r22, Z+2	; 0x02
    4fd8:	73 81       	ldd	r23, Z+3	; 0x03
    4fda:	84 23       	and	r24, r20
    4fdc:	95 23       	and	r25, r21
    4fde:	a6 23       	and	r26, r22
    4fe0:	b7 23       	and	r27, r23
    4fe2:	80 83       	st	Z, r24
    4fe4:	91 83       	std	Z+1, r25	; 0x01
    4fe6:	a2 83       	std	Z+2, r26	; 0x02
    4fe8:	b3 83       	std	Z+3, r27	; 0x03
    4fea:	08 95       	ret

00004fec <_ZN6ns_lcd7PutCharEPhc>:
    4fec:	1f 93       	push	r17
    4fee:	cf 93       	push	r28
    4ff0:	df 93       	push	r29
    4ff2:	ec 01       	movw	r28, r24
    4ff4:	16 2f       	mov	r17, r22
    4ff6:	86 df       	rcall	.-244    	; 0x4f04 <_ZN6ns_lcd12NormalizePosEPh>
    4ff8:	6c ed       	ldi	r22, 0xDC	; 220
    4ffa:	71 e0       	ldi	r23, 0x01	; 1
    4ffc:	ce 01       	movw	r24, r28
    4ffe:	a2 df       	rcall	.-188    	; 0x4f44 <_ZN6ns_lcd7FlashFnEPhPVb>
    5000:	88 81       	ld	r24, Y
    5002:	e0 91 eb 01 	lds	r30, 0x01EB	; 0x8001eb <_ZN6ns_lcd6screenE>
    5006:	f0 91 ec 01 	lds	r31, 0x01EC	; 0x8001ec <_ZN6ns_lcd6screenE+0x1>
    500a:	e8 0f       	add	r30, r24
    500c:	f1 1d       	adc	r31, r1
    500e:	10 83       	st	Z, r17
    5010:	88 81       	ld	r24, Y
    5012:	8f 5f       	subi	r24, 0xFF	; 255
    5014:	88 83       	st	Y, r24
    5016:	df 91       	pop	r29
    5018:	cf 91       	pop	r28
    501a:	1f 91       	pop	r17
    501c:	08 95       	ret

0000501e <_ZN6ns_lcd7putCharEcP6__file>:
    501e:	68 2f       	mov	r22, r24
    5020:	80 ee       	ldi	r24, 0xE0	; 224
    5022:	91 e0       	ldi	r25, 0x01	; 1
    5024:	e3 df       	rcall	.-58     	; 0x4fec <_ZN6ns_lcd7PutCharEPhc>
    5026:	81 e0       	ldi	r24, 0x01	; 1
    5028:	90 e0       	ldi	r25, 0x00	; 0
    502a:	08 95       	ret

0000502c <_ZN6ns_lcd7PutCharEhc>:
    502c:	cf 93       	push	r28
    502e:	df 93       	push	r29
    5030:	1f 92       	push	r1
    5032:	cd b7       	in	r28, 0x3d	; 61
    5034:	de b7       	in	r29, 0x3e	; 62
    5036:	89 83       	std	Y+1, r24	; 0x01
    5038:	ce 01       	movw	r24, r28
    503a:	01 96       	adiw	r24, 0x01	; 1
    503c:	d7 df       	rcall	.-82     	; 0x4fec <_ZN6ns_lcd7PutCharEPhc>
    503e:	0f 90       	pop	r0
    5040:	df 91       	pop	r29
    5042:	cf 91       	pop	r28
    5044:	08 95       	ret

00005046 <_ZN6ns_lcd6StringEPhPKc>:
    5046:	ef 92       	push	r14
    5048:	ff 92       	push	r15
    504a:	0f 93       	push	r16
    504c:	1f 93       	push	r17
    504e:	cf 93       	push	r28
    5050:	df 93       	push	r29
    5052:	ec 01       	movw	r28, r24
    5054:	8b 01       	movw	r16, r22
    5056:	e0 90 ed 01 	lds	r14, 0x01ED	; 0x8001ed <_ZN6ns_lcd6maxPosE>
    505a:	ea 94       	dec	r14
    505c:	f1 2c       	mov	r15, r1
    505e:	8f ef       	ldi	r24, 0xFF	; 255
    5060:	e8 1a       	sub	r14, r24
    5062:	f8 0a       	sbc	r15, r24
    5064:	e6 0e       	add	r14, r22
    5066:	f7 1e       	adc	r15, r23
    5068:	17 c0       	rjmp	.+46     	; 0x5098 <_ZN6ns_lcd6StringEPhPKc+0x52>
    506a:	ce 01       	movw	r24, r28
    506c:	4b df       	rcall	.-362    	; 0x4f04 <_ZN6ns_lcd12NormalizePosEPh>
    506e:	6c ed       	ldi	r22, 0xDC	; 220
    5070:	71 e0       	ldi	r23, 0x01	; 1
    5072:	ce 01       	movw	r24, r28
    5074:	67 df       	rcall	.-306    	; 0x4f44 <_ZN6ns_lcd7FlashFnEPhPVb>
    5076:	f8 01       	movw	r30, r16
    5078:	81 91       	ld	r24, Z+
    507a:	8f 01       	movw	r16, r30
    507c:	98 81       	ld	r25, Y
    507e:	e0 91 eb 01 	lds	r30, 0x01EB	; 0x8001eb <_ZN6ns_lcd6screenE>
    5082:	f0 91 ec 01 	lds	r31, 0x01EC	; 0x8001ec <_ZN6ns_lcd6screenE+0x1>
    5086:	e9 0f       	add	r30, r25
    5088:	f1 1d       	adc	r31, r1
    508a:	80 83       	st	Z, r24
    508c:	88 81       	ld	r24, Y
    508e:	8f 5f       	subi	r24, 0xFF	; 255
    5090:	88 83       	st	Y, r24
    5092:	0e 15       	cp	r16, r14
    5094:	1f 05       	cpc	r17, r15
    5096:	21 f0       	breq	.+8      	; 0x50a0 <_ZN6ns_lcd6StringEPhPKc+0x5a>
    5098:	f8 01       	movw	r30, r16
    509a:	80 81       	ld	r24, Z
    509c:	81 11       	cpse	r24, r1
    509e:	e5 cf       	rjmp	.-54     	; 0x506a <_ZN6ns_lcd6StringEPhPKc+0x24>
    50a0:	df 91       	pop	r29
    50a2:	cf 91       	pop	r28
    50a4:	1f 91       	pop	r17
    50a6:	0f 91       	pop	r16
    50a8:	ff 90       	pop	r15
    50aa:	ef 90       	pop	r14
    50ac:	08 95       	ret

000050ae <_ZN6ns_lcd6StringEhPKc>:
    50ae:	cf 93       	push	r28
    50b0:	df 93       	push	r29
    50b2:	1f 92       	push	r1
    50b4:	cd b7       	in	r28, 0x3d	; 61
    50b6:	de b7       	in	r29, 0x3e	; 62
    50b8:	89 83       	std	Y+1, r24	; 0x01
    50ba:	ce 01       	movw	r24, r28
    50bc:	01 96       	adiw	r24, 0x01	; 1
    50be:	c3 df       	rcall	.-122    	; 0x5046 <_ZN6ns_lcd6StringEPhPKc>
    50c0:	0f 90       	pop	r0
    50c2:	df 91       	pop	r29
    50c4:	cf 91       	pop	r28
    50c6:	08 95       	ret

000050c8 <_ZN6ns_lcd8String_PEPhPKc>:
    50c8:	df 92       	push	r13
    50ca:	ef 92       	push	r14
    50cc:	ff 92       	push	r15
    50ce:	0f 93       	push	r16
    50d0:	1f 93       	push	r17
    50d2:	cf 93       	push	r28
    50d4:	df 93       	push	r29
    50d6:	ec 01       	movw	r28, r24
    50d8:	8b 01       	movw	r16, r22
    50da:	e0 90 ed 01 	lds	r14, 0x01ED	; 0x8001ed <_ZN6ns_lcd6maxPosE>
    50de:	ea 94       	dec	r14
    50e0:	f1 2c       	mov	r15, r1
    50e2:	8f ef       	ldi	r24, 0xFF	; 255
    50e4:	e8 1a       	sub	r14, r24
    50e6:	f8 0a       	sbc	r15, r24
    50e8:	e6 0e       	add	r14, r22
    50ea:	f7 1e       	adc	r15, r23
    50ec:	16 c0       	rjmp	.+44     	; 0x511a <_ZN6ns_lcd8String_PEPhPKc+0x52>
    50ee:	ce 01       	movw	r24, r28
    50f0:	09 df       	rcall	.-494    	; 0x4f04 <_ZN6ns_lcd12NormalizePosEPh>
    50f2:	6c ed       	ldi	r22, 0xDC	; 220
    50f4:	71 e0       	ldi	r23, 0x01	; 1
    50f6:	ce 01       	movw	r24, r28
    50f8:	25 df       	rcall	.-438    	; 0x4f44 <_ZN6ns_lcd7FlashFnEPhPVb>
    50fa:	88 81       	ld	r24, Y
    50fc:	e0 91 eb 01 	lds	r30, 0x01EB	; 0x8001eb <_ZN6ns_lcd6screenE>
    5100:	f0 91 ec 01 	lds	r31, 0x01EC	; 0x8001ec <_ZN6ns_lcd6screenE+0x1>
    5104:	e8 0f       	add	r30, r24
    5106:	f1 1d       	adc	r31, r1
    5108:	d0 82       	st	Z, r13
    510a:	88 81       	ld	r24, Y
    510c:	8f 5f       	subi	r24, 0xFF	; 255
    510e:	88 83       	st	Y, r24
    5110:	0f 5f       	subi	r16, 0xFF	; 255
    5112:	1f 4f       	sbci	r17, 0xFF	; 255
    5114:	0e 15       	cp	r16, r14
    5116:	1f 05       	cpc	r17, r15
    5118:	21 f0       	breq	.+8      	; 0x5122 <_ZN6ns_lcd8String_PEPhPKc+0x5a>
    511a:	f8 01       	movw	r30, r16
    511c:	d4 90       	lpm	r13, Z
    511e:	d1 10       	cpse	r13, r1
    5120:	e6 cf       	rjmp	.-52     	; 0x50ee <_ZN6ns_lcd8String_PEPhPKc+0x26>
    5122:	df 91       	pop	r29
    5124:	cf 91       	pop	r28
    5126:	1f 91       	pop	r17
    5128:	0f 91       	pop	r16
    512a:	ff 90       	pop	r15
    512c:	ef 90       	pop	r14
    512e:	df 90       	pop	r13
    5130:	08 95       	ret

00005132 <_ZN6ns_lcd8String_PEhPKc>:
    5132:	cf 93       	push	r28
    5134:	df 93       	push	r29
    5136:	1f 92       	push	r1
    5138:	cd b7       	in	r28, 0x3d	; 61
    513a:	de b7       	in	r29, 0x3e	; 62
    513c:	89 83       	std	Y+1, r24	; 0x01
    513e:	ce 01       	movw	r24, r28
    5140:	01 96       	adiw	r24, 0x01	; 1
    5142:	c2 df       	rcall	.-124    	; 0x50c8 <_ZN6ns_lcd8String_PEPhPKc>
    5144:	0f 90       	pop	r0
    5146:	df 91       	pop	r29
    5148:	cf 91       	pop	r28
    514a:	08 95       	ret

0000514c <_ZN6ns_lcd6DigitZEPhhl>:
    514c:	8f 92       	push	r8
    514e:	9f 92       	push	r9
    5150:	af 92       	push	r10
    5152:	bf 92       	push	r11
    5154:	cf 92       	push	r12
    5156:	df 92       	push	r13
    5158:	ef 92       	push	r14
    515a:	ff 92       	push	r15
    515c:	0f 93       	push	r16
    515e:	1f 93       	push	r17
    5160:	cf 93       	push	r28
    5162:	df 93       	push	r29
    5164:	1f 92       	push	r1
    5166:	cd b7       	in	r28, 0x3d	; 61
    5168:	de b7       	in	r29, 0x3e	; 62
    516a:	5c 01       	movw	r10, r24
    516c:	06 2f       	mov	r16, r22
    516e:	69 01       	movw	r12, r18
    5170:	7a 01       	movw	r14, r20
    5172:	55 23       	and	r21, r21
    5174:	5c f4       	brge	.+22     	; 0x518c <_ZN6ns_lcd6DigitZEPhhl+0x40>
    5176:	6d e2       	ldi	r22, 0x2D	; 45
    5178:	39 df       	rcall	.-398    	; 0x4fec <_ZN6ns_lcd7PutCharEPhc>
    517a:	01 50       	subi	r16, 0x01	; 1
    517c:	f0 94       	com	r15
    517e:	e0 94       	com	r14
    5180:	d0 94       	com	r13
    5182:	c0 94       	com	r12
    5184:	c1 1c       	adc	r12, r1
    5186:	d1 1c       	adc	r13, r1
    5188:	e1 1c       	adc	r14, r1
    518a:	f1 1c       	adc	r15, r1
    518c:	f5 01       	movw	r30, r10
    518e:	80 81       	ld	r24, Z
    5190:	80 0f       	add	r24, r16
    5192:	80 83       	st	Z, r24
    5194:	c5 01       	movw	r24, r10
    5196:	b6 de       	rcall	.-660    	; 0x4f04 <_ZN6ns_lcd12NormalizePosEPh>
    5198:	f5 01       	movw	r30, r10
    519a:	80 81       	ld	r24, Z
    519c:	81 50       	subi	r24, 0x01	; 1
    519e:	89 83       	std	Y+1, r24	; 0x01
    51a0:	00 23       	and	r16, r16
    51a2:	89 f1       	breq	.+98     	; 0x5206 <_ZN6ns_lcd6DigitZEPhhl+0xba>
    51a4:	0f 2e       	mov	r0, r31
    51a6:	fa e0       	ldi	r31, 0x0A	; 10
    51a8:	8f 2e       	mov	r8, r31
    51aa:	91 2c       	mov	r9, r1
    51ac:	a1 2c       	mov	r10, r1
    51ae:	b1 2c       	mov	r11, r1
    51b0:	f0 2d       	mov	r31, r0
    51b2:	c7 01       	movw	r24, r14
    51b4:	b6 01       	movw	r22, r12
    51b6:	a5 01       	movw	r20, r10
    51b8:	94 01       	movw	r18, r8
    51ba:	f6 d3       	rcall	.+2028   	; 0x59a8 <__divmodsi4>
    51bc:	16 2f       	mov	r17, r22
    51be:	89 81       	ldd	r24, Y+1	; 0x01
    51c0:	88 23       	and	r24, r24
    51c2:	2c f4       	brge	.+10     	; 0x51ce <_ZN6ns_lcd6DigitZEPhhl+0x82>
    51c4:	90 91 2e 01 	lds	r25, 0x012E	; 0x80012e <_ZN6ns_lcd10c_stolbcovE>
    51c8:	99 0f       	add	r25, r25
    51ca:	89 0f       	add	r24, r25
    51cc:	89 83       	std	Y+1, r24	; 0x01
    51ce:	6c ed       	ldi	r22, 0xDC	; 220
    51d0:	71 e0       	ldi	r23, 0x01	; 1
    51d2:	ce 01       	movw	r24, r28
    51d4:	01 96       	adiw	r24, 0x01	; 1
    51d6:	b6 de       	rcall	.-660    	; 0x4f44 <_ZN6ns_lcd7FlashFnEPhPVb>
    51d8:	e0 91 eb 01 	lds	r30, 0x01EB	; 0x8001eb <_ZN6ns_lcd6screenE>
    51dc:	f0 91 ec 01 	lds	r31, 0x01EC	; 0x8001ec <_ZN6ns_lcd6screenE+0x1>
    51e0:	89 81       	ldd	r24, Y+1	; 0x01
    51e2:	9f ef       	ldi	r25, 0xFF	; 255
    51e4:	98 0f       	add	r25, r24
    51e6:	99 83       	std	Y+1, r25	; 0x01
    51e8:	e8 0f       	add	r30, r24
    51ea:	f1 1d       	adc	r31, r1
    51ec:	87 fd       	sbrc	r24, 7
    51ee:	fa 95       	dec	r31
    51f0:	10 5d       	subi	r17, 0xD0	; 208
    51f2:	10 83       	st	Z, r17
    51f4:	c7 01       	movw	r24, r14
    51f6:	b6 01       	movw	r22, r12
    51f8:	a5 01       	movw	r20, r10
    51fa:	94 01       	movw	r18, r8
    51fc:	d5 d3       	rcall	.+1962   	; 0x59a8 <__divmodsi4>
    51fe:	69 01       	movw	r12, r18
    5200:	7a 01       	movw	r14, r20
    5202:	01 50       	subi	r16, 0x01	; 1
    5204:	b1 f6       	brne	.-84     	; 0x51b2 <_ZN6ns_lcd6DigitZEPhhl+0x66>
    5206:	0f 90       	pop	r0
    5208:	df 91       	pop	r29
    520a:	cf 91       	pop	r28
    520c:	1f 91       	pop	r17
    520e:	0f 91       	pop	r16
    5210:	ff 90       	pop	r15
    5212:	ef 90       	pop	r14
    5214:	df 90       	pop	r13
    5216:	cf 90       	pop	r12
    5218:	bf 90       	pop	r11
    521a:	af 90       	pop	r10
    521c:	9f 90       	pop	r9
    521e:	8f 90       	pop	r8
    5220:	08 95       	ret

00005222 <_ZN6ns_lcd6DigitZEhhl>:
    5222:	cf 93       	push	r28
    5224:	df 93       	push	r29
    5226:	1f 92       	push	r1
    5228:	cd b7       	in	r28, 0x3d	; 61
    522a:	de b7       	in	r29, 0x3e	; 62
    522c:	89 83       	std	Y+1, r24	; 0x01
    522e:	ce 01       	movw	r24, r28
    5230:	01 96       	adiw	r24, 0x01	; 1
    5232:	8c df       	rcall	.-232    	; 0x514c <_ZN6ns_lcd6DigitZEPhhl>
    5234:	0f 90       	pop	r0
    5236:	df 91       	pop	r29
    5238:	cf 91       	pop	r28
    523a:	08 95       	ret

0000523c <_ZN6ns_lcd5DigitEPhhl>:
    523c:	6f 92       	push	r6
    523e:	7f 92       	push	r7
    5240:	8f 92       	push	r8
    5242:	9f 92       	push	r9
    5244:	af 92       	push	r10
    5246:	bf 92       	push	r11
    5248:	cf 92       	push	r12
    524a:	df 92       	push	r13
    524c:	ef 92       	push	r14
    524e:	ff 92       	push	r15
    5250:	0f 93       	push	r16
    5252:	1f 93       	push	r17
    5254:	cf 93       	push	r28
    5256:	df 93       	push	r29
    5258:	1f 92       	push	r1
    525a:	cd b7       	in	r28, 0x3d	; 61
    525c:	de b7       	in	r29, 0x3e	; 62
    525e:	8c 01       	movw	r16, r24
    5260:	b6 2e       	mov	r11, r22
    5262:	69 01       	movw	r12, r18
    5264:	7a 01       	movw	r14, r20
    5266:	55 23       	and	r21, r21
    5268:	14 f4       	brge	.+4      	; 0x526e <_ZN6ns_lcd5DigitEPhhl+0x32>
    526a:	70 df       	rcall	.-288    	; 0x514c <_ZN6ns_lcd6DigitZEPhhl>
    526c:	86 c0       	rjmp	.+268    	; 0x537a <_ZN6ns_lcd5DigitEPhhl+0x13e>
    526e:	fc 01       	movw	r30, r24
    5270:	80 81       	ld	r24, Z
    5272:	86 0f       	add	r24, r22
    5274:	80 83       	st	Z, r24
    5276:	c8 01       	movw	r24, r16
    5278:	45 de       	rcall	.-886    	; 0x4f04 <_ZN6ns_lcd12NormalizePosEPh>
    527a:	f8 01       	movw	r30, r16
    527c:	10 81       	ld	r17, Z
    527e:	11 50       	subi	r17, 0x01	; 1
    5280:	19 83       	std	Y+1, r17	; 0x01
    5282:	c7 01       	movw	r24, r14
    5284:	b6 01       	movw	r22, r12
    5286:	2a e0       	ldi	r18, 0x0A	; 10
    5288:	30 e0       	ldi	r19, 0x00	; 0
    528a:	40 e0       	ldi	r20, 0x00	; 0
    528c:	50 e0       	ldi	r21, 0x00	; 0
    528e:	8c d3       	rcall	.+1816   	; 0x59a8 <__divmodsi4>
    5290:	06 2f       	mov	r16, r22
    5292:	11 23       	and	r17, r17
    5294:	2c f4       	brge	.+10     	; 0x52a0 <_ZN6ns_lcd5DigitEPhhl+0x64>
    5296:	80 91 2e 01 	lds	r24, 0x012E	; 0x80012e <_ZN6ns_lcd10c_stolbcovE>
    529a:	88 0f       	add	r24, r24
    529c:	18 0f       	add	r17, r24
    529e:	19 83       	std	Y+1, r17	; 0x01
    52a0:	6c ed       	ldi	r22, 0xDC	; 220
    52a2:	71 e0       	ldi	r23, 0x01	; 1
    52a4:	ce 01       	movw	r24, r28
    52a6:	01 96       	adiw	r24, 0x01	; 1
    52a8:	4d de       	rcall	.-870    	; 0x4f44 <_ZN6ns_lcd7FlashFnEPhPVb>
    52aa:	e0 91 eb 01 	lds	r30, 0x01EB	; 0x8001eb <_ZN6ns_lcd6screenE>
    52ae:	f0 91 ec 01 	lds	r31, 0x01EC	; 0x8001ec <_ZN6ns_lcd6screenE+0x1>
    52b2:	89 81       	ldd	r24, Y+1	; 0x01
    52b4:	9f ef       	ldi	r25, 0xFF	; 255
    52b6:	98 0f       	add	r25, r24
    52b8:	99 83       	std	Y+1, r25	; 0x01
    52ba:	e8 0f       	add	r30, r24
    52bc:	f1 1d       	adc	r31, r1
    52be:	87 fd       	sbrc	r24, 7
    52c0:	fa 95       	dec	r31
    52c2:	00 5d       	subi	r16, 0xD0	; 208
    52c4:	00 83       	st	Z, r16
    52c6:	c7 01       	movw	r24, r14
    52c8:	b6 01       	movw	r22, r12
    52ca:	2a e0       	ldi	r18, 0x0A	; 10
    52cc:	30 e0       	ldi	r19, 0x00	; 0
    52ce:	40 e0       	ldi	r20, 0x00	; 0
    52d0:	50 e0       	ldi	r21, 0x00	; 0
    52d2:	6a d3       	rcall	.+1748   	; 0x59a8 <__divmodsi4>
    52d4:	69 01       	movw	r12, r18
    52d6:	7a 01       	movw	r14, r20
    52d8:	0e ef       	ldi	r16, 0xFE	; 254
    52da:	0b 0d       	add	r16, r11
    52dc:	f1 e0       	ldi	r31, 0x01	; 1
    52de:	bf 16       	cp	r11, r31
    52e0:	09 f4       	brne	.+2      	; 0x52e4 <_ZN6ns_lcd5DigitEPhhl+0xa8>
    52e2:	4b c0       	rjmp	.+150    	; 0x537a <_ZN6ns_lcd5DigitEPhhl+0x13e>
    52e4:	0f 2e       	mov	r0, r31
    52e6:	fa e0       	ldi	r31, 0x0A	; 10
    52e8:	8f 2e       	mov	r8, r31
    52ea:	91 2c       	mov	r9, r1
    52ec:	a1 2c       	mov	r10, r1
    52ee:	b1 2c       	mov	r11, r1
    52f0:	f0 2d       	mov	r31, r0
    52f2:	68 94       	set
    52f4:	77 24       	eor	r7, r7
    52f6:	75 f8       	bld	r7, 5
    52f8:	01 c0       	rjmp	.+2      	; 0x52fc <_ZN6ns_lcd5DigitEPhhl+0xc0>
    52fa:	08 2f       	mov	r16, r24
    52fc:	c7 01       	movw	r24, r14
    52fe:	b6 01       	movw	r22, r12
    5300:	a5 01       	movw	r20, r10
    5302:	94 01       	movw	r18, r8
    5304:	51 d3       	rcall	.+1698   	; 0x59a8 <__divmodsi4>
    5306:	16 2f       	mov	r17, r22
    5308:	66 2e       	mov	r6, r22
    530a:	89 81       	ldd	r24, Y+1	; 0x01
    530c:	88 23       	and	r24, r24
    530e:	2c f4       	brge	.+10     	; 0x531a <_ZN6ns_lcd5DigitEPhhl+0xde>
    5310:	90 91 2e 01 	lds	r25, 0x012E	; 0x80012e <_ZN6ns_lcd10c_stolbcovE>
    5314:	99 0f       	add	r25, r25
    5316:	89 0f       	add	r24, r25
    5318:	89 83       	std	Y+1, r24	; 0x01
    531a:	6c ed       	ldi	r22, 0xDC	; 220
    531c:	71 e0       	ldi	r23, 0x01	; 1
    531e:	ce 01       	movw	r24, r28
    5320:	01 96       	adiw	r24, 0x01	; 1
    5322:	10 de       	rcall	.-992    	; 0x4f44 <_ZN6ns_lcd7FlashFnEPhPVb>
    5324:	61 10       	cpse	r6, r1
    5326:	10 c0       	rjmp	.+32     	; 0x5348 <_ZN6ns_lcd5DigitEPhhl+0x10c>
    5328:	c1 14       	cp	r12, r1
    532a:	d1 04       	cpc	r13, r1
    532c:	e1 04       	cpc	r14, r1
    532e:	f1 04       	cpc	r15, r1
    5330:	59 f4       	brne	.+22     	; 0x5348 <_ZN6ns_lcd5DigitEPhhl+0x10c>
    5332:	89 81       	ldd	r24, Y+1	; 0x01
    5334:	e0 91 eb 01 	lds	r30, 0x01EB	; 0x8001eb <_ZN6ns_lcd6screenE>
    5338:	f0 91 ec 01 	lds	r31, 0x01EC	; 0x8001ec <_ZN6ns_lcd6screenE+0x1>
    533c:	e8 0f       	add	r30, r24
    533e:	f1 1d       	adc	r31, r1
    5340:	87 fd       	sbrc	r24, 7
    5342:	fa 95       	dec	r31
    5344:	70 82       	st	Z, r7
    5346:	0b c0       	rjmp	.+22     	; 0x535e <_ZN6ns_lcd5DigitEPhhl+0x122>
    5348:	89 81       	ldd	r24, Y+1	; 0x01
    534a:	e0 91 eb 01 	lds	r30, 0x01EB	; 0x8001eb <_ZN6ns_lcd6screenE>
    534e:	f0 91 ec 01 	lds	r31, 0x01EC	; 0x8001ec <_ZN6ns_lcd6screenE+0x1>
    5352:	e8 0f       	add	r30, r24
    5354:	f1 1d       	adc	r31, r1
    5356:	87 fd       	sbrc	r24, 7
    5358:	fa 95       	dec	r31
    535a:	10 5d       	subi	r17, 0xD0	; 208
    535c:	10 83       	st	Z, r17
    535e:	89 81       	ldd	r24, Y+1	; 0x01
    5360:	81 50       	subi	r24, 0x01	; 1
    5362:	89 83       	std	Y+1, r24	; 0x01
    5364:	c7 01       	movw	r24, r14
    5366:	b6 01       	movw	r22, r12
    5368:	a5 01       	movw	r20, r10
    536a:	94 01       	movw	r18, r8
    536c:	1d d3       	rcall	.+1594   	; 0x59a8 <__divmodsi4>
    536e:	69 01       	movw	r12, r18
    5370:	7a 01       	movw	r14, r20
    5372:	8f ef       	ldi	r24, 0xFF	; 255
    5374:	80 0f       	add	r24, r16
    5376:	01 11       	cpse	r16, r1
    5378:	c0 cf       	rjmp	.-128    	; 0x52fa <_ZN6ns_lcd5DigitEPhhl+0xbe>
    537a:	0f 90       	pop	r0
    537c:	df 91       	pop	r29
    537e:	cf 91       	pop	r28
    5380:	1f 91       	pop	r17
    5382:	0f 91       	pop	r16
    5384:	ff 90       	pop	r15
    5386:	ef 90       	pop	r14
    5388:	df 90       	pop	r13
    538a:	cf 90       	pop	r12
    538c:	bf 90       	pop	r11
    538e:	af 90       	pop	r10
    5390:	9f 90       	pop	r9
    5392:	8f 90       	pop	r8
    5394:	7f 90       	pop	r7
    5396:	6f 90       	pop	r6
    5398:	08 95       	ret

0000539a <_GLOBAL__sub_I__ZN6ns_lcd10c_stolbcovE>:
namespace ns_lcd
{
	// var
	const uint8_t c_strok = 2;
	uint8_t c_stolbcov = 16;
	uint8_t maxPos = c_strok*c_stolbcov;
    539a:	80 91 2e 01 	lds	r24, 0x012E	; 0x80012e <_ZN6ns_lcd10c_stolbcovE>
    539e:	88 0f       	add	r24, r24
    53a0:	80 93 ed 01 	sts	0x01ED, r24	; 0x8001ed <_ZN6ns_lcd6maxPosE>
    53a4:	08 95       	ret

000053a6 <_ZN14ns_LcdKeyTimer4InitEv>:

namespace ns_LcdKeyTimer
{
	// ========================
	void Init()
	{
    53a6:	cf 93       	push	r28
    53a8:	df 93       	push	r29
    53aa:	00 d0       	rcall	.+0      	; 0x53ac <_ZN14ns_LcdKeyTimer4InitEv+0x6>
    53ac:	cd b7       	in	r28, 0x3d	; 61
    53ae:	de b7       	in	r29, 0x3e	; 62
		volatile uint16_t prDiv;
		TCCR0 = 0;
    53b0:	13 be       	out	0x33, r1	; 51
		// CTC mode
		TCCR0_WGM01 = 1;
    53b2:	83 b7       	in	r24, 0x33	; 51
    53b4:	88 60       	ori	r24, 0x08	; 8
    53b6:	83 bf       	out	0x33, r24	; 51
		TCCR0_WGM00 = 0;
    53b8:	83 b7       	in	r24, 0x33	; 51
    53ba:	8f 7b       	andi	r24, 0xBF	; 191
    53bc:	83 bf       	out	0x33, r24	; 51
		TCCR0_COM01 = 0;
    53be:	83 b7       	in	r24, 0x33	; 51
    53c0:	8f 7d       	andi	r24, 0xDF	; 223
    53c2:	83 bf       	out	0x33, r24	; 51
		TCCR0_COM00 = 0;
    53c4:	83 b7       	in	r24, 0x33	; 51
    53c6:	8f 7e       	andi	r24, 0xEF	; 239
    53c8:	83 bf       	out	0x33, r24	; 51
		// pre Div
		prDiv = (uint16_t)( ((uint32_t)C_Fosc) / (  ((uint32_t)FT_LcdKeyTimer) * ((uint32_t)256) * ((uint32_t)1) )  );
    53ca:	8e e3       	ldi	r24, 0x3E	; 62
    53cc:	90 e0       	ldi	r25, 0x00	; 0
    53ce:	9a 83       	std	Y+2, r25	; 0x02
    53d0:	89 83       	std	Y+1, r24	; 0x01
		if (prDiv <= 1)
    53d2:	89 81       	ldd	r24, Y+1	; 0x01
    53d4:	9a 81       	ldd	r25, Y+2	; 0x02
    53d6:	02 97       	sbiw	r24, 0x02	; 2
    53d8:	70 f4       	brcc	.+28     	; 0x53f6 <_ZN14ns_LcdKeyTimer4InitEv+0x50>
		{
			prDiv = 1;
    53da:	81 e0       	ldi	r24, 0x01	; 1
    53dc:	90 e0       	ldi	r25, 0x00	; 0
    53de:	9a 83       	std	Y+2, r25	; 0x02
    53e0:	89 83       	std	Y+1, r24	; 0x01
			TCCR0_CS02 = 0;
    53e2:	83 b7       	in	r24, 0x33	; 51
    53e4:	8b 7f       	andi	r24, 0xFB	; 251
    53e6:	83 bf       	out	0x33, r24	; 51
			TCCR0_CS01 = 0;
    53e8:	83 b7       	in	r24, 0x33	; 51
    53ea:	8d 7f       	andi	r24, 0xFD	; 253
    53ec:	83 bf       	out	0x33, r24	; 51
			TCCR0_CS00 = 1;
    53ee:	83 b7       	in	r24, 0x33	; 51
    53f0:	81 60       	ori	r24, 0x01	; 1
    53f2:	83 bf       	out	0x33, r24	; 51
    53f4:	6a c0       	rjmp	.+212    	; 0x54ca <_ZN14ns_LcdKeyTimer4InitEv+0x124>
		}
		else if (prDiv <= 8)
    53f6:	89 81       	ldd	r24, Y+1	; 0x01
    53f8:	9a 81       	ldd	r25, Y+2	; 0x02
    53fa:	09 97       	sbiw	r24, 0x09	; 9
    53fc:	70 f4       	brcc	.+28     	; 0x541a <_ZN14ns_LcdKeyTimer4InitEv+0x74>
		{
			prDiv = 8;
    53fe:	88 e0       	ldi	r24, 0x08	; 8
    5400:	90 e0       	ldi	r25, 0x00	; 0
    5402:	9a 83       	std	Y+2, r25	; 0x02
    5404:	89 83       	std	Y+1, r24	; 0x01
			TCCR0_CS02 = 0;
    5406:	83 b7       	in	r24, 0x33	; 51
    5408:	8b 7f       	andi	r24, 0xFB	; 251
    540a:	83 bf       	out	0x33, r24	; 51
			TCCR0_CS01 = 1;
    540c:	83 b7       	in	r24, 0x33	; 51
    540e:	82 60       	ori	r24, 0x02	; 2
    5410:	83 bf       	out	0x33, r24	; 51
			TCCR0_CS00 = 0;
    5412:	83 b7       	in	r24, 0x33	; 51
    5414:	8e 7f       	andi	r24, 0xFE	; 254
    5416:	83 bf       	out	0x33, r24	; 51
    5418:	58 c0       	rjmp	.+176    	; 0x54ca <_ZN14ns_LcdKeyTimer4InitEv+0x124>
		}
		else if (prDiv <= 32)
    541a:	89 81       	ldd	r24, Y+1	; 0x01
    541c:	9a 81       	ldd	r25, Y+2	; 0x02
    541e:	81 97       	sbiw	r24, 0x21	; 33
    5420:	70 f4       	brcc	.+28     	; 0x543e <_ZN14ns_LcdKeyTimer4InitEv+0x98>
		{
			prDiv = 32;
    5422:	80 e2       	ldi	r24, 0x20	; 32
    5424:	90 e0       	ldi	r25, 0x00	; 0
    5426:	9a 83       	std	Y+2, r25	; 0x02
    5428:	89 83       	std	Y+1, r24	; 0x01
			TCCR0_CS02 = 0;
    542a:	83 b7       	in	r24, 0x33	; 51
    542c:	8b 7f       	andi	r24, 0xFB	; 251
    542e:	83 bf       	out	0x33, r24	; 51
			TCCR0_CS01 = 1;
    5430:	83 b7       	in	r24, 0x33	; 51
    5432:	82 60       	ori	r24, 0x02	; 2
    5434:	83 bf       	out	0x33, r24	; 51
			TCCR0_CS00 = 1;
    5436:	83 b7       	in	r24, 0x33	; 51
    5438:	81 60       	ori	r24, 0x01	; 1
    543a:	83 bf       	out	0x33, r24	; 51
    543c:	46 c0       	rjmp	.+140    	; 0x54ca <_ZN14ns_LcdKeyTimer4InitEv+0x124>
		}
		else if (prDiv <= 64)
    543e:	89 81       	ldd	r24, Y+1	; 0x01
    5440:	9a 81       	ldd	r25, Y+2	; 0x02
    5442:	81 34       	cpi	r24, 0x41	; 65
    5444:	91 05       	cpc	r25, r1
    5446:	70 f4       	brcc	.+28     	; 0x5464 <_ZN14ns_LcdKeyTimer4InitEv+0xbe>
		{
			prDiv = 64;
    5448:	80 e4       	ldi	r24, 0x40	; 64
    544a:	90 e0       	ldi	r25, 0x00	; 0
    544c:	9a 83       	std	Y+2, r25	; 0x02
    544e:	89 83       	std	Y+1, r24	; 0x01
			TCCR0_CS02 = 1;
    5450:	83 b7       	in	r24, 0x33	; 51
    5452:	84 60       	ori	r24, 0x04	; 4
    5454:	83 bf       	out	0x33, r24	; 51
			TCCR0_CS01 = 0;
    5456:	83 b7       	in	r24, 0x33	; 51
    5458:	8d 7f       	andi	r24, 0xFD	; 253
    545a:	83 bf       	out	0x33, r24	; 51
			TCCR0_CS00 = 0;
    545c:	83 b7       	in	r24, 0x33	; 51
    545e:	8e 7f       	andi	r24, 0xFE	; 254
    5460:	83 bf       	out	0x33, r24	; 51
    5462:	33 c0       	rjmp	.+102    	; 0x54ca <_ZN14ns_LcdKeyTimer4InitEv+0x124>
		}
		else if (prDiv <= 128)
    5464:	89 81       	ldd	r24, Y+1	; 0x01
    5466:	9a 81       	ldd	r25, Y+2	; 0x02
    5468:	81 38       	cpi	r24, 0x81	; 129
    546a:	91 05       	cpc	r25, r1
    546c:	70 f4       	brcc	.+28     	; 0x548a <_ZN14ns_LcdKeyTimer4InitEv+0xe4>
		{
			prDiv = 128;
    546e:	80 e8       	ldi	r24, 0x80	; 128
    5470:	90 e0       	ldi	r25, 0x00	; 0
    5472:	9a 83       	std	Y+2, r25	; 0x02
    5474:	89 83       	std	Y+1, r24	; 0x01
			TCCR0_CS02 = 1;
    5476:	83 b7       	in	r24, 0x33	; 51
    5478:	84 60       	ori	r24, 0x04	; 4
    547a:	83 bf       	out	0x33, r24	; 51
			TCCR0_CS01 = 0;
    547c:	83 b7       	in	r24, 0x33	; 51
    547e:	8d 7f       	andi	r24, 0xFD	; 253
    5480:	83 bf       	out	0x33, r24	; 51
			TCCR0_CS00 = 1;
    5482:	83 b7       	in	r24, 0x33	; 51
    5484:	81 60       	ori	r24, 0x01	; 1
    5486:	83 bf       	out	0x33, r24	; 51
    5488:	20 c0       	rjmp	.+64     	; 0x54ca <_ZN14ns_LcdKeyTimer4InitEv+0x124>
		}
		else if (prDiv <= 256)
    548a:	89 81       	ldd	r24, Y+1	; 0x01
    548c:	9a 81       	ldd	r25, Y+2	; 0x02
    548e:	81 30       	cpi	r24, 0x01	; 1
    5490:	91 40       	sbci	r25, 0x01	; 1
    5492:	70 f4       	brcc	.+28     	; 0x54b0 <_ZN14ns_LcdKeyTimer4InitEv+0x10a>
		{
			prDiv = 256;
    5494:	80 e0       	ldi	r24, 0x00	; 0
    5496:	91 e0       	ldi	r25, 0x01	; 1
    5498:	9a 83       	std	Y+2, r25	; 0x02
    549a:	89 83       	std	Y+1, r24	; 0x01
			TCCR0_CS02 = 1;
    549c:	83 b7       	in	r24, 0x33	; 51
    549e:	84 60       	ori	r24, 0x04	; 4
    54a0:	83 bf       	out	0x33, r24	; 51
			TCCR0_CS01 = 1;
    54a2:	83 b7       	in	r24, 0x33	; 51
    54a4:	82 60       	ori	r24, 0x02	; 2
    54a6:	83 bf       	out	0x33, r24	; 51
			TCCR0_CS00 = 0;
    54a8:	83 b7       	in	r24, 0x33	; 51
    54aa:	8e 7f       	andi	r24, 0xFE	; 254
    54ac:	83 bf       	out	0x33, r24	; 51
    54ae:	0d c0       	rjmp	.+26     	; 0x54ca <_ZN14ns_LcdKeyTimer4InitEv+0x124>
		}
		else
		{
			prDiv = 1024;
    54b0:	80 e0       	ldi	r24, 0x00	; 0
    54b2:	94 e0       	ldi	r25, 0x04	; 4
    54b4:	9a 83       	std	Y+2, r25	; 0x02
    54b6:	89 83       	std	Y+1, r24	; 0x01
			TCCR0_CS02 = 1;
    54b8:	83 b7       	in	r24, 0x33	; 51
    54ba:	84 60       	ori	r24, 0x04	; 4
    54bc:	83 bf       	out	0x33, r24	; 51
			TCCR0_CS01 = 1;
    54be:	83 b7       	in	r24, 0x33	; 51
    54c0:	82 60       	ori	r24, 0x02	; 2
    54c2:	83 bf       	out	0x33, r24	; 51
			TCCR0_CS00 = 1;
    54c4:	83 b7       	in	r24, 0x33	; 51
    54c6:	81 60       	ori	r24, 0x01	; 1
    54c8:	83 bf       	out	0x33, r24	; 51
		}

		//  
		TCCR0_FOC0 = 1;
    54ca:	83 b7       	in	r24, 0x33	; 51
    54cc:	80 68       	ori	r24, 0x80	; 128
    54ce:	83 bf       	out	0x33, r24	; 51
		TCNT0 = 0;
    54d0:	12 be       	out	0x32, r1	; 50
		//uint8_t div = (((unsigned long)C_Fosc) / prDiv / FT_LcdKeyTimer) - 1;
		uint8_t div = (uint8_t)( ((uint32_t)C_Fosc) / ( ((uint32_t)prDiv) * ((uint32_t)FT_LcdKeyTimer) * ((uint32_t)1) ) ) - 1;
    54d2:	29 81       	ldd	r18, Y+1	; 0x01
    54d4:	3a 81       	ldd	r19, Y+2	; 0x02
    54d6:	a8 ee       	ldi	r26, 0xE8	; 232
    54d8:	b3 e0       	ldi	r27, 0x03	; 3
    54da:	82 d2       	rcall	.+1284   	; 0x59e0 <__umulhisi3>
    54dc:	9b 01       	movw	r18, r22
    54de:	ac 01       	movw	r20, r24
    54e0:	60 e0       	ldi	r22, 0x00	; 0
    54e2:	74 e2       	ldi	r23, 0x24	; 36
    54e4:	84 ef       	ldi	r24, 0xF4	; 244
    54e6:	90 e0       	ldi	r25, 0x00	; 0
    54e8:	3d d2       	rcall	.+1146   	; 0x5964 <__udivmodsi4>
    54ea:	21 50       	subi	r18, 0x01	; 1
		OCR0 = div;
    54ec:	21 bf       	out	0x31, r18	; 49
		TIFR_OCF0 = 0;
    54ee:	86 b7       	in	r24, 0x36	; 54
    54f0:	8d 7f       	andi	r24, 0xFD	; 253
    54f2:	86 bf       	out	0x36, r24	; 54
		TIFR_TOV0 = 0;
    54f4:	86 b7       	in	r24, 0x36	; 54
    54f6:	8e 7f       	andi	r24, 0xFE	; 254
    54f8:	86 bf       	out	0x36, r24	; 54
		TIMSK_OCIE0 = 1;
    54fa:	87 b7       	in	r24, 0x37	; 55
    54fc:	82 60       	ori	r24, 0x02	; 2
    54fe:	87 bf       	out	0x37, r24	; 55
	}
    5500:	0f 90       	pop	r0
    5502:	0f 90       	pop	r0
    5504:	df 91       	pop	r29
    5506:	cf 91       	pop	r28
    5508:	08 95       	ret

0000550a <__vector_15>:

	ISR (TIMER0_COMP_vect)
	{
    550a:	1f 92       	push	r1
    550c:	0f 92       	push	r0
    550e:	0f b6       	in	r0, 0x3f	; 63
    5510:	0f 92       	push	r0
    5512:	11 24       	eor	r1, r1
    5514:	0b b6       	in	r0, 0x3b	; 59
    5516:	0f 92       	push	r0
    5518:	2f 93       	push	r18
    551a:	3f 93       	push	r19
    551c:	4f 93       	push	r20
    551e:	5f 93       	push	r21
    5520:	6f 93       	push	r22
    5522:	7f 93       	push	r23
    5524:	8f 93       	push	r24
    5526:	9f 93       	push	r25
    5528:	af 93       	push	r26
    552a:	bf 93       	push	r27
    552c:	ef 93       	push	r30
    552e:	ff 93       	push	r31
		TIMSK_OCIE0 = 0;
    5530:	87 b7       	in	r24, 0x37	; 55
    5532:	8d 7f       	andi	r24, 0xFD	; 253
    5534:	87 bf       	out	0x37, r24	; 55
		sei();
    5536:	78 94       	sei
		// lcd
		ns_lcd::Interrupt();
    5538:	78 dc       	rcall	.-1808   	; 0x4e2a <_ZN6ns_lcd9InterruptEv>
		// key
		key4->Interrupt();
    553a:	80 91 d6 01 	lds	r24, 0x01D6	; 0x8001d6 <key4>
    553e:	90 91 d7 01 	lds	r25, 0x01D7	; 0x8001d7 <key4+0x1>
    5542:	1a da       	rcall	.-3020   	; 0x4978 <_ZN7tc_key49InterruptEv>
		// clock rt
		ns_clock::Interrupt();
    5544:	d8 d8       	rcall	.-3664   	; 0x46f6 <_ZN8ns_clock9InterruptEv>
		// interrupt module
		ns_module::InterruptLcdTimer();
    5546:	0e 94 c5 21 	call	0x438a	; 0x438a <_ZN9ns_module17InterruptLcdTimerEv>
		TIMSK_OCIE0 = 1;
    554a:	87 b7       	in	r24, 0x37	; 55
    554c:	82 60       	ori	r24, 0x02	; 2
    554e:	87 bf       	out	0x37, r24	; 55
	}
    5550:	ff 91       	pop	r31
    5552:	ef 91       	pop	r30
    5554:	bf 91       	pop	r27
    5556:	af 91       	pop	r26
    5558:	9f 91       	pop	r25
    555a:	8f 91       	pop	r24
    555c:	7f 91       	pop	r23
    555e:	6f 91       	pop	r22
    5560:	5f 91       	pop	r21
    5562:	4f 91       	pop	r20
    5564:	3f 91       	pop	r19
    5566:	2f 91       	pop	r18
    5568:	0f 90       	pop	r0
    556a:	0b be       	out	0x3b, r0	; 59
    556c:	0f 90       	pop	r0
    556e:	0f be       	out	0x3f, r0	; 63
    5570:	0f 90       	pop	r0
    5572:	1f 90       	pop	r1
    5574:	18 95       	reti

00005576 <_Znwj>:
 #include <stdlib.h>
 #include <avr/interrupt.h>

 void *operator new(size_t s)
 {
	 return malloc(s);
    5576:	29 c3       	rjmp	.+1618   	; 0x5bca <malloc>
 }
    5578:	08 95       	ret

0000557a <_Znaj>:
 
 void *operator new[](size_t s)
 {
	 return malloc(s);
    557a:	27 c3       	rjmp	.+1614   	; 0x5bca <malloc>
 }
    557c:	08 95       	ret

0000557e <_ZN8ns_rs2324InitE6rsBaud8rsParity5rsBit12rsBufferSizeS3_>:
				//UDR = *byte;
				return 1;
			}
		}
		return 0;
	}
    557e:	4f 92       	push	r4
    5580:	5f 92       	push	r5
    5582:	6f 92       	push	r6
    5584:	7f 92       	push	r7
    5586:	8f 92       	push	r8
    5588:	9f 92       	push	r9
    558a:	af 92       	push	r10
    558c:	bf 92       	push	r11
    558e:	cf 92       	push	r12
    5590:	df 92       	push	r13
    5592:	ef 92       	push	r14
    5594:	ff 92       	push	r15
    5596:	0f 93       	push	r16
    5598:	1f 93       	push	r17
    559a:	cf 93       	push	r28
    559c:	df 93       	push	r29
    559e:	00 d0       	rcall	.+0      	; 0x55a0 <_ZN8ns_rs2324InitE6rsBaud8rsParity5rsBit12rsBufferSizeS3_+0x22>
    55a0:	cd b7       	in	r28, 0x3d	; 61
    55a2:	de b7       	in	r29, 0x3e	; 62
    55a4:	49 83       	std	Y+1, r20	; 0x01
    55a6:	2a 83       	std	Y+2, r18	; 0x02
    55a8:	20 93 ee 01 	sts	0x01EE, r18	; 0x8001ee <_ZN8ns_rs2323bitE>
    55ac:	dc 01       	movw	r26, r24
    55ae:	cb 01       	movw	r24, r22
    55b0:	88 0f       	add	r24, r24
    55b2:	99 1f       	adc	r25, r25
    55b4:	aa 1f       	adc	r26, r26
    55b6:	bb 1f       	adc	r27, r27
    55b8:	88 0f       	add	r24, r24
    55ba:	99 1f       	adc	r25, r25
    55bc:	aa 1f       	adc	r26, r26
    55be:	bb 1f       	adc	r27, r27
    55c0:	9c 01       	movw	r18, r24
    55c2:	ad 01       	movw	r20, r26
    55c4:	22 0f       	add	r18, r18
    55c6:	33 1f       	adc	r19, r19
    55c8:	44 1f       	adc	r20, r20
    55ca:	55 1f       	adc	r21, r21
    55cc:	22 0f       	add	r18, r18
    55ce:	33 1f       	adc	r19, r19
    55d0:	44 1f       	adc	r20, r20
    55d2:	55 1f       	adc	r21, r21
    55d4:	60 e0       	ldi	r22, 0x00	; 0
    55d6:	74 e2       	ldi	r23, 0x24	; 36
    55d8:	84 ef       	ldi	r24, 0xF4	; 244
    55da:	90 e0       	ldi	r25, 0x00	; 0
    55dc:	c3 d1       	rcall	.+902    	; 0x5964 <__udivmodsi4>
    55de:	21 50       	subi	r18, 0x01	; 1
    55e0:	31 09       	sbc	r19, r1
    55e2:	30 93 90 00 	sts	0x0090, r19	; 0x800090 <__TEXT_REGION_LENGTH__+0x7e0090>
    55e6:	29 b9       	out	0x09, r18	; 9
    55e8:	1a b8       	out	0x0a, r1	; 10
    55ea:	49 81       	ldd	r20, Y+1	; 0x01
    55ec:	39 81       	ldd	r19, Y+1	; 0x01
    55ee:	2a 81       	ldd	r18, Y+2	; 0x02
    55f0:	9a 81       	ldd	r25, Y+2	; 0x02
    55f2:	8a 81       	ldd	r24, Y+2	; 0x02
    55f4:	40 fb       	bst	r20, 0
    55f6:	66 24       	eor	r6, r6
    55f8:	60 f8       	bld	r6, 0
    55fa:	71 2c       	mov	r7, r1
    55fc:	31 fb       	bst	r19, 1
    55fe:	88 24       	eor	r8, r8
    5600:	80 f8       	bld	r8, 0
    5602:	91 2c       	mov	r9, r1
    5604:	86 28       	or	r8, r6
    5606:	97 28       	or	r9, r7
    5608:	20 fb       	bst	r18, 0
    560a:	aa 24       	eor	r10, r10
    560c:	a0 f8       	bld	r10, 0
    560e:	b1 2c       	mov	r11, r1
    5610:	aa 0c       	add	r10, r10
    5612:	bb 1c       	adc	r11, r11
    5614:	8a 28       	or	r8, r10
    5616:	9b 28       	or	r9, r11
    5618:	91 fb       	bst	r25, 1
    561a:	cc 24       	eor	r12, r12
    561c:	c0 f8       	bld	r12, 0
    561e:	d1 2c       	mov	r13, r1
    5620:	cc 0c       	add	r12, r12
    5622:	dd 1c       	adc	r13, r13
    5624:	cc 0c       	add	r12, r12
    5626:	dd 1c       	adc	r13, r13
    5628:	c8 28       	or	r12, r8
    562a:	d9 28       	or	r13, r9
    562c:	82 fb       	bst	r24, 2
    562e:	44 24       	eor	r4, r4
    5630:	40 f8       	bld	r4, 0
    5632:	51 2c       	mov	r5, r1
    5634:	44 0c       	add	r4, r4
    5636:	55 1c       	adc	r5, r5
    5638:	44 0c       	add	r4, r4
    563a:	55 1c       	adc	r5, r5
    563c:	4c 28       	or	r4, r12
    563e:	5d 28       	or	r5, r13
    5640:	40 92 95 00 	sts	0x0095, r4	; 0x800095 <__TEXT_REGION_LENGTH__+0x7e0095>
    5644:	54 9a       	sbi	0x0a, 4	; 10
    5646:	53 9a       	sbi	0x0a, 3	; 10
    5648:	57 9a       	sbi	0x0a, 7	; 10
    564a:	80 2f       	mov	r24, r16
    564c:	91 2f       	mov	r25, r17
    564e:	95 df       	rcall	.-214    	; 0x557a <_Znaj>
    5650:	90 93 f6 01 	sts	0x01F6, r25	; 0x8001f6 <_ZN8ns_rs2325RxBufE+0x1>
    5654:	80 93 f5 01 	sts	0x01F5, r24	; 0x8001f5 <_ZN8ns_rs2325RxBufE>
    5658:	01 50       	subi	r16, 0x01	; 1
    565a:	00 93 f8 01 	sts	0x01F8, r16	; 0x8001f8 <_ZN8ns_rs2329rxBufMaskE>
    565e:	8e 2d       	mov	r24, r14
    5660:	9f 2d       	mov	r25, r15
    5662:	8b df       	rcall	.-234    	; 0x557a <_Znaj>
    5664:	90 93 f2 01 	sts	0x01F2, r25	; 0x8001f2 <_ZN8ns_rs2325TxBufE+0x1>
    5668:	80 93 f1 01 	sts	0x01F1, r24	; 0x8001f1 <_ZN8ns_rs2325TxBufE>
    566c:	ea 94       	dec	r14
    566e:	e0 92 f7 01 	sts	0x01F7, r14	; 0x8001f7 <_ZN8ns_rs2329txBufMaskE>
    5672:	60 e0       	ldi	r22, 0x00	; 0
    5674:	70 e0       	ldi	r23, 0x00	; 0
    5676:	8b ec       	ldi	r24, 0xCB	; 203
    5678:	9b e2       	ldi	r25, 0x2B	; 43
    567a:	d4 d3       	rcall	.+1960   	; 0x5e24 <fdevopen>
    567c:	0f 90       	pop	r0
    567e:	0f 90       	pop	r0
    5680:	df 91       	pop	r29
    5682:	cf 91       	pop	r28
    5684:	1f 91       	pop	r17
    5686:	0f 91       	pop	r16
    5688:	ff 90       	pop	r15
    568a:	ef 90       	pop	r14
    568c:	df 90       	pop	r13
    568e:	cf 90       	pop	r12
    5690:	bf 90       	pop	r11
    5692:	af 90       	pop	r10
    5694:	9f 90       	pop	r9
    5696:	8f 90       	pop	r8
    5698:	7f 90       	pop	r7
    569a:	6f 90       	pop	r6
    569c:	5f 90       	pop	r5
    569e:	4f 90       	pop	r4
    56a0:	08 95       	ret

000056a2 <__vector_18>:
    56a2:	1f 92       	push	r1
    56a4:	0f 92       	push	r0
    56a6:	0f b6       	in	r0, 0x3f	; 63
    56a8:	0f 92       	push	r0
    56aa:	11 24       	eor	r1, r1
    56ac:	0b b6       	in	r0, 0x3b	; 59
    56ae:	0f 92       	push	r0
    56b0:	8f 93       	push	r24
    56b2:	9f 93       	push	r25
    56b4:	ef 93       	push	r30
    56b6:	ff 93       	push	r31
    56b8:	80 91 f4 01 	lds	r24, 0x01F4	; 0x8001f4 <_ZN8ns_rs2326RxHeadE>
    56bc:	8f 5f       	subi	r24, 0xFF	; 255
    56be:	90 91 f8 01 	lds	r25, 0x01F8	; 0x8001f8 <_ZN8ns_rs2329rxBufMaskE>
    56c2:	89 23       	and	r24, r25
    56c4:	90 91 f3 01 	lds	r25, 0x01F3	; 0x8001f3 <_ZN8ns_rs2326RxTailE>
    56c8:	89 17       	cp	r24, r25
    56ca:	61 f0       	breq	.+24     	; 0x56e4 <__vector_18+0x42>
    56cc:	90 91 f4 01 	lds	r25, 0x01F4	; 0x8001f4 <_ZN8ns_rs2326RxHeadE>
    56d0:	e0 91 f5 01 	lds	r30, 0x01F5	; 0x8001f5 <_ZN8ns_rs2325RxBufE>
    56d4:	f0 91 f6 01 	lds	r31, 0x01F6	; 0x8001f6 <_ZN8ns_rs2325RxBufE+0x1>
    56d8:	e9 0f       	add	r30, r25
    56da:	f1 1d       	adc	r31, r1
    56dc:	9c b1       	in	r25, 0x0c	; 12
    56de:	90 83       	st	Z, r25
    56e0:	80 93 f4 01 	sts	0x01F4, r24	; 0x8001f4 <_ZN8ns_rs2326RxHeadE>
    56e4:	ff 91       	pop	r31
    56e6:	ef 91       	pop	r30
    56e8:	9f 91       	pop	r25
    56ea:	8f 91       	pop	r24
    56ec:	0f 90       	pop	r0
    56ee:	0b be       	out	0x3b, r0	; 59
    56f0:	0f 90       	pop	r0
    56f2:	0f be       	out	0x3f, r0	; 63
    56f4:	0f 90       	pop	r0
    56f6:	1f 90       	pop	r1
    56f8:	18 95       	reti

000056fa <__vector_19>:
    56fa:	1f 92       	push	r1
    56fc:	0f 92       	push	r0
    56fe:	0f b6       	in	r0, 0x3f	; 63
    5700:	0f 92       	push	r0
    5702:	11 24       	eor	r1, r1
    5704:	0b b6       	in	r0, 0x3b	; 59
    5706:	0f 92       	push	r0
    5708:	8f 93       	push	r24
    570a:	9f 93       	push	r25
    570c:	ef 93       	push	r30
    570e:	ff 93       	push	r31
    5710:	90 91 f0 01 	lds	r25, 0x01F0	; 0x8001f0 <_ZN8ns_rs2326TxHeadE>
    5714:	80 91 ef 01 	lds	r24, 0x01EF	; 0x8001ef <_ZN8ns_rs2326TxTailE>
    5718:	98 13       	cpse	r25, r24
    571a:	02 c0       	rjmp	.+4      	; 0x5720 <__vector_19+0x26>
    571c:	55 98       	cbi	0x0a, 5	; 10
    571e:	13 c0       	rjmp	.+38     	; 0x5746 <__vector_19+0x4c>
    5720:	50 9a       	sbi	0x0a, 0	; 10
    5722:	80 91 ef 01 	lds	r24, 0x01EF	; 0x8001ef <_ZN8ns_rs2326TxTailE>
    5726:	e0 91 f1 01 	lds	r30, 0x01F1	; 0x8001f1 <_ZN8ns_rs2325TxBufE>
    572a:	f0 91 f2 01 	lds	r31, 0x01F2	; 0x8001f2 <_ZN8ns_rs2325TxBufE+0x1>
    572e:	e8 0f       	add	r30, r24
    5730:	f1 1d       	adc	r31, r1
    5732:	80 81       	ld	r24, Z
    5734:	8c b9       	out	0x0c, r24	; 12
    5736:	80 91 ef 01 	lds	r24, 0x01EF	; 0x8001ef <_ZN8ns_rs2326TxTailE>
    573a:	8f 5f       	subi	r24, 0xFF	; 255
    573c:	90 91 f7 01 	lds	r25, 0x01F7	; 0x8001f7 <_ZN8ns_rs2329txBufMaskE>
    5740:	89 23       	and	r24, r25
    5742:	80 93 ef 01 	sts	0x01EF, r24	; 0x8001ef <_ZN8ns_rs2326TxTailE>
    5746:	ff 91       	pop	r31
    5748:	ef 91       	pop	r30
    574a:	9f 91       	pop	r25
    574c:	8f 91       	pop	r24
    574e:	0f 90       	pop	r0
    5750:	0b be       	out	0x3b, r0	; 59
    5752:	0f 90       	pop	r0
    5754:	0f be       	out	0x3f, r0	; 63
    5756:	0f 90       	pop	r0
    5758:	1f 90       	pop	r1
    575a:	18 95       	reti

0000575c <_ZN8ns_rs2328SendByteEh>:
	// ==========================================
	uint8_t SendByte(uint8_t byte)
	{
		CRITICAL_SECTION
    575c:	3f b7       	in	r19, 0x3f	; 63
    return 1;
}

static __inline__ uint8_t __iCliRetVal(void)
{
    cli();
    575e:	f8 94       	cli
		{
			uint8_t tmpHead = (TxHead + 1) & txBufMask;
    5760:	90 91 f0 01 	lds	r25, 0x01F0	; 0x8001f0 <_ZN8ns_rs2326TxHeadE>
    5764:	9f 5f       	subi	r25, 0xFF	; 255
    5766:	20 91 f7 01 	lds	r18, 0x01F7	; 0x8001f7 <_ZN8ns_rs2329txBufMaskE>
    576a:	92 23       	and	r25, r18
			if (tmpHead == TxTail)
    576c:	20 91 ef 01 	lds	r18, 0x01EF	; 0x8001ef <_ZN8ns_rs2326TxTailE>
    5770:	92 17       	cp	r25, r18
    5772:	71 f0       	breq	.+28     	; 0x5790 <_ZN8ns_rs2328SendByteEh+0x34>
			return 0;
			else
			{
				TxBuf[TxHead] = byte;
    5774:	20 91 f0 01 	lds	r18, 0x01F0	; 0x8001f0 <_ZN8ns_rs2326TxHeadE>
    5778:	e0 91 f1 01 	lds	r30, 0x01F1	; 0x8001f1 <_ZN8ns_rs2325TxBufE>
    577c:	f0 91 f2 01 	lds	r31, 0x01F2	; 0x8001f2 <_ZN8ns_rs2325TxBufE+0x1>
    5780:	e2 0f       	add	r30, r18
    5782:	f1 1d       	adc	r31, r1
    5784:	80 83       	st	Z, r24
				TxHead = tmpHead;
    5786:	90 93 f0 01 	sts	0x01F0, r25	; 0x8001f0 <_ZN8ns_rs2326TxHeadE>
				UCSR0B_UDRIE0 = 1;
    578a:	55 9a       	sbi	0x0a, 5	; 10
				//UDR = byte;
				return 1;
    578c:	81 e0       	ldi	r24, 0x01	; 1
    578e:	01 c0       	rjmp	.+2      	; 0x5792 <_ZN8ns_rs2328SendByteEh+0x36>
	{
		CRITICAL_SECTION
		{
			uint8_t tmpHead = (TxHead + 1) & txBufMask;
			if (tmpHead == TxTail)
			return 0;
    5790:	80 e0       	ldi	r24, 0x00	; 0
    (void)__s;
}

static __inline__ void __iRestore(const  uint8_t *__s)
{
    SREG = *__s;
    5792:	3f bf       	out	0x3f, r19	; 63
				//UDR = byte;
				return 1;
			}
		}
		return 0;
	}
    5794:	08 95       	ret

00005796 <_ZN8ns_rs2327putCharEcP6__file>:
	int putChar(char c, FILE *stream)
	{
		// tabWin2Avr
		//if (c >= tabWin2AvrOffset)
		//c = pgm_read_byte(& tabWin2Avr[c - tabWin2AvrOffset]);
		SendByte(c);
    5796:	e2 df       	rcall	.-60     	; 0x575c <_ZN8ns_rs2328SendByteEh>
		return 1;
	}
    5798:	81 e0       	ldi	r24, 0x01	; 1
    579a:	90 e0       	ldi	r25, 0x00	; 0
    579c:	08 95       	ret

0000579e <_ZN8ns_rs2326StringEPKc>:
		}
		return 0;
	}
	// ==================================================
	void String(const char *stroka)
	{
    579e:	cf 93       	push	r28
    57a0:	df 93       	push	r29
    57a2:	ec 01       	movw	r28, r24
		char sim;
		while (true)
		{
			sim = *stroka;
    57a4:	88 81       	ld	r24, Y
			if (sim == 0) break;
    57a6:	88 23       	and	r24, r24
    57a8:	29 f0       	breq	.+10     	; 0x57b4 <_ZN8ns_rs2326StringEPKc+0x16>
    57aa:	21 96       	adiw	r28, 0x01	; 1
			SendByte(sim);
    57ac:	d7 df       	rcall	.-82     	; 0x575c <_ZN8ns_rs2328SendByteEh>
	void String(const char *stroka)
	{
		char sim;
		while (true)
		{
			sim = *stroka;
    57ae:	89 91       	ld	r24, Y+
			if (sim == 0) break;
    57b0:	81 11       	cpse	r24, r1
    57b2:	fc cf       	rjmp	.-8      	; 0x57ac <_ZN8ns_rs2326StringEPKc+0xe>
			SendByte(sim);
			stroka++;
		}
	}
    57b4:	df 91       	pop	r29
    57b6:	cf 91       	pop	r28
    57b8:	08 95       	ret

000057ba <_ZN8ns_rs2328String_PEPKc>:
	// ==================================================
	void String_P(const char *stroka)
	{
    57ba:	cf 93       	push	r28
    57bc:	df 93       	push	r29
    57be:	ec 01       	movw	r28, r24
		char sim;
		while (true)
		{
			sim = pgm_read_byte(stroka);
    57c0:	fc 01       	movw	r30, r24
    57c2:	84 91       	lpm	r24, Z
			if (sim == 0) break;
    57c4:	88 23       	and	r24, r24
    57c6:	31 f0       	breq	.+12     	; 0x57d4 <_ZN8ns_rs2328String_PEPKc+0x1a>
			SendByte(sim);
    57c8:	c9 df       	rcall	.-110    	; 0x575c <_ZN8ns_rs2328SendByteEh>
			stroka++;
    57ca:	21 96       	adiw	r28, 0x01	; 1
	void String_P(const char *stroka)
	{
		char sim;
		while (true)
		{
			sim = pgm_read_byte(stroka);
    57cc:	fe 01       	movw	r30, r28
    57ce:	84 91       	lpm	r24, Z
			if (sim == 0) break;
    57d0:	81 11       	cpse	r24, r1
    57d2:	fa cf       	rjmp	.-12     	; 0x57c8 <_ZN8ns_rs2328String_PEPKc+0xe>
			SendByte(sim);
			stroka++;
		}
	}
    57d4:	df 91       	pop	r29
    57d6:	cf 91       	pop	r28
    57d8:	08 95       	ret

000057da <_ZN8ns_rs2326DigitZEhl>:
			digit /= 10;
		}
		String(sss);
	}
	void DigitZ(uint8_t len, int32_t digit)
	{
    57da:	4f 92       	push	r4
    57dc:	5f 92       	push	r5
    57de:	6f 92       	push	r6
    57e0:	7f 92       	push	r7
    57e2:	af 92       	push	r10
    57e4:	bf 92       	push	r11
    57e6:	cf 92       	push	r12
    57e8:	df 92       	push	r13
    57ea:	ef 92       	push	r14
    57ec:	ff 92       	push	r15
    57ee:	1f 93       	push	r17
    57f0:	cf 93       	push	r28
    57f2:	df 93       	push	r29
    57f4:	cd b7       	in	r28, 0x3d	; 61
    57f6:	de b7       	in	r29, 0x3e	; 62
    57f8:	60 97       	sbiw	r28, 0x10	; 16
    57fa:	0f b6       	in	r0, 0x3f	; 63
    57fc:	f8 94       	cli
    57fe:	de bf       	out	0x3e, r29	; 62
    5800:	0f be       	out	0x3f, r0	; 63
    5802:	cd bf       	out	0x3d, r28	; 61
    5804:	b8 2e       	mov	r11, r24
    5806:	6a 01       	movw	r12, r20
    5808:	7b 01       	movw	r14, r22
		if (digit < 0)
    580a:	77 23       	and	r23, r23
    580c:	5c f4       	brge	.+22     	; 0x5824 <_ZN8ns_rs2326DigitZEhl+0x4a>
		{
			SendByte('-');
    580e:	8d e2       	ldi	r24, 0x2D	; 45
    5810:	a5 df       	rcall	.-182    	; 0x575c <_ZN8ns_rs2328SendByteEh>
			len--;
    5812:	ba 94       	dec	r11
			digit = -digit;
    5814:	f0 94       	com	r15
    5816:	e0 94       	com	r14
    5818:	d0 94       	com	r13
    581a:	c0 94       	com	r12
    581c:	c1 1c       	adc	r12, r1
    581e:	d1 1c       	adc	r13, r1
    5820:	e1 1c       	adc	r14, r1
    5822:	f1 1c       	adc	r15, r1
		}
		char sss[16];
		sss[len] = 0;
    5824:	fe 01       	movw	r30, r28
    5826:	eb 0d       	add	r30, r11
    5828:	f1 1d       	adc	r31, r1
    582a:	11 82       	std	Z+1, r1	; 0x01

		uint8_t low;// = digit % 10;
		//sss[len] = '0' + low;
		//digit /= 10;
		//len--;
		while(len-->0)
    582c:	1f ef       	ldi	r17, 0xFF	; 255
    582e:	1b 0d       	add	r17, r11
    5830:	bb 20       	and	r11, r11
    5832:	e1 f0       	breq	.+56     	; 0x586c <_ZN8ns_rs2326DigitZEhl+0x92>
		{
			low = digit % 10;
    5834:	0f 2e       	mov	r0, r31
    5836:	fa e0       	ldi	r31, 0x0A	; 10
    5838:	4f 2e       	mov	r4, r31
    583a:	51 2c       	mov	r5, r1
    583c:	61 2c       	mov	r6, r1
    583e:	71 2c       	mov	r7, r1
    5840:	f0 2d       	mov	r31, r0
			sss[len] = '0' + low;
    5842:	aa 24       	eor	r10, r10
    5844:	a3 94       	inc	r10
    5846:	b1 2c       	mov	r11, r1
    5848:	ac 0e       	add	r10, r28
    584a:	bd 1e       	adc	r11, r29
    584c:	a1 0e       	add	r10, r17
    584e:	b1 1c       	adc	r11, r1
		//sss[len] = '0' + low;
		//digit /= 10;
		//len--;
		while(len-->0)
		{
			low = digit % 10;
    5850:	c7 01       	movw	r24, r14
    5852:	b6 01       	movw	r22, r12
    5854:	a3 01       	movw	r20, r6
    5856:	92 01       	movw	r18, r4
    5858:	a7 d0       	rcall	.+334    	; 0x59a8 <__divmodsi4>
			sss[len] = '0' + low;
    585a:	60 5d       	subi	r22, 0xD0	; 208
    585c:	f5 01       	movw	r30, r10
    585e:	60 83       	st	Z, r22
			digit /= 10;
    5860:	c2 2e       	mov	r12, r18
    5862:	d3 2e       	mov	r13, r19
    5864:	e4 2e       	mov	r14, r20
    5866:	f5 2e       	mov	r15, r21

		uint8_t low;// = digit % 10;
		//sss[len] = '0' + low;
		//digit /= 10;
		//len--;
		while(len-->0)
    5868:	11 50       	subi	r17, 0x01	; 1
    586a:	58 f7       	brcc	.-42     	; 0x5842 <_ZN8ns_rs2326DigitZEhl+0x68>
		{
			low = digit % 10;
			sss[len] = '0' + low;
			digit /= 10;
		}
		String(sss);
    586c:	ce 01       	movw	r24, r28
    586e:	01 96       	adiw	r24, 0x01	; 1
    5870:	96 df       	rcall	.-212    	; 0x579e <_ZN8ns_rs2326StringEPKc>
	}
    5872:	60 96       	adiw	r28, 0x10	; 16
    5874:	0f b6       	in	r0, 0x3f	; 63
    5876:	f8 94       	cli
    5878:	de bf       	out	0x3e, r29	; 62
    587a:	0f be       	out	0x3f, r0	; 63
    587c:	cd bf       	out	0x3d, r28	; 61
    587e:	df 91       	pop	r29
    5880:	cf 91       	pop	r28
    5882:	1f 91       	pop	r17
    5884:	ff 90       	pop	r15
    5886:	ef 90       	pop	r14
    5888:	df 90       	pop	r13
    588a:	cf 90       	pop	r12
    588c:	bf 90       	pop	r11
    588e:	af 90       	pop	r10
    5890:	7f 90       	pop	r7
    5892:	6f 90       	pop	r6
    5894:	5f 90       	pop	r5
    5896:	4f 90       	pop	r4
    5898:	08 95       	ret

0000589a <_ZN12ns_timerMain4InitEv>:
{
	//  1, 8, 64, 256, 1024
	void Init()
	{
		uint16_t prDiv;
		TCCR2 = 0;
    589a:	15 bc       	out	0x25, r1	; 37
		// CTC mode
		TCCR2_WGM21 = 1;
    589c:	85 b5       	in	r24, 0x25	; 37
    589e:	88 60       	ori	r24, 0x08	; 8
    58a0:	85 bd       	out	0x25, r24	; 37
		TCCR2_WGM20 = 0;
    58a2:	85 b5       	in	r24, 0x25	; 37
    58a4:	8f 7b       	andi	r24, 0xBF	; 191
    58a6:	85 bd       	out	0x25, r24	; 37
		TCCR2_COM21 = 0;
    58a8:	85 b5       	in	r24, 0x25	; 37
    58aa:	8f 7d       	andi	r24, 0xDF	; 223
    58ac:	85 bd       	out	0x25, r24	; 37
		TCCR2_COM20 = 0;
    58ae:	85 b5       	in	r24, 0x25	; 37
    58b0:	8f 7e       	andi	r24, 0xEF	; 239
    58b2:	85 bd       	out	0x25, r24	; 37
			TCCR2_CS20 = 0;
		}
		else if (prDiv <= 64)
		{
			prDiv = 64;
			TCCR2_CS22 = 0;
    58b4:	85 b5       	in	r24, 0x25	; 37
    58b6:	8b 7f       	andi	r24, 0xFB	; 251
    58b8:	85 bd       	out	0x25, r24	; 37
			TCCR2_CS21 = 1;
    58ba:	85 b5       	in	r24, 0x25	; 37
    58bc:	82 60       	ori	r24, 0x02	; 2
    58be:	85 bd       	out	0x25, r24	; 37
			TCCR2_CS20 = 1;
    58c0:	85 b5       	in	r24, 0x25	; 37
    58c2:	81 60       	ori	r24, 0x01	; 1
    58c4:	85 bd       	out	0x25, r24	; 37
			TCCR2_CS22 = 1;
			TCCR2_CS21 = 0;
			TCCR2_CS20 = 1;
		}
		//  
		TCCR2_FOC2 = 0;
    58c6:	85 b5       	in	r24, 0x25	; 37
    58c8:	8f 77       	andi	r24, 0x7F	; 127
    58ca:	85 bd       	out	0x25, r24	; 37
		TCNT2 = 0;
    58cc:	14 bc       	out	0x24, r1	; 36
		uint8_t div = (uint8_t)( ((uint32_t)C_Fosc) / ( ((uint32_t)prDiv) * ((uint32_t)FtTimerMain) * ((uint32_t)1) ) ) - 1;
		OCR2 = div;
    58ce:	8c e7       	ldi	r24, 0x7C	; 124
    58d0:	83 bd       	out	0x23, r24	; 35
		TIFR_OCF2 = 0;
    58d2:	86 b7       	in	r24, 0x36	; 54
    58d4:	8f 77       	andi	r24, 0x7F	; 127
    58d6:	86 bf       	out	0x36, r24	; 54
		TIFR_TOV2 = 0;
    58d8:	86 b7       	in	r24, 0x36	; 54
    58da:	8f 7b       	andi	r24, 0xBF	; 191
    58dc:	86 bf       	out	0x36, r24	; 54
		TIMSK_OCIE2 = 1;
    58de:	87 b7       	in	r24, 0x37	; 55
    58e0:	80 68       	ori	r24, 0x80	; 128
    58e2:	87 bf       	out	0x37, r24	; 55
    58e4:	08 95       	ret

000058e6 <__vector_9>:
	}
	// =============
	ISR(TIMER2_COMP_vect)
	{
    58e6:	1f 92       	push	r1
    58e8:	0f 92       	push	r0
    58ea:	0f b6       	in	r0, 0x3f	; 63
    58ec:	0f 92       	push	r0
    58ee:	11 24       	eor	r1, r1
    58f0:	0b b6       	in	r0, 0x3b	; 59
    58f2:	0f 92       	push	r0
    58f4:	2f 93       	push	r18
    58f6:	3f 93       	push	r19
    58f8:	4f 93       	push	r20
    58fa:	5f 93       	push	r21
    58fc:	6f 93       	push	r22
    58fe:	7f 93       	push	r23
    5900:	8f 93       	push	r24
    5902:	9f 93       	push	r25
    5904:	af 93       	push	r26
    5906:	bf 93       	push	r27
    5908:	ef 93       	push	r30
    590a:	ff 93       	push	r31
		ns_module::InterruptMainTimer();
    590c:	0e 94 ca 21 	call	0x4394	; 0x4394 <_ZN9ns_module18InterruptMainTimerEv>
	}
    5910:	ff 91       	pop	r31
    5912:	ef 91       	pop	r30
    5914:	bf 91       	pop	r27
    5916:	af 91       	pop	r26
    5918:	9f 91       	pop	r25
    591a:	8f 91       	pop	r24
    591c:	7f 91       	pop	r23
    591e:	6f 91       	pop	r22
    5920:	5f 91       	pop	r21
    5922:	4f 91       	pop	r20
    5924:	3f 91       	pop	r19
    5926:	2f 91       	pop	r18
    5928:	0f 90       	pop	r0
    592a:	0b be       	out	0x3b, r0	; 59
    592c:	0f 90       	pop	r0
    592e:	0f be       	out	0x3f, r0	; 63
    5930:	0f 90       	pop	r0
    5932:	1f 90       	pop	r1
    5934:	18 95       	reti

00005936 <_ZN11ns_watchdog7enabledEv>:
				"out __SREG__,__tmp_reg__"   "\n\t"
				: [TEMPREG] "=d" (temp_reg)
				: [WDTREG]  "I"  (_SFR_IO_ADDR(_WD_CONTROL_REG)),
				[WDCE_WDE]  "n"  ((uint8_t)(_BV(_WD_CHANGE_BIT) | _BV(WDE)))
				: "r0"
		);
    5936:	9e e0       	ldi	r25, 0x0E	; 14
    5938:	88 e1       	ldi	r24, 0x18	; 24
    593a:	0f b6       	in	r0, 0x3f	; 63
    593c:	f8 94       	cli
    593e:	a8 95       	wdr
    5940:	81 bd       	out	0x21, r24	; 33
    5942:	0f be       	out	0x3f, r0	; 63
    5944:	91 bd       	out	0x21, r25	; 33
    5946:	08 95       	ret

00005948 <_ZN11ns_watchdog5resetEv>:
    {
		wdt_disable();
    }
    void reset()
    {
	    wdt_reset();
    5948:	a8 95       	wdr
    594a:	08 95       	ret

0000594c <__udivmodqi4>:
    594c:	99 1b       	sub	r25, r25
    594e:	79 e0       	ldi	r23, 0x09	; 9
    5950:	04 c0       	rjmp	.+8      	; 0x595a <__udivmodqi4_ep>

00005952 <__udivmodqi4_loop>:
    5952:	99 1f       	adc	r25, r25
    5954:	96 17       	cp	r25, r22
    5956:	08 f0       	brcs	.+2      	; 0x595a <__udivmodqi4_ep>
    5958:	96 1b       	sub	r25, r22

0000595a <__udivmodqi4_ep>:
    595a:	88 1f       	adc	r24, r24
    595c:	7a 95       	dec	r23
    595e:	c9 f7       	brne	.-14     	; 0x5952 <__udivmodqi4_loop>
    5960:	80 95       	com	r24
    5962:	08 95       	ret

00005964 <__udivmodsi4>:
    5964:	a1 e2       	ldi	r26, 0x21	; 33
    5966:	1a 2e       	mov	r1, r26
    5968:	aa 1b       	sub	r26, r26
    596a:	bb 1b       	sub	r27, r27
    596c:	fd 01       	movw	r30, r26
    596e:	0d c0       	rjmp	.+26     	; 0x598a <__udivmodsi4_ep>

00005970 <__udivmodsi4_loop>:
    5970:	aa 1f       	adc	r26, r26
    5972:	bb 1f       	adc	r27, r27
    5974:	ee 1f       	adc	r30, r30
    5976:	ff 1f       	adc	r31, r31
    5978:	a2 17       	cp	r26, r18
    597a:	b3 07       	cpc	r27, r19
    597c:	e4 07       	cpc	r30, r20
    597e:	f5 07       	cpc	r31, r21
    5980:	20 f0       	brcs	.+8      	; 0x598a <__udivmodsi4_ep>
    5982:	a2 1b       	sub	r26, r18
    5984:	b3 0b       	sbc	r27, r19
    5986:	e4 0b       	sbc	r30, r20
    5988:	f5 0b       	sbc	r31, r21

0000598a <__udivmodsi4_ep>:
    598a:	66 1f       	adc	r22, r22
    598c:	77 1f       	adc	r23, r23
    598e:	88 1f       	adc	r24, r24
    5990:	99 1f       	adc	r25, r25
    5992:	1a 94       	dec	r1
    5994:	69 f7       	brne	.-38     	; 0x5970 <__udivmodsi4_loop>
    5996:	60 95       	com	r22
    5998:	70 95       	com	r23
    599a:	80 95       	com	r24
    599c:	90 95       	com	r25
    599e:	9b 01       	movw	r18, r22
    59a0:	ac 01       	movw	r20, r24
    59a2:	bd 01       	movw	r22, r26
    59a4:	cf 01       	movw	r24, r30
    59a6:	08 95       	ret

000059a8 <__divmodsi4>:
    59a8:	05 2e       	mov	r0, r21
    59aa:	97 fb       	bst	r25, 7
    59ac:	16 f4       	brtc	.+4      	; 0x59b2 <__divmodsi4+0xa>
    59ae:	00 94       	com	r0
    59b0:	0f d0       	rcall	.+30     	; 0x59d0 <__negsi2>
    59b2:	57 fd       	sbrc	r21, 7
    59b4:	05 d0       	rcall	.+10     	; 0x59c0 <__divmodsi4_neg2>
    59b6:	d6 df       	rcall	.-84     	; 0x5964 <__udivmodsi4>
    59b8:	07 fc       	sbrc	r0, 7
    59ba:	02 d0       	rcall	.+4      	; 0x59c0 <__divmodsi4_neg2>
    59bc:	46 f4       	brtc	.+16     	; 0x59ce <__divmodsi4_exit>
    59be:	08 c0       	rjmp	.+16     	; 0x59d0 <__negsi2>

000059c0 <__divmodsi4_neg2>:
    59c0:	50 95       	com	r21
    59c2:	40 95       	com	r20
    59c4:	30 95       	com	r19
    59c6:	21 95       	neg	r18
    59c8:	3f 4f       	sbci	r19, 0xFF	; 255
    59ca:	4f 4f       	sbci	r20, 0xFF	; 255
    59cc:	5f 4f       	sbci	r21, 0xFF	; 255

000059ce <__divmodsi4_exit>:
    59ce:	08 95       	ret

000059d0 <__negsi2>:
    59d0:	90 95       	com	r25
    59d2:	80 95       	com	r24
    59d4:	70 95       	com	r23
    59d6:	61 95       	neg	r22
    59d8:	7f 4f       	sbci	r23, 0xFF	; 255
    59da:	8f 4f       	sbci	r24, 0xFF	; 255
    59dc:	9f 4f       	sbci	r25, 0xFF	; 255
    59de:	08 95       	ret

000059e0 <__umulhisi3>:
    59e0:	a2 9f       	mul	r26, r18
    59e2:	b0 01       	movw	r22, r0
    59e4:	b3 9f       	mul	r27, r19
    59e6:	c0 01       	movw	r24, r0
    59e8:	a3 9f       	mul	r26, r19
    59ea:	70 0d       	add	r23, r0
    59ec:	81 1d       	adc	r24, r1
    59ee:	11 24       	eor	r1, r1
    59f0:	91 1d       	adc	r25, r1
    59f2:	b2 9f       	mul	r27, r18
    59f4:	70 0d       	add	r23, r0
    59f6:	81 1d       	adc	r24, r1
    59f8:	11 24       	eor	r1, r1
    59fa:	91 1d       	adc	r25, r1
    59fc:	08 95       	ret

000059fe <__muldi3>:
    59fe:	df 93       	push	r29
    5a00:	cf 93       	push	r28
    5a02:	1f 93       	push	r17
    5a04:	0f 93       	push	r16
    5a06:	9a 9d       	mul	r25, r10
    5a08:	f0 2d       	mov	r31, r0
    5a0a:	21 9f       	mul	r18, r17
    5a0c:	f0 0d       	add	r31, r0
    5a0e:	8b 9d       	mul	r24, r11
    5a10:	f0 0d       	add	r31, r0
    5a12:	8a 9d       	mul	r24, r10
    5a14:	e0 2d       	mov	r30, r0
    5a16:	f1 0d       	add	r31, r1
    5a18:	03 9f       	mul	r16, r19
    5a1a:	f0 0d       	add	r31, r0
    5a1c:	02 9f       	mul	r16, r18
    5a1e:	e0 0d       	add	r30, r0
    5a20:	f1 1d       	adc	r31, r1
    5a22:	4e 9d       	mul	r20, r14
    5a24:	e0 0d       	add	r30, r0
    5a26:	f1 1d       	adc	r31, r1
    5a28:	5e 9d       	mul	r21, r14
    5a2a:	f0 0d       	add	r31, r0
    5a2c:	4f 9d       	mul	r20, r15
    5a2e:	f0 0d       	add	r31, r0
    5a30:	7f 93       	push	r23
    5a32:	6f 93       	push	r22
    5a34:	bf 92       	push	r11
    5a36:	af 92       	push	r10
    5a38:	5f 93       	push	r21
    5a3a:	4f 93       	push	r20
    5a3c:	d5 01       	movw	r26, r10
    5a3e:	d0 df       	rcall	.-96     	; 0x59e0 <__umulhisi3>
    5a40:	8b 01       	movw	r16, r22
    5a42:	ac 01       	movw	r20, r24
    5a44:	d7 01       	movw	r26, r14
    5a46:	cc df       	rcall	.-104    	; 0x59e0 <__umulhisi3>
    5a48:	eb 01       	movw	r28, r22
    5a4a:	e8 0f       	add	r30, r24
    5a4c:	f9 1f       	adc	r31, r25
    5a4e:	d6 01       	movw	r26, r12
    5a50:	1f d0       	rcall	.+62     	; 0x5a90 <__muldi3_6>
    5a52:	2f 91       	pop	r18
    5a54:	3f 91       	pop	r19
    5a56:	d6 01       	movw	r26, r12
    5a58:	c3 df       	rcall	.-122    	; 0x59e0 <__umulhisi3>
    5a5a:	c6 0f       	add	r28, r22
    5a5c:	d7 1f       	adc	r29, r23
    5a5e:	e8 1f       	adc	r30, r24
    5a60:	f9 1f       	adc	r31, r25
    5a62:	af 91       	pop	r26
    5a64:	bf 91       	pop	r27
    5a66:	14 d0       	rcall	.+40     	; 0x5a90 <__muldi3_6>
    5a68:	2f 91       	pop	r18
    5a6a:	3f 91       	pop	r19
    5a6c:	b9 df       	rcall	.-142    	; 0x59e0 <__umulhisi3>
    5a6e:	c6 0f       	add	r28, r22
    5a70:	d7 1f       	adc	r29, r23
    5a72:	e8 1f       	adc	r30, r24
    5a74:	f9 1f       	adc	r31, r25
    5a76:	d6 01       	movw	r26, r12
    5a78:	b3 df       	rcall	.-154    	; 0x59e0 <__umulhisi3>
    5a7a:	e6 0f       	add	r30, r22
    5a7c:	f7 1f       	adc	r31, r23
    5a7e:	98 01       	movw	r18, r16
    5a80:	be 01       	movw	r22, r28
    5a82:	cf 01       	movw	r24, r30
    5a84:	11 24       	eor	r1, r1
    5a86:	0f 91       	pop	r16
    5a88:	1f 91       	pop	r17
    5a8a:	cf 91       	pop	r28
    5a8c:	df 91       	pop	r29
    5a8e:	08 95       	ret

00005a90 <__muldi3_6>:
    5a90:	a7 df       	rcall	.-178    	; 0x59e0 <__umulhisi3>
    5a92:	46 0f       	add	r20, r22
    5a94:	57 1f       	adc	r21, r23
    5a96:	c8 1f       	adc	r28, r24
    5a98:	d9 1f       	adc	r29, r25
    5a9a:	08 f4       	brcc	.+2      	; 0x5a9e <__muldi3_6+0xe>
    5a9c:	31 96       	adiw	r30, 0x01	; 1
    5a9e:	08 95       	ret

00005aa0 <__umoddi3>:
    5aa0:	68 94       	set
    5aa2:	01 c0       	rjmp	.+2      	; 0x5aa6 <__udivdi3_umoddi3>

00005aa4 <__udivdi3>:
    5aa4:	e8 94       	clt

00005aa6 <__udivdi3_umoddi3>:
    5aa6:	8f 92       	push	r8
    5aa8:	9f 92       	push	r9
    5aaa:	cf 93       	push	r28
    5aac:	df 93       	push	r29
    5aae:	05 d0       	rcall	.+10     	; 0x5aba <__udivmod64>
    5ab0:	df 91       	pop	r29
    5ab2:	cf 91       	pop	r28
    5ab4:	9f 90       	pop	r9
    5ab6:	8f 90       	pop	r8
    5ab8:	08 95       	ret

00005aba <__udivmod64>:
    5aba:	88 24       	eor	r8, r8
    5abc:	99 24       	eor	r9, r9
    5abe:	f4 01       	movw	r30, r8
    5ac0:	e4 01       	movw	r28, r8
    5ac2:	b0 e4       	ldi	r27, 0x40	; 64
    5ac4:	9f 93       	push	r25
    5ac6:	aa 27       	eor	r26, r26
    5ac8:	9a 15       	cp	r25, r10
    5aca:	8b 04       	cpc	r8, r11
    5acc:	9c 04       	cpc	r9, r12
    5ace:	ed 05       	cpc	r30, r13
    5ad0:	fe 05       	cpc	r31, r14
    5ad2:	cf 05       	cpc	r28, r15
    5ad4:	d0 07       	cpc	r29, r16
    5ad6:	a1 07       	cpc	r26, r17
    5ad8:	98 f4       	brcc	.+38     	; 0x5b00 <__udivmod64+0x46>
    5ada:	ad 2f       	mov	r26, r29
    5adc:	dc 2f       	mov	r29, r28
    5ade:	cf 2f       	mov	r28, r31
    5ae0:	fe 2f       	mov	r31, r30
    5ae2:	e9 2d       	mov	r30, r9
    5ae4:	98 2c       	mov	r9, r8
    5ae6:	89 2e       	mov	r8, r25
    5ae8:	98 2f       	mov	r25, r24
    5aea:	87 2f       	mov	r24, r23
    5aec:	76 2f       	mov	r23, r22
    5aee:	65 2f       	mov	r22, r21
    5af0:	54 2f       	mov	r21, r20
    5af2:	43 2f       	mov	r20, r19
    5af4:	32 2f       	mov	r19, r18
    5af6:	22 27       	eor	r18, r18
    5af8:	b8 50       	subi	r27, 0x08	; 8
    5afa:	31 f7       	brne	.-52     	; 0x5ac8 <__udivmod64+0xe>
    5afc:	bf 91       	pop	r27
    5afe:	27 c0       	rjmp	.+78     	; 0x5b4e <__udivmod64+0x94>
    5b00:	1b 2e       	mov	r1, r27
    5b02:	bf 91       	pop	r27
    5b04:	bb 27       	eor	r27, r27
    5b06:	22 0f       	add	r18, r18
    5b08:	33 1f       	adc	r19, r19
    5b0a:	44 1f       	adc	r20, r20
    5b0c:	55 1f       	adc	r21, r21
    5b0e:	66 1f       	adc	r22, r22
    5b10:	77 1f       	adc	r23, r23
    5b12:	88 1f       	adc	r24, r24
    5b14:	99 1f       	adc	r25, r25
    5b16:	88 1c       	adc	r8, r8
    5b18:	99 1c       	adc	r9, r9
    5b1a:	ee 1f       	adc	r30, r30
    5b1c:	ff 1f       	adc	r31, r31
    5b1e:	cc 1f       	adc	r28, r28
    5b20:	dd 1f       	adc	r29, r29
    5b22:	aa 1f       	adc	r26, r26
    5b24:	bb 1f       	adc	r27, r27
    5b26:	8a 14       	cp	r8, r10
    5b28:	9b 04       	cpc	r9, r11
    5b2a:	ec 05       	cpc	r30, r12
    5b2c:	fd 05       	cpc	r31, r13
    5b2e:	ce 05       	cpc	r28, r14
    5b30:	df 05       	cpc	r29, r15
    5b32:	a0 07       	cpc	r26, r16
    5b34:	b1 07       	cpc	r27, r17
    5b36:	48 f0       	brcs	.+18     	; 0x5b4a <__udivmod64+0x90>
    5b38:	8a 18       	sub	r8, r10
    5b3a:	9b 08       	sbc	r9, r11
    5b3c:	ec 09       	sbc	r30, r12
    5b3e:	fd 09       	sbc	r31, r13
    5b40:	ce 09       	sbc	r28, r14
    5b42:	df 09       	sbc	r29, r15
    5b44:	a0 0b       	sbc	r26, r16
    5b46:	b1 0b       	sbc	r27, r17
    5b48:	21 60       	ori	r18, 0x01	; 1
    5b4a:	1a 94       	dec	r1
    5b4c:	e1 f6       	brne	.-72     	; 0x5b06 <__udivmod64+0x4c>
    5b4e:	2e f4       	brtc	.+10     	; 0x5b5a <__udivmod64+0xa0>
    5b50:	94 01       	movw	r18, r8
    5b52:	af 01       	movw	r20, r30
    5b54:	be 01       	movw	r22, r28
    5b56:	cd 01       	movw	r24, r26
    5b58:	00 0c       	add	r0, r0
    5b5a:	08 95       	ret

00005b5c <__ashldi3>:
    5b5c:	0f 93       	push	r16
    5b5e:	08 30       	cpi	r16, 0x08	; 8
    5b60:	90 f0       	brcs	.+36     	; 0x5b86 <__ashldi3+0x2a>
    5b62:	98 2f       	mov	r25, r24
    5b64:	87 2f       	mov	r24, r23
    5b66:	76 2f       	mov	r23, r22
    5b68:	65 2f       	mov	r22, r21
    5b6a:	54 2f       	mov	r21, r20
    5b6c:	43 2f       	mov	r20, r19
    5b6e:	32 2f       	mov	r19, r18
    5b70:	22 27       	eor	r18, r18
    5b72:	08 50       	subi	r16, 0x08	; 8
    5b74:	f4 cf       	rjmp	.-24     	; 0x5b5e <__ashldi3+0x2>
    5b76:	22 0f       	add	r18, r18
    5b78:	33 1f       	adc	r19, r19
    5b7a:	44 1f       	adc	r20, r20
    5b7c:	55 1f       	adc	r21, r21
    5b7e:	66 1f       	adc	r22, r22
    5b80:	77 1f       	adc	r23, r23
    5b82:	88 1f       	adc	r24, r24
    5b84:	99 1f       	adc	r25, r25
    5b86:	0a 95       	dec	r16
    5b88:	b2 f7       	brpl	.-20     	; 0x5b76 <__ashldi3+0x1a>
    5b8a:	0f 91       	pop	r16
    5b8c:	08 95       	ret

00005b8e <__adddi3>:
    5b8e:	2a 0d       	add	r18, r10
    5b90:	3b 1d       	adc	r19, r11
    5b92:	4c 1d       	adc	r20, r12
    5b94:	5d 1d       	adc	r21, r13
    5b96:	6e 1d       	adc	r22, r14
    5b98:	7f 1d       	adc	r23, r15
    5b9a:	80 1f       	adc	r24, r16
    5b9c:	91 1f       	adc	r25, r17
    5b9e:	08 95       	ret

00005ba0 <__adddi3_s8>:
    5ba0:	00 24       	eor	r0, r0
    5ba2:	a7 fd       	sbrc	r26, 7
    5ba4:	00 94       	com	r0
    5ba6:	2a 0f       	add	r18, r26
    5ba8:	30 1d       	adc	r19, r0
    5baa:	40 1d       	adc	r20, r0
    5bac:	50 1d       	adc	r21, r0
    5bae:	60 1d       	adc	r22, r0
    5bb0:	70 1d       	adc	r23, r0
    5bb2:	80 1d       	adc	r24, r0
    5bb4:	90 1d       	adc	r25, r0
    5bb6:	08 95       	ret

00005bb8 <__tablejump2__>:
    5bb8:	ee 0f       	add	r30, r30
    5bba:	ff 1f       	adc	r31, r31
    5bbc:	00 24       	eor	r0, r0
    5bbe:	00 1c       	adc	r0, r0
    5bc0:	0b be       	out	0x3b, r0	; 59
    5bc2:	07 90       	elpm	r0, Z+
    5bc4:	f6 91       	elpm	r31, Z
    5bc6:	e0 2d       	mov	r30, r0
    5bc8:	09 94       	ijmp

00005bca <malloc>:
    5bca:	cf 93       	push	r28
    5bcc:	df 93       	push	r29
    5bce:	82 30       	cpi	r24, 0x02	; 2
    5bd0:	91 05       	cpc	r25, r1
    5bd2:	10 f4       	brcc	.+4      	; 0x5bd8 <malloc+0xe>
    5bd4:	82 e0       	ldi	r24, 0x02	; 2
    5bd6:	90 e0       	ldi	r25, 0x00	; 0
    5bd8:	e0 91 03 02 	lds	r30, 0x0203	; 0x800203 <__flp>
    5bdc:	f0 91 04 02 	lds	r31, 0x0204	; 0x800204 <__flp+0x1>
    5be0:	20 e0       	ldi	r18, 0x00	; 0
    5be2:	30 e0       	ldi	r19, 0x00	; 0
    5be4:	c0 e0       	ldi	r28, 0x00	; 0
    5be6:	d0 e0       	ldi	r29, 0x00	; 0
    5be8:	30 97       	sbiw	r30, 0x00	; 0
    5bea:	11 f1       	breq	.+68     	; 0x5c30 <malloc+0x66>
    5bec:	40 81       	ld	r20, Z
    5bee:	51 81       	ldd	r21, Z+1	; 0x01
    5bf0:	48 17       	cp	r20, r24
    5bf2:	59 07       	cpc	r21, r25
    5bf4:	c0 f0       	brcs	.+48     	; 0x5c26 <malloc+0x5c>
    5bf6:	48 17       	cp	r20, r24
    5bf8:	59 07       	cpc	r21, r25
    5bfa:	61 f4       	brne	.+24     	; 0x5c14 <malloc+0x4a>
    5bfc:	82 81       	ldd	r24, Z+2	; 0x02
    5bfe:	93 81       	ldd	r25, Z+3	; 0x03
    5c00:	20 97       	sbiw	r28, 0x00	; 0
    5c02:	19 f0       	breq	.+6      	; 0x5c0a <malloc+0x40>
    5c04:	9b 83       	std	Y+3, r25	; 0x03
    5c06:	8a 83       	std	Y+2, r24	; 0x02
    5c08:	2b c0       	rjmp	.+86     	; 0x5c60 <malloc+0x96>
    5c0a:	90 93 04 02 	sts	0x0204, r25	; 0x800204 <__flp+0x1>
    5c0e:	80 93 03 02 	sts	0x0203, r24	; 0x800203 <__flp>
    5c12:	26 c0       	rjmp	.+76     	; 0x5c60 <malloc+0x96>
    5c14:	21 15       	cp	r18, r1
    5c16:	31 05       	cpc	r19, r1
    5c18:	19 f0       	breq	.+6      	; 0x5c20 <malloc+0x56>
    5c1a:	42 17       	cp	r20, r18
    5c1c:	53 07       	cpc	r21, r19
    5c1e:	18 f4       	brcc	.+6      	; 0x5c26 <malloc+0x5c>
    5c20:	9a 01       	movw	r18, r20
    5c22:	be 01       	movw	r22, r28
    5c24:	df 01       	movw	r26, r30
    5c26:	ef 01       	movw	r28, r30
    5c28:	02 80       	ldd	r0, Z+2	; 0x02
    5c2a:	f3 81       	ldd	r31, Z+3	; 0x03
    5c2c:	e0 2d       	mov	r30, r0
    5c2e:	dc cf       	rjmp	.-72     	; 0x5be8 <malloc+0x1e>
    5c30:	21 15       	cp	r18, r1
    5c32:	31 05       	cpc	r19, r1
    5c34:	09 f1       	breq	.+66     	; 0x5c78 <malloc+0xae>
    5c36:	28 1b       	sub	r18, r24
    5c38:	39 0b       	sbc	r19, r25
    5c3a:	24 30       	cpi	r18, 0x04	; 4
    5c3c:	31 05       	cpc	r19, r1
    5c3e:	90 f4       	brcc	.+36     	; 0x5c64 <malloc+0x9a>
    5c40:	12 96       	adiw	r26, 0x02	; 2
    5c42:	8d 91       	ld	r24, X+
    5c44:	9c 91       	ld	r25, X
    5c46:	13 97       	sbiw	r26, 0x03	; 3
    5c48:	61 15       	cp	r22, r1
    5c4a:	71 05       	cpc	r23, r1
    5c4c:	21 f0       	breq	.+8      	; 0x5c56 <malloc+0x8c>
    5c4e:	fb 01       	movw	r30, r22
    5c50:	93 83       	std	Z+3, r25	; 0x03
    5c52:	82 83       	std	Z+2, r24	; 0x02
    5c54:	04 c0       	rjmp	.+8      	; 0x5c5e <malloc+0x94>
    5c56:	90 93 04 02 	sts	0x0204, r25	; 0x800204 <__flp+0x1>
    5c5a:	80 93 03 02 	sts	0x0203, r24	; 0x800203 <__flp>
    5c5e:	fd 01       	movw	r30, r26
    5c60:	32 96       	adiw	r30, 0x02	; 2
    5c62:	44 c0       	rjmp	.+136    	; 0x5cec <malloc+0x122>
    5c64:	fd 01       	movw	r30, r26
    5c66:	e2 0f       	add	r30, r18
    5c68:	f3 1f       	adc	r31, r19
    5c6a:	81 93       	st	Z+, r24
    5c6c:	91 93       	st	Z+, r25
    5c6e:	22 50       	subi	r18, 0x02	; 2
    5c70:	31 09       	sbc	r19, r1
    5c72:	2d 93       	st	X+, r18
    5c74:	3c 93       	st	X, r19
    5c76:	3a c0       	rjmp	.+116    	; 0x5cec <malloc+0x122>
    5c78:	20 91 01 02 	lds	r18, 0x0201	; 0x800201 <__brkval>
    5c7c:	30 91 02 02 	lds	r19, 0x0202	; 0x800202 <__brkval+0x1>
    5c80:	23 2b       	or	r18, r19
    5c82:	41 f4       	brne	.+16     	; 0x5c94 <malloc+0xca>
    5c84:	20 91 02 01 	lds	r18, 0x0102	; 0x800102 <__malloc_heap_start>
    5c88:	30 91 03 01 	lds	r19, 0x0103	; 0x800103 <__malloc_heap_start+0x1>
    5c8c:	30 93 02 02 	sts	0x0202, r19	; 0x800202 <__brkval+0x1>
    5c90:	20 93 01 02 	sts	0x0201, r18	; 0x800201 <__brkval>
    5c94:	20 91 00 01 	lds	r18, 0x0100	; 0x800100 <__data_start>
    5c98:	30 91 01 01 	lds	r19, 0x0101	; 0x800101 <__data_start+0x1>
    5c9c:	21 15       	cp	r18, r1
    5c9e:	31 05       	cpc	r19, r1
    5ca0:	41 f4       	brne	.+16     	; 0x5cb2 <malloc+0xe8>
    5ca2:	2d b7       	in	r18, 0x3d	; 61
    5ca4:	3e b7       	in	r19, 0x3e	; 62
    5ca6:	40 91 04 01 	lds	r20, 0x0104	; 0x800104 <__malloc_margin>
    5caa:	50 91 05 01 	lds	r21, 0x0105	; 0x800105 <__malloc_margin+0x1>
    5cae:	24 1b       	sub	r18, r20
    5cb0:	35 0b       	sbc	r19, r21
    5cb2:	e0 91 01 02 	lds	r30, 0x0201	; 0x800201 <__brkval>
    5cb6:	f0 91 02 02 	lds	r31, 0x0202	; 0x800202 <__brkval+0x1>
    5cba:	e2 17       	cp	r30, r18
    5cbc:	f3 07       	cpc	r31, r19
    5cbe:	a0 f4       	brcc	.+40     	; 0x5ce8 <malloc+0x11e>
    5cc0:	2e 1b       	sub	r18, r30
    5cc2:	3f 0b       	sbc	r19, r31
    5cc4:	28 17       	cp	r18, r24
    5cc6:	39 07       	cpc	r19, r25
    5cc8:	78 f0       	brcs	.+30     	; 0x5ce8 <malloc+0x11e>
    5cca:	ac 01       	movw	r20, r24
    5ccc:	4e 5f       	subi	r20, 0xFE	; 254
    5cce:	5f 4f       	sbci	r21, 0xFF	; 255
    5cd0:	24 17       	cp	r18, r20
    5cd2:	35 07       	cpc	r19, r21
    5cd4:	48 f0       	brcs	.+18     	; 0x5ce8 <malloc+0x11e>
    5cd6:	4e 0f       	add	r20, r30
    5cd8:	5f 1f       	adc	r21, r31
    5cda:	50 93 02 02 	sts	0x0202, r21	; 0x800202 <__brkval+0x1>
    5cde:	40 93 01 02 	sts	0x0201, r20	; 0x800201 <__brkval>
    5ce2:	81 93       	st	Z+, r24
    5ce4:	91 93       	st	Z+, r25
    5ce6:	02 c0       	rjmp	.+4      	; 0x5cec <malloc+0x122>
    5ce8:	e0 e0       	ldi	r30, 0x00	; 0
    5cea:	f0 e0       	ldi	r31, 0x00	; 0
    5cec:	cf 01       	movw	r24, r30
    5cee:	df 91       	pop	r29
    5cf0:	cf 91       	pop	r28
    5cf2:	08 95       	ret

00005cf4 <free>:
    5cf4:	0f 93       	push	r16
    5cf6:	1f 93       	push	r17
    5cf8:	cf 93       	push	r28
    5cfa:	df 93       	push	r29
    5cfc:	00 97       	sbiw	r24, 0x00	; 0
    5cfe:	09 f4       	brne	.+2      	; 0x5d02 <free+0xe>
    5d00:	8c c0       	rjmp	.+280    	; 0x5e1a <free+0x126>
    5d02:	fc 01       	movw	r30, r24
    5d04:	32 97       	sbiw	r30, 0x02	; 2
    5d06:	13 82       	std	Z+3, r1	; 0x03
    5d08:	12 82       	std	Z+2, r1	; 0x02
    5d0a:	00 91 03 02 	lds	r16, 0x0203	; 0x800203 <__flp>
    5d0e:	10 91 04 02 	lds	r17, 0x0204	; 0x800204 <__flp+0x1>
    5d12:	01 15       	cp	r16, r1
    5d14:	11 05       	cpc	r17, r1
    5d16:	81 f4       	brne	.+32     	; 0x5d38 <free+0x44>
    5d18:	20 81       	ld	r18, Z
    5d1a:	31 81       	ldd	r19, Z+1	; 0x01
    5d1c:	82 0f       	add	r24, r18
    5d1e:	93 1f       	adc	r25, r19
    5d20:	20 91 01 02 	lds	r18, 0x0201	; 0x800201 <__brkval>
    5d24:	30 91 02 02 	lds	r19, 0x0202	; 0x800202 <__brkval+0x1>
    5d28:	28 17       	cp	r18, r24
    5d2a:	39 07       	cpc	r19, r25
    5d2c:	79 f5       	brne	.+94     	; 0x5d8c <free+0x98>
    5d2e:	f0 93 02 02 	sts	0x0202, r31	; 0x800202 <__brkval+0x1>
    5d32:	e0 93 01 02 	sts	0x0201, r30	; 0x800201 <__brkval>
    5d36:	71 c0       	rjmp	.+226    	; 0x5e1a <free+0x126>
    5d38:	d8 01       	movw	r26, r16
    5d3a:	40 e0       	ldi	r20, 0x00	; 0
    5d3c:	50 e0       	ldi	r21, 0x00	; 0
    5d3e:	ae 17       	cp	r26, r30
    5d40:	bf 07       	cpc	r27, r31
    5d42:	50 f4       	brcc	.+20     	; 0x5d58 <free+0x64>
    5d44:	12 96       	adiw	r26, 0x02	; 2
    5d46:	2d 91       	ld	r18, X+
    5d48:	3c 91       	ld	r19, X
    5d4a:	13 97       	sbiw	r26, 0x03	; 3
    5d4c:	ad 01       	movw	r20, r26
    5d4e:	21 15       	cp	r18, r1
    5d50:	31 05       	cpc	r19, r1
    5d52:	09 f1       	breq	.+66     	; 0x5d96 <free+0xa2>
    5d54:	d9 01       	movw	r26, r18
    5d56:	f3 cf       	rjmp	.-26     	; 0x5d3e <free+0x4a>
    5d58:	9d 01       	movw	r18, r26
    5d5a:	da 01       	movw	r26, r20
    5d5c:	33 83       	std	Z+3, r19	; 0x03
    5d5e:	22 83       	std	Z+2, r18	; 0x02
    5d60:	60 81       	ld	r22, Z
    5d62:	71 81       	ldd	r23, Z+1	; 0x01
    5d64:	86 0f       	add	r24, r22
    5d66:	97 1f       	adc	r25, r23
    5d68:	82 17       	cp	r24, r18
    5d6a:	93 07       	cpc	r25, r19
    5d6c:	69 f4       	brne	.+26     	; 0x5d88 <free+0x94>
    5d6e:	ec 01       	movw	r28, r24
    5d70:	28 81       	ld	r18, Y
    5d72:	39 81       	ldd	r19, Y+1	; 0x01
    5d74:	26 0f       	add	r18, r22
    5d76:	37 1f       	adc	r19, r23
    5d78:	2e 5f       	subi	r18, 0xFE	; 254
    5d7a:	3f 4f       	sbci	r19, 0xFF	; 255
    5d7c:	31 83       	std	Z+1, r19	; 0x01
    5d7e:	20 83       	st	Z, r18
    5d80:	8a 81       	ldd	r24, Y+2	; 0x02
    5d82:	9b 81       	ldd	r25, Y+3	; 0x03
    5d84:	93 83       	std	Z+3, r25	; 0x03
    5d86:	82 83       	std	Z+2, r24	; 0x02
    5d88:	45 2b       	or	r20, r21
    5d8a:	29 f4       	brne	.+10     	; 0x5d96 <free+0xa2>
    5d8c:	f0 93 04 02 	sts	0x0204, r31	; 0x800204 <__flp+0x1>
    5d90:	e0 93 03 02 	sts	0x0203, r30	; 0x800203 <__flp>
    5d94:	42 c0       	rjmp	.+132    	; 0x5e1a <free+0x126>
    5d96:	13 96       	adiw	r26, 0x03	; 3
    5d98:	fc 93       	st	X, r31
    5d9a:	ee 93       	st	-X, r30
    5d9c:	12 97       	sbiw	r26, 0x02	; 2
    5d9e:	ed 01       	movw	r28, r26
    5da0:	49 91       	ld	r20, Y+
    5da2:	59 91       	ld	r21, Y+
    5da4:	9e 01       	movw	r18, r28
    5da6:	24 0f       	add	r18, r20
    5da8:	35 1f       	adc	r19, r21
    5daa:	e2 17       	cp	r30, r18
    5dac:	f3 07       	cpc	r31, r19
    5dae:	71 f4       	brne	.+28     	; 0x5dcc <free+0xd8>
    5db0:	80 81       	ld	r24, Z
    5db2:	91 81       	ldd	r25, Z+1	; 0x01
    5db4:	84 0f       	add	r24, r20
    5db6:	95 1f       	adc	r25, r21
    5db8:	02 96       	adiw	r24, 0x02	; 2
    5dba:	11 96       	adiw	r26, 0x01	; 1
    5dbc:	9c 93       	st	X, r25
    5dbe:	8e 93       	st	-X, r24
    5dc0:	82 81       	ldd	r24, Z+2	; 0x02
    5dc2:	93 81       	ldd	r25, Z+3	; 0x03
    5dc4:	13 96       	adiw	r26, 0x03	; 3
    5dc6:	9c 93       	st	X, r25
    5dc8:	8e 93       	st	-X, r24
    5dca:	12 97       	sbiw	r26, 0x02	; 2
    5dcc:	e0 e0       	ldi	r30, 0x00	; 0
    5dce:	f0 e0       	ldi	r31, 0x00	; 0
    5dd0:	d8 01       	movw	r26, r16
    5dd2:	12 96       	adiw	r26, 0x02	; 2
    5dd4:	8d 91       	ld	r24, X+
    5dd6:	9c 91       	ld	r25, X
    5dd8:	13 97       	sbiw	r26, 0x03	; 3
    5dda:	00 97       	sbiw	r24, 0x00	; 0
    5ddc:	19 f0       	breq	.+6      	; 0x5de4 <free+0xf0>
    5dde:	f8 01       	movw	r30, r16
    5de0:	8c 01       	movw	r16, r24
    5de2:	f6 cf       	rjmp	.-20     	; 0x5dd0 <free+0xdc>
    5de4:	8d 91       	ld	r24, X+
    5de6:	9c 91       	ld	r25, X
    5de8:	98 01       	movw	r18, r16
    5dea:	2e 5f       	subi	r18, 0xFE	; 254
    5dec:	3f 4f       	sbci	r19, 0xFF	; 255
    5dee:	82 0f       	add	r24, r18
    5df0:	93 1f       	adc	r25, r19
    5df2:	20 91 01 02 	lds	r18, 0x0201	; 0x800201 <__brkval>
    5df6:	30 91 02 02 	lds	r19, 0x0202	; 0x800202 <__brkval+0x1>
    5dfa:	28 17       	cp	r18, r24
    5dfc:	39 07       	cpc	r19, r25
    5dfe:	69 f4       	brne	.+26     	; 0x5e1a <free+0x126>
    5e00:	30 97       	sbiw	r30, 0x00	; 0
    5e02:	29 f4       	brne	.+10     	; 0x5e0e <free+0x11a>
    5e04:	10 92 04 02 	sts	0x0204, r1	; 0x800204 <__flp+0x1>
    5e08:	10 92 03 02 	sts	0x0203, r1	; 0x800203 <__flp>
    5e0c:	02 c0       	rjmp	.+4      	; 0x5e12 <free+0x11e>
    5e0e:	13 82       	std	Z+3, r1	; 0x03
    5e10:	12 82       	std	Z+2, r1	; 0x02
    5e12:	10 93 02 02 	sts	0x0202, r17	; 0x800202 <__brkval+0x1>
    5e16:	00 93 01 02 	sts	0x0201, r16	; 0x800201 <__brkval>
    5e1a:	df 91       	pop	r29
    5e1c:	cf 91       	pop	r28
    5e1e:	1f 91       	pop	r17
    5e20:	0f 91       	pop	r16
    5e22:	08 95       	ret

00005e24 <fdevopen>:
    5e24:	0f 93       	push	r16
    5e26:	1f 93       	push	r17
    5e28:	cf 93       	push	r28
    5e2a:	df 93       	push	r29
    5e2c:	00 97       	sbiw	r24, 0x00	; 0
    5e2e:	31 f4       	brne	.+12     	; 0x5e3c <fdevopen+0x18>
    5e30:	61 15       	cp	r22, r1
    5e32:	71 05       	cpc	r23, r1
    5e34:	19 f4       	brne	.+6      	; 0x5e3c <fdevopen+0x18>
    5e36:	80 e0       	ldi	r24, 0x00	; 0
    5e38:	90 e0       	ldi	r25, 0x00	; 0
    5e3a:	39 c0       	rjmp	.+114    	; 0x5eae <fdevopen+0x8a>
    5e3c:	8b 01       	movw	r16, r22
    5e3e:	ec 01       	movw	r28, r24
    5e40:	6e e0       	ldi	r22, 0x0E	; 14
    5e42:	70 e0       	ldi	r23, 0x00	; 0
    5e44:	81 e0       	ldi	r24, 0x01	; 1
    5e46:	90 e0       	ldi	r25, 0x00	; 0
    5e48:	37 d0       	rcall	.+110    	; 0x5eb8 <calloc>
    5e4a:	fc 01       	movw	r30, r24
    5e4c:	89 2b       	or	r24, r25
    5e4e:	99 f3       	breq	.-26     	; 0x5e36 <fdevopen+0x12>
    5e50:	80 e8       	ldi	r24, 0x80	; 128
    5e52:	83 83       	std	Z+3, r24	; 0x03
    5e54:	01 15       	cp	r16, r1
    5e56:	11 05       	cpc	r17, r1
    5e58:	71 f0       	breq	.+28     	; 0x5e76 <fdevopen+0x52>
    5e5a:	13 87       	std	Z+11, r17	; 0x0b
    5e5c:	02 87       	std	Z+10, r16	; 0x0a
    5e5e:	81 e8       	ldi	r24, 0x81	; 129
    5e60:	83 83       	std	Z+3, r24	; 0x03
    5e62:	80 91 05 02 	lds	r24, 0x0205	; 0x800205 <__iob>
    5e66:	90 91 06 02 	lds	r25, 0x0206	; 0x800206 <__iob+0x1>
    5e6a:	89 2b       	or	r24, r25
    5e6c:	21 f4       	brne	.+8      	; 0x5e76 <fdevopen+0x52>
    5e6e:	f0 93 06 02 	sts	0x0206, r31	; 0x800206 <__iob+0x1>
    5e72:	e0 93 05 02 	sts	0x0205, r30	; 0x800205 <__iob>
    5e76:	20 97       	sbiw	r28, 0x00	; 0
    5e78:	c9 f0       	breq	.+50     	; 0x5eac <fdevopen+0x88>
    5e7a:	d1 87       	std	Z+9, r29	; 0x09
    5e7c:	c0 87       	std	Z+8, r28	; 0x08
    5e7e:	83 81       	ldd	r24, Z+3	; 0x03
    5e80:	82 60       	ori	r24, 0x02	; 2
    5e82:	83 83       	std	Z+3, r24	; 0x03
    5e84:	80 91 07 02 	lds	r24, 0x0207	; 0x800207 <__iob+0x2>
    5e88:	90 91 08 02 	lds	r25, 0x0208	; 0x800208 <__iob+0x3>
    5e8c:	89 2b       	or	r24, r25
    5e8e:	71 f4       	brne	.+28     	; 0x5eac <fdevopen+0x88>
    5e90:	f0 93 08 02 	sts	0x0208, r31	; 0x800208 <__iob+0x3>
    5e94:	e0 93 07 02 	sts	0x0207, r30	; 0x800207 <__iob+0x2>
    5e98:	80 91 09 02 	lds	r24, 0x0209	; 0x800209 <__iob+0x4>
    5e9c:	90 91 0a 02 	lds	r25, 0x020A	; 0x80020a <__iob+0x5>
    5ea0:	89 2b       	or	r24, r25
    5ea2:	21 f4       	brne	.+8      	; 0x5eac <fdevopen+0x88>
    5ea4:	f0 93 0a 02 	sts	0x020A, r31	; 0x80020a <__iob+0x5>
    5ea8:	e0 93 09 02 	sts	0x0209, r30	; 0x800209 <__iob+0x4>
    5eac:	cf 01       	movw	r24, r30
    5eae:	df 91       	pop	r29
    5eb0:	cf 91       	pop	r28
    5eb2:	1f 91       	pop	r17
    5eb4:	0f 91       	pop	r16
    5eb6:	08 95       	ret

00005eb8 <calloc>:
    5eb8:	0f 93       	push	r16
    5eba:	1f 93       	push	r17
    5ebc:	cf 93       	push	r28
    5ebe:	df 93       	push	r29
    5ec0:	86 9f       	mul	r24, r22
    5ec2:	80 01       	movw	r16, r0
    5ec4:	87 9f       	mul	r24, r23
    5ec6:	10 0d       	add	r17, r0
    5ec8:	96 9f       	mul	r25, r22
    5eca:	10 0d       	add	r17, r0
    5ecc:	11 24       	eor	r1, r1
    5ece:	c8 01       	movw	r24, r16
    5ed0:	7c de       	rcall	.-776    	; 0x5bca <malloc>
    5ed2:	ec 01       	movw	r28, r24
    5ed4:	00 97       	sbiw	r24, 0x00	; 0
    5ed6:	21 f0       	breq	.+8      	; 0x5ee0 <calloc+0x28>
    5ed8:	a8 01       	movw	r20, r16
    5eda:	60 e0       	ldi	r22, 0x00	; 0
    5edc:	70 e0       	ldi	r23, 0x00	; 0
    5ede:	06 d0       	rcall	.+12     	; 0x5eec <memset>
    5ee0:	ce 01       	movw	r24, r28
    5ee2:	df 91       	pop	r29
    5ee4:	cf 91       	pop	r28
    5ee6:	1f 91       	pop	r17
    5ee8:	0f 91       	pop	r16
    5eea:	08 95       	ret

00005eec <memset>:
    5eec:	dc 01       	movw	r26, r24
    5eee:	01 c0       	rjmp	.+2      	; 0x5ef2 <memset+0x6>
    5ef0:	6d 93       	st	X+, r22
    5ef2:	41 50       	subi	r20, 0x01	; 1
    5ef4:	50 40       	sbci	r21, 0x00	; 0
    5ef6:	e0 f7       	brcc	.-8      	; 0x5ef0 <memset+0x4>
    5ef8:	08 95       	ret

00005efa <eeprom_read_block>:
    5efa:	dc 01       	movw	r26, r24
    5efc:	cb 01       	movw	r24, r22

00005efe <eeprom_read_blraw>:
    5efe:	fc 01       	movw	r30, r24
    5f00:	e1 99       	sbic	0x1c, 1	; 28
    5f02:	fe cf       	rjmp	.-4      	; 0x5f00 <eeprom_read_blraw+0x2>
    5f04:	06 c0       	rjmp	.+12     	; 0x5f12 <eeprom_read_blraw+0x14>
    5f06:	ff bb       	out	0x1f, r31	; 31
    5f08:	ee bb       	out	0x1e, r30	; 30
    5f0a:	e0 9a       	sbi	0x1c, 0	; 28
    5f0c:	31 96       	adiw	r30, 0x01	; 1
    5f0e:	0d b2       	in	r0, 0x1d	; 29
    5f10:	0d 92       	st	X+, r0
    5f12:	41 50       	subi	r20, 0x01	; 1
    5f14:	50 40       	sbci	r21, 0x00	; 0
    5f16:	b8 f7       	brcc	.-18     	; 0x5f06 <eeprom_read_blraw+0x8>
    5f18:	08 95       	ret

00005f1a <eeprom_read_byte>:
    5f1a:	e1 99       	sbic	0x1c, 1	; 28
    5f1c:	fe cf       	rjmp	.-4      	; 0x5f1a <eeprom_read_byte>
    5f1e:	9f bb       	out	0x1f, r25	; 31
    5f20:	8e bb       	out	0x1e, r24	; 30
    5f22:	e0 9a       	sbi	0x1c, 0	; 28
    5f24:	99 27       	eor	r25, r25
    5f26:	8d b3       	in	r24, 0x1d	; 29
    5f28:	08 95       	ret

00005f2a <eeprom_read_word>:
    5f2a:	a8 e1       	ldi	r26, 0x18	; 24
    5f2c:	b0 e0       	ldi	r27, 0x00	; 0
    5f2e:	42 e0       	ldi	r20, 0x02	; 2
    5f30:	50 e0       	ldi	r21, 0x00	; 0
    5f32:	e5 cf       	rjmp	.-54     	; 0x5efe <eeprom_read_blraw>

00005f34 <eeprom_update_byte>:
    5f34:	26 2f       	mov	r18, r22

00005f36 <eeprom_update_r18>:
    5f36:	e1 99       	sbic	0x1c, 1	; 28
    5f38:	fe cf       	rjmp	.-4      	; 0x5f36 <eeprom_update_r18>
    5f3a:	9f bb       	out	0x1f, r25	; 31
    5f3c:	8e bb       	out	0x1e, r24	; 30
    5f3e:	e0 9a       	sbi	0x1c, 0	; 28
    5f40:	01 97       	sbiw	r24, 0x01	; 1
    5f42:	0d b2       	in	r0, 0x1d	; 29
    5f44:	02 16       	cp	r0, r18
    5f46:	31 f0       	breq	.+12     	; 0x5f54 <eeprom_update_r18+0x1e>
    5f48:	2d bb       	out	0x1d, r18	; 29
    5f4a:	0f b6       	in	r0, 0x3f	; 63
    5f4c:	f8 94       	cli
    5f4e:	e2 9a       	sbi	0x1c, 2	; 28
    5f50:	e1 9a       	sbi	0x1c, 1	; 28
    5f52:	0f be       	out	0x3f, r0	; 63
    5f54:	08 95       	ret

00005f56 <eeprom_update_word>:
    5f56:	01 96       	adiw	r24, 0x01	; 1
    5f58:	27 2f       	mov	r18, r23
    5f5a:	ed df       	rcall	.-38     	; 0x5f36 <eeprom_update_r18>
    5f5c:	eb cf       	rjmp	.-42     	; 0x5f34 <eeprom_update_byte>

00005f5e <eeprom_write_block>:
    5f5e:	dc 01       	movw	r26, r24
    5f60:	cb 01       	movw	r24, r22
    5f62:	02 c0       	rjmp	.+4      	; 0x5f68 <eeprom_write_block+0xa>
    5f64:	2d 91       	ld	r18, X+
    5f66:	05 d0       	rcall	.+10     	; 0x5f72 <eeprom_write_r18>
    5f68:	41 50       	subi	r20, 0x01	; 1
    5f6a:	50 40       	sbci	r21, 0x00	; 0
    5f6c:	d8 f7       	brcc	.-10     	; 0x5f64 <eeprom_write_block+0x6>
    5f6e:	08 95       	ret

00005f70 <eeprom_write_byte>:
    5f70:	26 2f       	mov	r18, r22

00005f72 <eeprom_write_r18>:
    5f72:	e1 99       	sbic	0x1c, 1	; 28
    5f74:	fe cf       	rjmp	.-4      	; 0x5f72 <eeprom_write_r18>
    5f76:	9f bb       	out	0x1f, r25	; 31
    5f78:	8e bb       	out	0x1e, r24	; 30
    5f7a:	2d bb       	out	0x1d, r18	; 29
    5f7c:	0f b6       	in	r0, 0x3f	; 63
    5f7e:	f8 94       	cli
    5f80:	e2 9a       	sbi	0x1c, 2	; 28
    5f82:	e1 9a       	sbi	0x1c, 1	; 28
    5f84:	0f be       	out	0x3f, r0	; 63
    5f86:	01 96       	adiw	r24, 0x01	; 1
    5f88:	08 95       	ret

00005f8a <eeprom_write_word>:
    5f8a:	f2 df       	rcall	.-28     	; 0x5f70 <eeprom_write_byte>
    5f8c:	27 2f       	mov	r18, r23
    5f8e:	f1 cf       	rjmp	.-30     	; 0x5f72 <eeprom_write_r18>

00005f90 <_exit>:
    5f90:	f8 94       	cli

00005f92 <__stop_program>:
    5f92:	ff cf       	rjmp	.-2      	; 0x5f92 <__stop_program>
